YR	RPTID	NAME	OPERATOR_ID	OSTREET	OCITY	OCOUNTY	OSTATE	OZIP	HSTREET	HCITY	HCOUNTY	HSTATE	HZIP	STOP	B1M_1	B1M_2	B1M_3	B1M_4	B1M_5	B1M_6	B1M_7	B1M_8	B1M_9	B1M_10	B1MT	B1S_1	B1S_2	B1S_3	B1S_4	B1S_5	B1S_6	B1S_7	B1S_8	B1S_9	B1S_10	B1ST	STM_1	STM_2	STM_3	STM_4	STM_5	STM_6	STMT	DIM_1	DIM_2	DIM_3	DIM_4	DIM_5	DIM_6	DIMT	CUM_1	CUM_2	CUM_3	CUM_4	CUM_5	CUM_6	CUMT	CIM_1	CIM_2	CIM_3	CIM_4	CIM_5	CIM_6	CIMT	PVCM_1	PVCM_2	PVCM_3	PVCM_4	PVCM_5	PVCM_6	PVCMT	PEM_1	PEM_2	PEM_3	PEM_4	PEM_5	PEM_6	PEMT	ABSM_1	ABSM_2	ABSM_3	ABSM_4	ABSM_5	ABSM_6	ABSMT	OT1M_1	OT1M_2	OT1M_3	OT1M_4	OT1M_5	OT1M_6	OT1MT	OT2M_1	OT2M_2	OT2M_3	OT2M_4	OT2M_5	OT2M_6	OT2MT	TOTM_1	TOTM_2	TOTM_3	TOTM_4	TOTM_5	TOTM_6	TOTMT	AVER	STS_1	STS_2	STS_3	STS_4	STS_5	STS_6	STST	DIS_1	DIS_2	DIS_3	DIS_4	DIS_5	DIS_6	DIST	CUS_1	CUS_2	CUS_3	CUS_4	CUS_5	CUS_6	CUST	CIS_1	CIS_2	CIS_3	CIS_4	CIS_5	CIS_6	CIST	PVCS_1	PVCS_2	PVCS_3	PVCS_4	PVCS_5	PVCS_6	PVCST	PES_1	PES_2	PES_3	PES_4	PES_5	PES_6	PEST	ABSS_1	ABSS_2	ABSS_3	ABSS_4	ABSS_5	ABSS_6	ABSST	OT1S_1	OT1S_2	OT1S_3	OT1S_4	OT1S_5	OT1S_6	OT1ST	OT2S_1	OT2S_2	OT2S_3	OT2S_4	OT2S_5	OT2S_6	OT2ST	TOTS_1	TOTS_2	TOTS_3	TOTS_4	TOTS_5	TOTS_6	TOTST	CM	CS	OM	OS	TM	TS	CDM	CDS	MDM	MDS	OTHM	OTHS	KNLK	FEDLK	UNACC	COMMENTS	PNAME	PHONE	DOR	DOE		
2003	20030001	THEBES MUNICIPAL GAS CO	19350	P O BOX 159	THEBES	ALEXANDER	IL	62990						 IL	0	0	0	10	0	0	0	0	0	0	10	0	0	0	142	0	0	0	0	0	0	142	0	10	0	0	0	0	10	0	0	0	0	0	0	0	0	0	0	0	0	0	0	0	0	0	0	0	0	0	0	0	0	0	0	0	0	0	0	0	0	0	0	0	0	0	0	0	0	0	0	0	0	0	0	0	0	0	0	0	0	0	0	0	0	0	10	0	0	0	0	10	0	0	142	0	0	0	0	142	0	0	0	0	0	0	0	0	0	0	0	0	0	0	0	0	0	0	0	0	0	0	0	0	0	0	0	0	0	0	0	0	0	0	0	0	0	0	0	0	0	0	0	0	0	0	0	0	0	0	0	0	0	0	0	0	0	142	0	0	0	0	142	0	0	0	0	0	0	0	0	0	0	0	0	3	0	2		DEAN KING	6187642409	1/14/2004	1/16/2004		
2003	20030002	"SUMMERVILLE GAS SYSTEM, CITY OF"	18712	P.O. BOX 180	SUMMERVILLE	CHATTOOGA	GA	30747						GA	0	2	0	141	86	0	0	0	0	0	229	0	0	23	1022	5113	0	0	0	0	0	6158	0	83	19	33	9	0	144	0	0	0	0	0	0	0	0	0	0	0	0	0	0	0	0	0	0	0	0	0	0	0	0	0	0	0	0	0	85	0	0	0	0	85	0	0	0	0	0	0	0	0	0	0	0	0	0	0	0	0	0	0	0	0	0	0	168	19	33	9	0	229	100	0	1009	32	4	0	0	1045	0	0	0	0	0	0	0	0	0	0	0	0	0	0	0	0	0	0	0	0	0	0	0	0	0	0	0	0	0	5096	17	0	0	0	5113	0	0	0	0	0	0	0	0	0	0	0	0	0	0	0	0	0	0	0	0	0	0	6105	49	4	0	0	6158	0	7	0	0	4	6	3	14	0	0	5	126	48	0	0		JEFF BAGGETT	7068570900	1/14/2004	1/16/2004		
2003	20030003	JAY UTILITIES AUTH	9170	102 N 5TH	JAY	DELAWARE	OK	74346						OK	0	0	0	36	0	0	0	0	0	0	36	0	0	0	1083	0	0	0	0	0	0	1083	0	14	9	13	0	0	36	0	0	0	0	0	0	0	0	0	0	0	0	0	0	0	0	0	0	0	0	0	0	0	0	0	0	0	0	0	0	0	0	0	0	0	0	0	0	0	0	0	0	0	0	0	0	0	0	0	0	0	0	0	0	0	0	0	14	9	13	0	0	36	0	0	927	109	47	0	0	1083	0	0	0	0	0	0	0	0	0	0	0	0	0	0	0	0	0	0	0	0	0	0	0	0	0	0	0	0	0	0	0	0	0	0	0	0	0	0	0	0	0	0	0	0	0	0	0	0	0	0	0	0	0	0	0	0	0	927	109	47	0	0	1083	10	0	0	0	0	0	0	0	13	0	0	0	0	0	11		PATSY J. HUGHES	9182538542	1/5/2004	1/16/2004		
2003	20030004	"COMMERCE GAS SYSTEM, CITY OF"	2644	"27 SYCAMORE ST,PO BOX 348"	COMMERCE	JACKSON	GA	30529	 	 		GA		GA	0	0	2	54	56	0	0	0	0	0	112	0	0	147	780	1909	0	0	0	0	0	2836	0	30	26	0	0	0	56	0	0	0	0	0	0	0	0	0	0	0	0	0	0	0	0	0	0	0	0	0	0	11	0	0	0	0	11	0	34	11	0	0	0	45	0	0	0	0	0	0	0	0	0	0	0	0	0	0	0	0	0	0	0	0	0	0	75	37	0	0	0	112	112	0	921	3	3	0	0	927	0	0	0	0	0	0	0	0	0	0	0	0	0	0	0	0	0	0	0	0	0	0	670	2	0	0	0	672	0	1233	4	0	0	0	1237	0	0	0	0	0	0	0	0	0	0	0	0	0	0	0	0	0	0	0	0	0	0	2824	9	3	0	0	2836	0	12	0	0	2	20	0	3	0	0	0	10	1	0	0.1		JAMES B EUBANKS	7063351893	1/14/2004	1/16/2004		
2003	20030005	"IRAAN UTILITY SYSTEMS, CITY OF"	8290	503 WEST 6TH STREET	IRAAN	PECOS	TX	79744					79744	TX	4	0	0	0	6	0	0	0	0	0	10	14	0	0	49	391	0	0	0	0	0	454	0	0	4	0	0	0	4	0	0	0	0	0	0	0	0	0	0	0	0	0	0	0	0	0	0	0	0	0	0	0	0	0	0	0	0	0	5	1	0	0	0	6	0	0	0	0	0	0	0	0	0	0	0	0	0	0	0	0	0	0	0	0	0	0	5	5	0	0	0	10	10	0	63	0	0	0	0	63	0	0	0	0	0	0	0	0	0	0	0	0	0	0	0	0	0	0	0	0	0	0	0	0	0	0	0	0	0	0	0	0	0	0	0	0	391	0	0	0	0	391	0	0	0	0	0	0	0	0	0	0	0	0	0	0	0	454	0	0	0	0	454	0	0	0	0	0	0	0	0	7	7	0	0	0	0	9.9		KATHY SMITHSON  - CITY SEC.	4326392301	1/15/2004	1/21/2004		
2003	20030006	MAPLE GROVE ENTERPRISES	30770	1873 FLICK RD	RIMERSBURG	CLARION	PA	16248						 PA	0	0	0	0	0	0	0	0	0	0	0	0	0	0	0	0	0	0	0	0	0	0	0	0	0	0	0	0	0	0	0	0	0	0	0	0	0	0	0	0	0	0	0	0	0	0	0	0	0	0	0	0	0	0	0	0	0	0	0	0	0	0	0	0	0	0	0	0	0	0	0	0	0	0	0	0	0	0	0	0	0	0	0	0	0	0	0	0	0	0	0	0	0	0	0	0	0	0	0	0	0	0	0	0	0	0	0	0	0	0	0	0	0	0	0	0	0	0	0	0	0	0	0	0	0	0	0	0	0	0	0	0	0	0	0	0	0	0	0	0	0	0	0	0	0	0	0	0	0	0	0	0	0	0	0	0	0	0	0	0	0	0	0	0	0	0	0	0	0	0	0	0	0	0	0	0	0	0	"AS OF JANUARY 1, 2002, MAPLE GROVE ENTERPRISES NO LONGER SELLS GAS AT RETAIL OR SERVE ANY RESIDENTIAL OR BUSINESS CUSTOMERS. MAPLE GROVE ENTERPRISES HAVE 0 DISTRIBUTION LINES.  IN ACCORDANCE WITH PART 191.11 OF TITLE 49 OF THE CODE OF FEDERAL REGULATIONS, AN ANNUAL REPORT FOR GAS DISTRIBUTION IS NO LONGER REQUIRED."	BECKY RADAKER	8144736418	1/20/2004	2/11/2004		
2003	20030007	"BLANDING, CITY OF"	30047	50 WEST 100 SOUTH	BLANDING	SAN JUAN	UT	84511						UT	0	0	0	0	35	0	0	0	0	0	35	0	0	0	0	0	0	0	0	0	0	0	0	0	0	0	0	0	0	0	0	0	0	0	0	0	0	0	0	0	0	0	0	0	0	0	0	0	0	0	0	31	5	0	0	0	36	0	0	0	0	0	0	0	0	0	0	0	0	0	0	0	0	0	0	0	0	0	0	0	0	0	0	0	0	0	31	5	0	0	0	36	0	0	0	0	0	0	0	0	0	0	0	0	0	0	0	0	0	0	0	0	0	0	0	0	0	0	0	0	0	0	0	0	0	0	0	0	0	1070	0	14	0	0	1084	0	0	0	0	0	0	0	0	0	0	0	0	0	0	0	0	0	0	0	0	0	0	1070	0	14	0	0	1084	0	0	0	0	0	0	0	0	0	0	0	0	0	0			TRUITT PURCELL	4356782791	1/20/2004	2/11/2004		
2003	20030008	MORGANTOWN NATURAL GAS SYSTEM	12780	"PO BOX 417, 117 N MAIN ST"	MORGANTOWN	BUTLER	KY	42261						 KY	0	0	0	23	40	0	0	0	0	0	63	0	0	0	503	795	0	0	0	0	0	1298	0	13	9	1	0	0	23	0	0	0	0	0	0	0	0	0	0	0	0	0	0	0	0	0	0	0	0	0	0	0	0	0	0	0	0	0	29	10	1	0	0	40	0	0	0	0	0	0	0	0	0	0	0	0	0	0	0	0	0	0	0	0	0	0	42	19	2	0	0	63	135	0	487	15	0	1	0	503	0	0	0	0	0	0	0	0	0	0	0	0	0	0	0	0	0	0	0	0	0	0	0	0	0	0	0	0	0	769	26	0	0	0	795	0	0	0	0	0	0	0	0	0	0	0	0	0	0	0	0	0	0	0	0	0	0	1256	41	0	1	0	1298	0	2	0	0	1	3	0	0	0	0	0	0	0	0	0		WOODY MARTIN	2705263623	1/20/2004	2/11/2004		
2003	20030009	"RIDGETOP NATURAL GAS DEPT, CITY OF"	17400	P.O. BOX 650	RIDGETOP	DAVIDSON	TN	37152						TN	0	0	0	7	8	0	0	0	0	0	15	0	0	0	178	280	0	0	0	0	0	458	0	0	7	0	0	0	7	0	0	0	0	0	0	0	0	0	0	0	0	0	0	0	0	0	0	0	0	0	0	7	1	0	0	0	8	0	0	0	0	0	0	0	0	0	0	0	0	0	0	0	0	0	0	0	0	0	0	0	0	0	0	0	0	0	7	8	0	0	0	15	150	0	160	0	0	0	0	160	0	0	0	0	0	0	0	0	0	0	0	0	0	0	0	0	0	0	0	0	0	0	298	0	0	0	0	298	0	0	0	0	0	0	0	0	0	0	0	0	0	0	0	0	0	0	0	0	0	0	0	0	0	0	0	0	0	458	0	0	0	0	458	0	0	0	3	1	0	0	0	0	0	0	0	0	0	0		STACY HONAKER	6158590596	1/20/2004	2/11/2004		
2003	20030010	MYERS GAS CO	12936	P.O. BOX 65	KENNERDELL	VENANGO	PA	16374						PA	7	0	0	0	5	0	0	0	0	0	12	75	12	0	0	132	0	0	0	0	0	219	0	7	0	0	0	0	7	0	0	0	0	0	0	0	0	0	0	0	0	0	0	0	0	0	0	0	0	0	0	0	0	0	0	0	0	0	3	2	0	0	0	5	0	0	0	0	0	0	0	0	0	0	0	0	0	0	0	0	0	0	0	0	0	0	10	2	0	0	0	12	0	0	52	35	0	0	0	87	0	0	0	0	0	0	0	0	0	0	0	0	0	0	0	0	0	0	0	0	0	0	0	0	0	0	0	0	0	85	47	0	0	0	132	0	0	0	0	0	0	0	0	0	0	0	0	0	0	0	0	0	0	0	0	0	0	137	82	0	0	0	219	1	1	0	0	0	0	0	0	0	0	0	0	0	0	0		CHARLES E. MYERS - OWNER	8143856473	1/20/2004	2/11/2004		
2003	20030011	"SOUTH FULTON GAS DEPT, CITY OF"	18432	700 MILTON COUNCE DR	SOUTH FULTON	OBION	TN	38257						 TN	0	0	4	33	0	0	0	0	0	0	37	0	0	90	988	0	0	0	0	0	0	1078	0	1	0	3	0	0	4	0	0	0	0	0	0	0	0	0	0	0	0	0	0	0	0	0	0	0	0	0	0	0	0	0	0	0	0	0	32	0	1	0	0	33	0	0	0	0	0	0	0	0	0	0	0	0	0	0	0	0	0	0	0	0	0	0	33	0	4	0	0	37	0	0	90	0	0	0	0	90	0	0	0	0	0	0	0	0	0	0	0	0	0	0	0	0	0	0	0	0	0	0	0	0	0	0	0	0	0	984	4	0	0	0	988	0	0	0	0	0	0	0	0	0	0	0	0	0	0	0	0	0	0	0	0	0	0	1074	4	0	0	0	1078	0	0	0	0	1	1	0	0	0	0	0	0	0	0	0.3	"TWO LEAKS ACCOUNT FOR ABOUT 400 MCF LOSS.  DURING THE WINTER MONTHS WE EXPERIENCED COMPUTER PROBLEMS, WHICH IDENTIFY IN OUR REVENUES & STATISTIC REPORT OF A PROBLEM."	HUBERT E MAYNARD	7314792242	1/20/2004	2/11/2004		
2003	20030012	UNITED STATES GYPSUM CO	20236	125 SOUTH FRANKLIN STREET	CHICAGO	COOK	IL	60606	125 SOUTH FRANKLIN STREET	CHICAGO	COOK	IL	60606	 PA	0	0	0	2	0	0	0	0	0	0	2	0	0	0	0	0	0	0	0	0	0	0	0	0	0	2	0	0	2	0	0	0	0	0	0	0	0	0	0	0	0	0	0	0	0	0	0	0	0	0	0	0	0	0	0	0	0	0	0	0	0	0	0	0	0	0	0	0	0	0	0	0	0	0	0	0	0	0	0	0	0	0	0	0	0	0	0	0	2	0	0	2	0	0	0	0	0	0	0	0	0	0	0	0	0	0	0	0	0	0	0	0	0	0	0	0	0	0	0	0	0	0	0	0	0	0	0	0	0	0	0	0	0	0	0	0	0	0	0	0	0	0	0	0	0	0	0	0	0	0	0	0	0	0	0	0	0	0	0	0	0	0	0	0	0	0	0	0	0	0	0	0	0	0	0	0	0	0		LOUIS O. STOCCO	3126065612	1/20/2004	2/11/2004		
2003	20030013	TWO HARBORS CITY MUNICIPAL GAS DEPT	12903	522 FIRST AVE	TWO HARBORS	LAKE	MN	55616						MN	0	0	0	2	30	0	0	0	0	0	32	0	0	0	1	1551	0	0	0	0	0	1552	0	0	0	1	1	0	2	0	0	0	0	0	0	0	0	0	0	0	0	0	0	0	0	0	0	0	0	0	0	0	0	0	0	0	0	0	21	7	2	0	0	30	0	0	0	0	0	0	0	0	0	0	0	0	0	0	0	0	0	0	0	0	0	0	21	7	3	1	0	32	100	0	0	0	0	1	0	1	0	0	0	0	0	0	0	0	0	0	0	0	0	0	0	0	0	0	0	0	0	0	0	0	0	0	0	0	0	1540	9	2	0	0	1551	0	0	0	0	0	0	0	0	0	0	0	0	0	0	0	0	0	0	0	0	0	0	1540	9	2	1	0	1552	0	0	0	0	0	3	0	0	0	0	2	9	0	0	0	PART C - OTHER SERVICES - (9) - METER SET LEAK MAINS - (2) - VALVES NEEDED GREASE	DENNIS E. CHANDLER - SUPT.	2188348812	1/20/2004	2/11/2004		
2003	20030014	HERITAGE PROPANE	30892	10527 SPRINGHILL DRIVE	SPRINGHILL	HERNANDO	FL	34608						 FL	0	0	0	42	12	0	0	0	0	0	54	0	0	0	1970	963	0	0	0	0	0	2933	0	31	7	4	0	0	42	0	0	0	0	0	0	0	0	0	0	0	0	0	0	0	0	0	0	0	0	0	0	0	0	0	0	0	0	0	7	5	0	0	0	12	0	0	0	0	0	0	0	0	0	0	0	0	0	0	0	0	0	0	0	0	0	0	38	12	4	0	0	54	0	0	1970	0	0	0	0	1970	0	0	0	0	0	0	0	0	0	0	0	0	0	0	0	0	0	0	0	0	0	0	0	0	0	0	0	0	0	963	0	0	0	0	963	0	0	0	0	0	0	0	0	0	0	0	0	0	0	0	0	0	0	0	0	0	0	2933	0	0	0	0	2933	0	11	0	0	0	5	0	0	0	22	0	20	0	0	0.04		MARY E COOLE	3526834187	1/20/2004	2/11/2004		
2003	20030015	"TYLER, CITY OF"	31222	230 NORTH TYLER ST	TYLER	LINCOLN	MN	56178						 MN	0	0	0	9	11	0	0	0	0	0	20	0	0	0	0	479	0	0	0	0	0	479	0	0	9	0	0	0	9	0	0	0	0	0	0	0	0	0	0	0	0	0	0	0	0	0	0	0	0	0	0	0	0	0	0	0	0	0	10	1	0	0	0	11	0	0	0	0	0	0	0	0	0	0	0	0	0	0	0	0	0	0	0	0	0	0	10	10	0	0	0	20	100	0	0	0	0	0	0	0	0	0	0	0	0	0	0	0	0	0	0	0	0	0	0	0	0	0	0	0	0	0	0	0	0	0	0	0	0	474	5	0	0	0	479	0	0	0	0	0	0	0	0	0	0	0	0	0	0	0	0	0	0	0	0	0	0	474	5	0	0	0	479	0	0	0	0	0	0	0	0	0	0	0	0	0	0	0		MIC VANDEVERE	5072475176	1/20/2004	2/11/2004		
2003	20030016	"CAPITAL GAS DISTRIBUTION, INC"	889	2619 OLD WASHINGTON STE B	WALLER	WALLER	TX	77484						TX	0	0	0	4	3	0	0	0	19	0	26	0	0	0	429	179	0	0	0	509	0	1117	0	4	0	0	0	0	4	0	0	0	0	0	0	0	0	0	0	0	0	0	0	0	0	0	0	0	0	0	0	3	0	0	0	0	3	0	19	0	0	0	0	19	0	0	0	0	0	0	0	0	0	0	0	0	0	0	0	0	0	0	0	0	0	0	26	0	0	0	0	26	3	0	429	0	0	0	0	429	0	0	0	0	0	0	0	0	0	0	0	0	0	0	0	0	0	0	0	0	0	0	179	0	0	0	0	179	0	509	0	0	0	0	509	0	0	0	0	0	0	0	0	0	0	0	0	0	0	0	0	0	0	0	0	0	0	1117	0	0	0	0	1117	1	0	0	0	0	0	0	0	0	0	0	0	0	0	7		JACKIE W SMITH	9363729164	1/20/2004	2/11/2004		
2003	20030017	JONESBORO MUNICIPAL GAS	9300	100 PUBLIC SQUARE  	JONESBORO	UNION	IL	62952						IL	0	0	0	16	0	0	0	0	0	0	16	0	0	0	732	0	0	0	0	0	0	732	0	5	8	3	0	0	16	0	0	0	0	0	0	0	0	0	0	0	0	0	0	0	0	0	0	0	0	0	0	0	0	0	0	0	0	0	0	0	0	0	0	0	0	0	0	0	0	0	0	0	0	0	0	0	0	0	0	0	0	0	0	0	0	0	5	8	3	0	0	16	75	0	662	46	1	0	0	709	0	0	0	0	0	0	0	0	0	0	0	0	0	0	0	0	0	0	0	0	0	0	0	0	0	0	0	0	0	23	0	0	0	0	23	0	0	0	0	0	0	0	0	0	0	0	0	0	0	0	0	0	0	0	0	0	0	685	46	1	0	0	732	1	1	0	0	0	0	0	0	0	0	0	0	5	0	1.3	5 ABOVE GROUND LEAKS BUSINESS AND RESIDENTIAL SURVEY DONE BY UTILITY SAFETY & DESIGN	LARRY ROSSON	6188332712	1/21/2004	2/11/2004		
2003	20030018	BROOKLYN MUNICIPAL GAS CO	1792	138 JACKSON STREET	BROOKLYN	POWESHIEK	IA	52211						IA	0	0	0	9	1	0	0	0	0	0	10	0	0	0	568	69	0	0	0	0	0	637	0	6	3	0	0	0	9	0	0	0	0	0	0	0	0	0	0	0	0	0	0	0	0	0	0	0	0	0	0	0	0	0	0	0	0	0	0	1	0	0	0	1	0	0	0	0	0	0	0	0	0	0	0	0	0	0	0	0	0	0	0	0	0	0	6	4	0	0	0	10	0	0	459	109	0	0	0	568	0	0	0	0	0	0	0	0	0	0	0	0	0	0	0	0	0	0	0	0	0	0	0	0	0	0	0	0	0	65	3	1	0	0	69	0	0	0	0	0	0	0	0	0	0	0	0	0	0	0	0	0	0	0	0	0	0	524	112	1	0	0	637	0	0	0	0	0	0	1	0	0	0	0	28	4	0	2.8		CRAIG L HALL  SUPERINTENDENT	6415229292	1/21/2004	2/11/2004		
2003	20030019	"GARRISON, CITY OF"	6101	129 GREENWOOD ST	GARRISON	NACOGDOCHES	TX	75946						TX	0	0	0	0	13	0	0	0	0	0	13	0	0	0	0	391	0	0	0	0	0	391	0	0	0	0	0	0	0	0	0	0	0	0	0	0	0	0	0	0	0	0	0	0	0	0	0	0	0	0	0	0	0	0	0	0	0	0	11	2	0	0	0	13	0	0	0	0	0	0	0	0	0	0	0	0	0	0	0	0	0	0	0	0	0	0	11	2	0	0	0	13	0	0	0	0	0	0	0	0	0	0	0	0	0	0	0	0	0	0	0	0	0	0	0	0	0	0	0	0	0	0	0	0	0	0	0	0	0	384	7	0	0	0	391	0	0	0	0	0	0	0	0	0	0	0	0	0	0	0	0	0	0	0	0	0	0	384	7	0	0	0	391	0	0	0	0	0	0	0	0	0	0	0	0	0	0	0		MELVIS BELL - SUPT	9363472301	1/21/2004	2/11/2004		
2003	20030020	"BAY MINETTE UTILITIES BOARD, CITY OF"	1192	25 HAND AVENUE	BAY MINETTE	BALDWIN	AL	36507						AL	0	0	2	18	75	0	0	0	0	0	95	0	0	237	620	1676	0	0	0	0	0	2533	0	8	7	3	0	0	18	0	0	0	0	0	0	0	0	0	0	0	0	0	0	0	0	0	0	0	0	0	0	0	0	0	0	0	0	0	65	12	0	0	0	77	0	0	0	0	0	0	0	0	0	0	0	0	0	0	0	0	0	0	0	0	0	0	73	19	3	0	0	95	85	0	857	5	0	0	0	862	0	0	0	0	0	0	0	0	0	0	0	0	0	0	0	0	0	0	0	0	0	0	0	0	0	0	0	0	0	1631	37	3	0	0	1671	0	0	0	0	0	0	0	0	0	0	0	0	0	0	0	0	0	0	0	0	0	0	2488	42	3	0	0	2533	0	0	0	0	2	2	0	0	0	0	0	0	0	0	0		MIKE ANDERSON	3345801626	1/21/2004	2/11/2004		
2003	20030021	"DELCAMBRE GAS DEPT, TOWN OF"	3220	107 N. RAILROAD	DELCAMBRE	IBERIA	LA	70528						LA	0	0	0	7	15	2	0	0	2	0	26	0	0	0	280	552	0	0	0	0	0	832	0	7	0	0	0	0	7	0	0	0	0	0	0	0	0	0	0	0	0	0	0	0	0	2	0	0	0	2	0	2	0	0	0	0	2	0	15	0	0	0	0	15	0	0	0	0	0	0	0	0	0	0	0	0	0	0	0	0	0	0	0	0	0	0	24	2	0	0	0	26	50	0	280	0	0	0	0	280	0	0	0	0	0	0	0	0	0	0	0	0	0	0	0	0	0	0	0	0	0	0	0	0	0	0	0	0	0	552	0	0	0	0	552	0	0	0	0	0	0	0	0	0	0	0	0	0	0	0	0	0	0	0	0	0	0	832	0	0	0	0	832	4	0	0	0	0	0	0	0	0	0	0	33	0	0	5.29		PATTI VINCENT	3376854462	1/21/2004	2/11/2004		
2003	20030022	MANILLA MUNICIPAL GAS DEPT	12090	443 MAIN ST - PO BOX 398	MANILLA	CRAWFORD	IA	51454						IA	0	0	0	5	1	0	0	0	0	0	6	0	0	0	390	0	0	0	0	0	0	390	0	4	1	0	0	0	5	0	0	0	0	0	0	0	0	0	0	0	0	0	0	0	0	0	0	0	0	0	0	1	0	0	0	0	1	0	0	0	0	0	0	0	0	0	0	0	0	0	0	0	0	0	0	0	0	0	0	0	0	0	0	0	0	0	5	1	0	0	0	6	89	0	346	40	0	0	0	386	0	0	0	0	0	0	0	0	0	0	0	0	0	0	0	0	0	0	0	0	0	0	0	0	0	0	0	0	0	4	0	0	0	0	4	0	0	0	0	0	0	0	0	0	0	0	0	0	0	0	0	0	0	0	0	0	0	350	40	0	0	0	390	0	0	0	1	0	0	0	0	0	0	0	0	0	0	0		GLEN MACUMBER	7126543952	1/21/2004	2/11/2004		
2003	20030023	"MAGNOLIA, CITY OF"	31089	16835 FM 1488	MAGNOLIA	MONTGOMERY	TX	77354						 TX	0	0	0	0	29	0	0	0	0	0	29	0	0	0	0	0	0	0	0	0	0	0	0	0	0	0	0	0	0	0	0	0	0	0	0	0	0	0	0	0	0	0	0	0	0	0	0	0	0	0	0	0	0	0	0	0	0	0	9	13	7	0	0	29	0	0	0	0	0	0	0	0	0	0	0	0	0	0	0	0	0	0	0	0	0	0	9	13	7	0	0	29	40	0	0	0	0	0	0	0	0	0	0	0	0	0	0	0	0	0	0	0	0	0	0	0	0	0	0	0	0	0	0	0	0	0	0	0	0	193	6	0	0	0	199	0	0	0	0	0	0	0	0	0	0	0	0	0	0	0	0	0	0	0	0	0	0	193	6	0	0	0	199	0	0	0	0	0	0	0	0	0	0	10	3	0	0	1	1) AVERAGE SERVICE LENGTH BEING INSTALLED NOW IS 40'.  METERS ARE BEING SET IN UTILITY EASEMENTS (NOT UP BY STRUCTURE).  2) MAIN LINE LEAKS CAUSED BY OUTSIDE CONTRACTORS DAMAGING CITY FACILITIES.  DID NOT NOTIFY OUR ONE-CALL LOCATE SYSTEM.	ARLEEN WEST	2813562266	1/21/2004	2/11/2004		
2003	20030024	EVANGELINE GAS PIPELINE CO	4600	5581 VIDRINE RD	VILLE PLATTE	EVANGELINE	LA	70586						LA	0	0	2	93	101	0	0	0	51	26	273	0	0	0	3687	0	0	0	0	0	0	3687	0	86	8	0	0	0	94	0	0	0	0	0	0	0	0	0	0	0	0	0	0	0	0	0	0	0	0	0	0	51	0	0	0	0	51	0	89	11	0	0	0	100	0	0	0	0	0	0	0	0	26	0	0	0	0	26	0	2	0	0	0	0	0	0	254	19	0	0	0	273	4	0	2373	2	0	0	0	2375	0	0	0	0	0	0	0	0	0	0	0	0	0	0	0	0	0	0	0	0	0	0	0	0	0	0	0	0	0	1312	0	0	0	0	1312	0	0	0	0	0	0	0	0	0	0	0	0	0	0	0	0	0	0	0	0	0	0	3685	2	0	0	0	3687	16	0	6	0	0	0	109	0	76	0	0	0	9	0	5		CECIL A MONIER	3373634177	1/21/2004	2/11/2004		
2003	20030025	"GARRETSON GAS UTILITY, CITY OF"	31094	"705 MAIN AVE, PO BOX 370"	GARRETSON	MENNEHAHA	SD	57030						SD	0	0	0	13	11	0	0	0	0	0	24	0	0	0	0	508	0	0	0	0	0	508	0	0	13	0	0	0	13	0	0	0	0	0	0	0	0	0	0	0	0	0	0	0	0	0	0	0	0	0	0	0	0	0	0	0	0	0	9	2	0	0	0	11	0	0	0	0	0	0	0	0	0	0	0	0	0	0	0	0	0	0	0	0	0	0	9	15	0	0	0	24	108	0	0	0	0	0	0	0	0	0	0	0	0	0	0	0	0	0	0	0	0	0	0	0	0	0	0	0	0	0	0	0	0	0	0	0	0	502	6	0	0	0	508	0	0	0	0	0	0	0	0	0	0	0	0	0	0	0	0	0	0	0	0	0	0	502	6	0	0	0	508	0	0	0	0	0	0	0	0	0	0	0	0	0	0	0		GARY EIKMEIER	6055946723	1/21/2004	2/11/2004		
2003	20030026	G&S GASLINE	30927	72056 A RD	OXFORD	HARLAN	NE	68967						NE	0	0	0	0	4	0	0	0	0	0	4	0	0	0	0	19	0	0	0	0	0	19	0	0	0	0	0	0	0	0	0	0	0	0	0	0	0	0	0	0	0	0	0	0	0	0	0	0	0	0	0	0	4	0	0	0	4	0	0	0	0	0	0	0	0	0	0	0	0	0	0	0	0	0	0	0	0	0	0	0	0	0	0	0	0	0	0	4	0	0	0	4	0	0	0	0	0	0	0	0	0	0	0	0	0	0	0	0	0	0	0	0	0	0	0	0	0	0	0	0	0	0	0	19	0	0	0	19	0	0	0	0	0	0	0	0	0	0	0	0	0	0	0	0	0	0	0	0	0	0	0	0	0	0	0	0	0	0	19	0	0	0	19	0	0	0	0	0	0	0	0	0	0	0	0	0	0	0		CLYDE LUEKING	3089910262	1/21/2004	2/11/2004		
2003	20030027	HARDIN NATURAL GAS SYSTEM	7075	90 COMMERCE ST.	HARDIN	MARSHALL	KY	42048						KY	0	0	0	14	12	0	0	0	0	0	26	0	0	0	326	325	0	0	0	0	0	651	0	7	7	0	0	0	14	0	0	0	0	0	0	0	0	0	0	0	0	0	0	0	0	0	0	0	0	0	0	0	0	0	0	0	0	0	12	0	0	0	0	12	0	0	0	0	0	0	0	0	0	0	0	0	0	0	0	0	0	0	0	0	0	0	19	7	0	0	0	26	0	0	321	5	0	0	0	326	0	0	0	0	0	0	0	0	0	0	0	0	0	0	0	0	0	0	0	0	0	0	0	0	0	0	0	0	0	321	3	1	0	0	325	0	0	0	0	0	0	0	0	0	0	0	0	0	0	0	0	0	0	0	0	0	0	642	8	1	0	0	651	0	0	0	0	0	1	0	0	0	0	0	0	0	0	5.6		EDDIE WASHAM - OPERATOR	2704374361	1/21/2004	2/11/2004		
2003	20030028	HERMAN RIEMER GAS CO	17405	134 WINFIELD ROAD	SARVER	BUTLER	PA	16055						PA	17	0	0	0	18	0	0	0	0	0	35	231	0	0	0	299	0	0	0	0	0	530	0	9	8	0	0	0	17	0	0	0	0	0	0	0	0	0	0	0	0	0	0	0	0	0	0	0	0	0	0	0	0	0	0	0	0	0	9	9	0	0	0	18	0	0	0	0	0	0	0	0	0	0	0	0	0	0	0	0	0	0	0	0	0	0	18	17	0	0	0	35	3	0	305	0	0	0	0	305	0	0	0	0	0	0	0	0	0	0	0	0	0	0	0	0	0	0	0	0	0	0	0	0	0	0	0	0	0	86	139	0	0	0	225	0	0	0	0	0	0	0	0	0	0	0	0	0	0	0	0	0	0	0	0	0	0	391	139	0	0	0	530	11	3	0	0	0	2	0	0	2	2	0	0	14	0	0		JEFFREY H RIEMER	7243521802	1/21/2004	2/11/2004		
2003	20030029	"FREEDOM GAS DEPT, TOWN OF"	5600	403 MAIN STREET	FREEDOM	WOODS	OK	73842						OK	0	0	1	6	3	0	0	0	0	0	10	0	0	36	0	105	0	0	0	0	0	141	0	0	7	0	0	0	7	0	0	0	0	0	0	0	0	0	0	0	0	0	0	0	0	0	0	0	0	0	0	0	0	0	0	0	0	0	0	3	0	0	0	3	0	0	0	0	0	0	0	0	0	0	0	0	0	0	0	0	0	0	0	0	0	0	0	10	0	0	0	10	15	0	35	1	0	0	0	36	0	0	0	0	0	0	0	0	0	0	0	0	0	0	0	0	0	0	0	0	0	0	0	0	0	0	0	0	0	0	0	0	0	0	0	0	105	0	0	0	0	105	0	0	0	0	0	0	0	0	0	0	0	0	0	0	0	140	1	0	0	0	141	0	0	0	0	0	3	0	0	0	0	0	0	1	0	0		CYNTHIA PIERCE	5806213302	1/21/2004	2/11/2004		
2003	20030030	"KEVIN GAS DISTRIBUTION CO, TOWN OF"	10220	PO BOX 137	KEVIN 	TOOLE	MT	59454						 MT	0	0	0	0	4	0	0	0	0	0	4	0	0	0	0	84	0	0	0	0	0	84	0	0	0	0	0	0	0	0	0	0	0	0	0	0	0	0	0	0	0	0	0	0	0	0	0	0	0	0	0	2	3	0	0	0	5	0	0	0	0	0	0	0	0	0	0	0	0	0	0	0	0	0	0	0	0	0	0	0	0	0	0	0	0	0	2	3	0	0	0	5	0	0	0	0	0	0	0	0	0	0	0	0	0	0	0	0	0	0	0	0	0	0	0	0	0	0	0	0	0	0	0	84	0	0	0	84	0	0	0	0	0	0	0	0	0	0	0	0	0	0	0	0	0	0	0	0	0	0	0	0	0	0	0	0	0	0	84	0	0	0	84	0	0	0	0	0	0	0	0	0	0	0	0	0	0	0		JAMES HOFLAND	4063372141	1/21/2004	3/19/2004		
2003	20030031	SPRINGFIELD GAS SYSTEM	18591	1311 R.W. GORDON DRIVE	SPRINGFIELD	ROBERTSON	TN	37172						TN	0	0	1	95	197	1	0	0	0	0	294	0	0	0	1755	4118	0	0	1181	0	0	7054	0	11	39	46	0	0	96	0	0	0	0	0	0	0	0	0	0	0	0	0	0	0	1	0	0	0	0	1	0	0	0	0	0	0	0	0	121	76	0	0	0	197	0	0	0	0	0	0	0	0	0	0	0	0	0	0	0	0	0	0	0	0	0	0	133	115	46	0	0	294	150	0	1724	29	2	0	0	1755	0	0	0	0	0	0	0	0	1181	0	0	0	0	1181	0	0	0	0	0	0	0	0	0	0	0	0	0	0	0	4092	25	1	0	0	4118	0	0	0	0	0	0	0	0	0	0	0	0	0	0	0	0	0	0	0	0	0	0	6997	54	3	0	0	7054	0	0	2	12	0	3	1	71	2	12	0	0	0	0	0.0236		GEORGE HALL - DIRECTOR	6153821621	1/21/2004	2/11/2004		
2003	20030032	PAPCO INC	15132	"213 W. THIRD AVENUE,#307"	WARREN	WARREN	PA	16365						PA	0	0	0	0	6	0	0	0	0	0	6	0	0	0	0	1	0	0	0	0	0	1	0	0	0	0	0	0	0	0	0	0	0	0	0	0	0	0	0	0	0	0	0	0	0	0	0	0	0	0	0	0	0	0	0	0	0	0	0	6	0	0	0	6	0	0	0	0	0	0	0	0	0	0	0	0	0	0	0	0	0	0	0	0	0	0	0	6	0	0	0	6	0	0	0	0	0	0	0	0	0	0	0	0	0	0	0	0	0	0	0	0	0	0	0	0	0	0	0	0	0	0	0	0	0	0	0	0	0	0	0	1	0	0	1	0	0	0	0	0	0	0	0	0	0	0	0	0	0	0	0	0	0	0	0	0	0	0	0	1	0	0	1	0	0	0	0	0	0	0	0	0	0	0	0	0	0	1		"DARRYL E. PIERCE, P.E. - SECRETARY"	8147262130	1/21/2004	2/11/2004		
2003	20030033	"LYONS GAS SYSTEM, CITY OF"	11952	"335 MAIN ST., BOX 598"	LYONS	BURT	NE	68038						NE	0	0	0	0	10	0	0	0	0	0	10	0	0	0	0	520	0	0	0	0	0	520	0	0	0	0	0	0	0	0	0	0	0	0	0	0	0	0	0	0	0	0	0	0	0	0	0	0	0	0	0	0	0	0	0	0	0	0	8	2	0	0	0	10	0	0	0	0	0	0	0	0	0	0	0	0	0	0	0	0	0	0	0	0	0	0	8	2	0	0	0	10	60	0	0	0	0	0	0	0	0	0	0	0	0	0	0	0	0	0	0	0	0	0	0	0	0	0	0	0	0	0	0	0	0	0	0	0	0	516	4	0	0	0	520	0	0	0	0	0	0	0	0	0	0	0	0	0	0	0	0	0	0	0	0	0	0	516	4	0	0	0	520	0	0	0	10	0	0	0	18	0	0	0	0	0	0	0		RON DABERKOW	4026872130	1/21/2004	2/11/2004		
2003	20030034	"DUCK HILL GAS SYSTEM, TOWN OF"	3580	"PO BOX 368, 105 N STATE"	DUCK HILL	MONTGOMERY	MS	38925						MS	0	0	0	27	7	0	0	0	0	0	34	0	0	0	456	210	0	0	0	0	0	666	0	18	11	0	0	0	29	0	0	0	0	0	0	0	0	0	0	0	0	0	0	0	0	0	0	0	0	0	0	0	0	0	0	0	0	0	5	0	0	0	0	5	0	0	0	0	0	0	0	0	0	0	0	0	0	0	0	0	0	0	0	0	0	0	23	11	0	0	0	34	100	0	456	0	0	0	0	456	0	0	0	0	0	0	0	0	0	0	0	0	0	0	0	0	0	0	0	0	0	0	0	0	0	0	0	0	0	210	0	0	0	0	210	0	0	0	0	0	0	0	0	0	0	0	0	0	0	0	0	0	0	0	0	0	0	666	0	0	0	0	666	1	5	0	0	0	0	0	0	0	0	0	0	0	0	1.75		JERRY B PYRON	6625657200	1/21/2004	2/11/2004		
2003	20030035	VELMA PUBLIC WORKS AUTH	21170	"PO BOX 5, MAIN & HARGROVE"	VELMA	STEPHENS	OK	73491		 		OK		OK	0	0	0	0	39	0	0	0	0	0	39	0	0	0	0	498	0	0	0	0	0	498	0	0	0	0	0	0	0	0	0	0	0	0	0	0	0	0	0	0	0	0	0	0	0	0	0	0	0	0	0	0	0	0	0	0	0	0	0	0	0	0	0	0	0	0	0	0	0	0	0	0	39	0	0	0	0	39	0	0	0	0	0	0	0	0	39	0	0	0	0	39	15	0	0	0	0	0	0	0	0	0	0	0	0	0	0	0	0	0	0	0	0	0	0	0	0	0	0	0	0	0	0	0	0	0	0	0	0	0	0	0	0	0	0	0	0	0	0	0	0	0	0	10000	0	0	0	0	10000	0	0	0	0	0	0	0	0	10000	0	0	0	0	10000	0	0	0	0	0	0	0	0	0	0	0	0	0	0	5		PAULA LYNN	5804443392	1/21/2004	2/11/2004		
2003	20030036	BROOKSIDE GAS SYSTEM	1808	208 MAIN STREET	BROOKSIDE	JEFFERSON	AL	35036					35036	 AL	0	0	0	18	2	0	0	0	0	0	20	0	416	0	0	200	0	0	0	0	0	616	0	4	14	0	0	0	18	0	0	0	0	0	0	0	0	0	0	0	0	0	0	0	0	0	0	0	0	0	0	0	0	0	0	0	0	0	2	0	0	0	0	2	0	0	0	0	0	0	0	0	0	0	0	0	0	0	0	0	0	0	0	0	0	0	6	14	0	0	0	20	0	0	416	0	0	0	0	416	0	0	0	0	0	0	0	0	0	0	0	0	0	0	0	0	0	0	0	0	0	0	0	0	0	0	0	0	0	200	0	0	0	0	200	0	0	0	0	0	0	0	0	0	0	0	0	0	0	0	0	0	0	0	0	0	0	616	0	0	0	0	616	0	1	0	0	0	0	0	3	0	2	0	0	6	0	3		DEBBIE KEEDY	2056749275	1/21/2004	2/11/2004		
2003	20030037	"TROY GAS SYSTEM, TOWN OF"	19710	116 HARPER ST.	TROY	OBION	TN	38260						TN	0	0	0	7	5	0	0	0	0	0	12	0	0	0	302	181	0	0	0	0	0	483	0	7	0	0	0	0	7	0	0	0	0	0	0	0	0	0	0	0	0	0	0	0	0	0	0	0	0	0	0	0	0	0	0	0	0	0	5	0	0	0	0	5	0	0	0	0	0	0	0	0	0	0	0	0	0	0	0	0	0	0	0	0	0	0	12	0	0	0	0	12	50	0	302	0	0	0	0	302	0	0	0	0	0	0	0	0	0	0	0	0	0	0	0	0	0	0	0	0	0	0	0	0	0	0	0	0	0	181	0	0	0	0	181	0	0	0	0	0	0	0	0	0	0	0	0	0	0	0	0	0	0	0	0	0	0	483	0	0	0	0	483	0	0	0	0	0	0	0	0	0	0	0	0	0	0	7		LYNN JONES	7315364745	1/21/2004	2/11/2004		
2003	20030038	SHELBY GAS ASSOCIATION	18260											MT	0	0	0	8	22	0	0	0	0	0	30	0	0	42	461	647	0	0	0	0	0	1150	0	6	2	0	0	0	8	0	0	0	0	0	0	0	0	0	0	0	0	0	0	0	0	0	0	0	0	0	0	18	4	0	0	0	22	0	0	0	0	0	0	0	0	0	0	0	0	0	0	0	0	0	0	0	0	0	0	0	0	0	0	0	0	0	24	6	0	0	0	30	60	0	503	0	0	0	0	503	0	0	0	0	0	0	0	0	0	0	0	0	0	0	0	0	0	0	0	0	0	0	0	0	0	0	0	0	0	617	26	4	0	0	647	0	0	0	0	0	0	0	0	0	0	0	0	0	0	0	0	0	0	0	0	0	0	1120	26	4	0	0	1150	3	18	0	0	0	0	0	0	1	18	0	36	0	0	1.56		LARRY L. NELSON - GENERAL MANAGER	4064345575	1/21/2004	2/11/2004		
2003	20030039	"STEPHEN, CITY OF"	18636	424 FIFTH STREET	STEPHEN	MARSHALL	MN	56757						 MN	0	0	0	9	0	0	0	0	0	0	9	0	0	0	234	54	0	0	0	0	0	288	0	8	1	0	0	0	9	0	0	0	0	0	0	0	0	0	0	0	0	0	0	0	0	0	0	0	0	0	0	0	0	0	0	0	0	0	0	0	0	0	0	0	0	0	0	0	0	0	0	0	0	0	0	0	0	0	0	0	0	0	0	0	0	0	8	1	0	0	0	9	70	0	233	1	0	0	0	234	0	0	0	0	0	0	0	0	0	0	0	0	0	0	0	0	0	0	0	0	0	0	0	0	0	0	0	0	0	54	0	0	0	0	54	0	0	0	0	0	0	0	0	0	0	0	0	0	0	0	0	0	0	0	0	0	0	287	1	0	0	0	288	0	0	0	0	0	0	0	0	0	4	0	0	0	0	7.74		ROGER NELSON	2184783614	1/21/2004	2/11/2004		
2003	20030040	"MORTON GAS SYSTEM, CITY OF"	12798	201 E. WILSON	MORTON	COCHRAN	TX	79346						TX	0	0	0	19	20	0	0	0	0	0	39	0	0	0	155	943	0	0	0	0	0	1098	0	1	19	0	0	0	20	0	0	0	0	0	0	0	0	0	0	0	0	0	0	0	0	0	0	0	0	0	0	8	2	0	0	0	10	0	8	1	0	0	0	9	0	0	0	0	0	0	0	0	0	0	0	0	0	0	0	0	0	0	0	0	0	0	17	22	0	0	0	39	11	0	152	3	0	0	0	155	0	0	0	0	0	0	0	0	0	0	0	0	0	0	0	0	0	0	0	0	0	0	319	0	0	0	0	319	0	621	3	0	0	0	624	0	0	0	0	0	0	0	0	0	0	0	0	0	0	0	0	0	0	0	0	0	0	1092	6	0	0	0	1098	0	0	0	0	0	0	0	0	0	3	0	0	0	0	3		RANDY GEORGE	8062668850	1/21/2004	2/12/2004		
2003	20030041	FITCHBURG GAS & ELECTRIC LIGHT CO	5200	285 JOHN FITCH HIGHWAY	FITCHBURG	WORCESTER	MA	1420					97	MA	15	66	0	117	36	74	3	0	0	0	311	2870	1044	0	5818	1766	19	0	0	0	0	11517	0	59	81	58	0	0	198	0	0	3	0	0	0	3	0	0	0	0	0	0	0	0	3	58	11	1	1	74	0	0	0	0	0	0	0	0	9	16	11	0	0	36	0	0	0	0	0	0	0	0	0	0	0	0	0	0	0	0	0	0	0	0	0	0	71	158	80	1	1	311	55	0	3054	6638	40	0	0	9732	0	0	0	0	0	0	0	0	0	0	0	0	0	0	0	0	15	4	0	0	19	0	0	0	0	0	0	0	0	1077	662	26	1	0	1766	0	0	0	0	0	0	0	0	0	0	0	0	0	0	0	0	0	0	0	0	0	0	4131	7315	70	1	0	11517	9	8	1	0	6	7	0	0	0	0	367	36	59	0	0.12		RONALD A. NICHOLS	9783533259	1/21/2004	2/12/2004		
2003	20030043	"EXOKO GOLDEN ""T"" INC."	30638	12721 OAKDALE VIEW DR	EDMOND	OKLAHOMA	OK	73013						 TX	0	0	0	5	0	0	0	0	0	0	5	0	0	0	4	0	0	0	0	0	0	4	0	0	5	0	0	0	5	0	0	0	0	0	0	0	0	0	0	0	0	0	0	0	0	0	0	0	0	0	0	0	0	0	0	0	0	0	0	0	0	0	0	0	0	0	0	0	0	0	0	0	0	0	0	0	0	0	0	0	0	0	0	0	0	0	0	5	0	0	0	5	100	0	0	0	3	0	0	3	0	0	0	0	0	0	0	0	0	0	0	0	0	0	0	0	0	0	0	0	0	0	0	0	1	0	0	1	0	0	0	0	0	0	0	0	0	0	0	0	0	0	0	0	0	0	0	0	0	0	0	0	0	0	0	0	0	0	0	4	0	0	4	0	0	0	0	0	0	0	0	0	0	0	0	0	0	0	PIPELINE SHUT IN - NO GAS FLOW	ARTHUR M GHERE	4054788035	1/21/2004	2/12/2004		
2003	20030044	MILLENNIUM ENERGY INC 	31360	P O BOX 1118 951 FAIRVIEW	BOWLING GREEN	WARREN	KY	42102						 KY	0	0	0	0	8	0	0	0	0	0	8	0	0	0	0	89	0	0	0	0	0	89	0	0	0	0	0	0	0	0	0	0	0	0	0	0	0	0	0	0	0	0	0	0	0	0	0	0	0	0	0	0	0	0	0	0	0	0	3	4	1	0	0	8	0	0	0	0	0	0	0	0	0	0	0	0	0	0	0	0	0	0	0	0	0	0	3	4	1	0	0	8	45	0	0	0	0	0	0	0	0	0	0	0	0	0	0	0	0	0	0	0	0	0	0	0	0	0	0	0	0	0	0	0	0	0	0	0	0	84	4	1	0	0	89	0	0	0	0	0	0	0	0	0	0	0	0	0	0	0	0	0	0	0	0	0	0	84	4	1	0	0	89	0	0	0	0	2	2	0	0	0	0	0	0	0	0	0		GARY K DILLARD	2708426541	1/22/2004	2/12/2004		
2003	20030045	WESTBROOK PUBLIC UTILITIES	883	556 1ST AVE. P.O. BOX 308	WESTBROOK	COTTONWOOD	MN	56183						MN	0	0	0	0	16	0	0	0	0	0	16	0	0	0	0	439	0	0	0	0	0	439	0	0	0	0	0	0	0	0	0	0	0	0	0	0	0	0	0	0	0	0	0	0	0	0	0	0	0	0	0	0	0	0	0	0	0	0	10	6	0	0	0	16	0	0	0	0	0	0	0	0	0	0	0	0	0	0	0	0	0	0	0	0	0	0	10	6	0	0	0	16	0	0	0	0	0	0	0	0	0	0	0	0	0	0	0	0	0	0	0	0	0	0	0	0	0	0	0	0	0	0	0	0	0	0	0	0	0	433	6	0	0	0	439	0	0	0	0	0	0	0	0	0	0	0	0	0	0	0	0	0	0	0	0	0	0	433	6	0	0	0	439	0	0	0	0	0	0	0	0	0	0	0	0	0	0	0		DENNIS JUTLING	5072746712	1/22/2004	2/12/2004		
2003	20030046	"MARSHALL GAS DEPT, CITY OF"	12186											 IL	0	0	0	48	22	0	0	0	0	0	70	0	0	0	1777	492	0	0	0	0	0	2269	0	28	5	15	0	0	48	0	0	0	0	0	0	0	0	0	0	0	0	0	0	0	0	0	0	0	0	0	0	0	0	0	0	0	0	0	18	4	0	0	0	22	0	0	0	0	0	0	0	0	0	0	0	0	0	0	0	0	0	0	0	0	0	0	46	9	15	0	0	70	130	0	1678	98	1	0	0	1777	0	0	0	0	0	0	0	0	0	0	0	0	0	0	0	0	0	0	0	0	0	0	0	0	0	0	0	0	0	488	4	0	0	0	492	0	0	0	0	0	0	0	0	0	0	0	0	0	0	0	0	0	0	0	0	0	0	2166	102	1	0	0	2269	0	24	0	0	0	0	0	0	0	0	0	0	0	0	0		ROGER WATWOOD	2178268087	1/22/2004	2/12/2004		
2003	20030047	ATMOS ENERGY	20211	"377 RIVERSIDE DRIVE, #201"	FRANKLIN	WILLIAMSON	TN	37064	5430 LBJ FREEWAY STE 160	DALLAS	DALLAS	TX	75240	 KY	0	0	0	0	3	0	0	0	0	0	3	0	0	0	0	15	0	0	0	0	0	15	0	0	0	0	0	0	0	0	0	0	0	0	0	0	0	0	0	0	0	0	0	0	0	0	0	0	0	0	0	0	0	0	0	0	0	0	3	0	0	0	0	3	0	0	0	0	0	0	0	0	0	0	0	0	0	0	0	0	0	0	0	0	0	0	3	0	0	0	0	3	500	0	0	0	0	0	0	0	0	0	0	0	0	0	0	0	0	0	0	0	0	0	0	0	0	0	0	0	0	0	0	0	0	0	0	0	0	15	0	0	0	0	15	0	0	0	0	0	0	0	0	0	0	0	0	0	0	0	0	0	0	0	0	0	0	15	0	0	0	0	15	0	0	0	0	0	0	0	0	0	0	0	0	0	0	0		MATTHEW FRIHART	6155957700	1/22/2004	2/12/2004		
2003	20030048	"BASILE, TOWN OF"	1136	"PO BOX 308,3211 E RAILROA"	BASILE	EVANGELINE	LA	70515						LA	0	0	0	5	14	0	0	0	0	0	19	0	0	0	3	869	0	0	0	0	0	872	0	0	5	0	0	0	5	0	0	0	0	0	0	0	0	0	0	0	0	0	0	0	0	0	0	0	0	0	0	0	0	0	0	0	0	0	11	3	0	0	0	14	0	0	0	0	0	0	0	0	0	0	0	0	0	0	0	0	0	0	0	0	0	0	11	8	0	0	0	19	85	0	0	4	0	0	0	4	0	0	0	0	0	0	0	0	0	0	0	0	0	0	0	0	0	0	0	0	0	0	0	0	0	0	0	0	0	859	9	0	0	0	868	0	0	0	0	0	0	0	0	0	0	0	0	0	0	0	0	0	0	0	0	0	0	859	13	0	0	0	872	0	6	0	0	0	0	0	0	0	0	0	0	0	0	0		WOODROW W. CARTER	3374325281	1/22/2004	2/12/2004		
2003	20030049	"SPUR, CITY OF"	18594	402 BURLINGTON	SPUR	DICKENS	TX	-9377						 TX	0	0	0	1	14	0	0	0	0	0	15	0	0	0	3	449	0	0	0	0	0	452	0	0	1	0	0	0	1	0	0	0	0	0	0	0	0	0	0	0	0	0	0	0	0	0	0	0	0	0	0	8	1	0	0	0	9	0	4	1	0	0	0	5	0	0	0	0	0	0	0	0	0	0	0	0	0	0	0	0	0	0	0	0	0	0	12	3	0	0	0	15	6	0	3	1	0	0	0	4	0	0	0	0	0	0	0	0	0	0	0	0	0	0	0	0	0	0	0	0	0	0	325	1	0	0	0	326	0	113	9	0	0	0	122	0	0	0	0	0	0	0	0	0	0	0	0	0	0	0	0	0	0	0	0	0	0	441	11	0	0	0	452	0	0	2	3	0	0	0	0	0	0	0	0	1	0	14		TONY MAYFIELD	8062713316	1/22/2004	2/12/2004		
2003	20030050	LOS YBANEZ GAS	11780	1919 COUNTY FD M BOX 52A 	LAMESA	DAWSON	TX	79331						TX	0	2	0	0	0	0	0	0	0	0	2	0	66	0	0	0	0	0	0	0	0	66	0	2	0	0	0	0	2	0	0	0	0	0	0	0	0	0	0	0	0	0	0	0	0	0	0	0	0	0	0	0	0	0	0	0	0	0	0	0	0	0	0	0	0	0	0	0	0	0	0	0	0	0	0	0	0	0	0	0	0	0	0	0	0	0	2	0	0	0	0	2	20	0	5	0	0	0	0	5	0	0	0	0	0	0	0	0	0	0	0	0	0	0	0	0	0	0	0	0	0	0	0	0	0	0	0	0	0	0	0	0	0	0	0	0	0	0	0	0	0	0	0	0	0	0	0	0	0	0	0	0	0	0	0	0	0	5	0	0	0	0	5	0	0	0	0	0	0	0	0	0	0	0	0	0	0	0		LEONARD ESTRACA	8068725017	1/22/2004	2/12/2004		
2003	20030052	DAISETTA WATER & GAS DEPT	3070	"PO BOX 549, 101 E PINE"	DAISETTA	LIBERTY	TX	77533						TX	0	0	0	0	10	0	0	0	0	0	10	0	0	0	0	275	0	0	0	0	0	275	0	0	0	0	0	0	0	0	0	0	0	0	0	0	0	0	0	0	0	0	0	0	0	0	0	0	0	0	0	0	0	0	0	0	0	0	7	3	0	0	0	10	0	0	0	0	0	0	0	0	0	0	0	0	0	0	0	0	0	0	0	0	0	0	7	3	0	0	0	10	12	0	0	0	0	0	0	0	0	0	0	0	0	0	0	0	0	0	0	0	0	0	0	0	0	0	0	0	0	0	0	0	0	0	0	0	0	0	0	0	0	0	0	0	272	3	0	0	0	275	0	0	0	0	0	0	0	0	0	0	0	0	0	0	0	272	3	0	0	0	275	0	0	0	0	0	1	0	0	0	0	0	0	1	0	0.04		SCOTT A WIBLE	9365366761	1/28/2004	2/12/2004		
2003	20030053	EASTERN NATURAL GAS CO	26358	5940 STATE ROUTE 7	KINSMAN	TRUMBULL	OH	44428						OH	43	0	11	47	126	0	0	0	0	0	227	1129	0	106	1012	4407	0	0	0	0	0	6654	0	28	61	12	0	0	101	0	0	0	0	0	0	0	0	0	0	0	0	0	0	0	0	0	0	0	0	0	0	0	0	0	0	0	0	0	55	67	4	0	0	126	0	0	0	0	0	0	0	0	0	0	0	0	0	0	0	0	0	0	0	0	0	0	83	128	16	0	0	227	50	0	1269	964	12	0	0	2245	0	0	0	0	0	0	0	0	0	0	0	0	0	0	0	0	0	0	0	0	0	0	0	0	0	0	0	0	0	4287	113	9	0	0	4409	0	0	0	0	0	0	0	0	0	0	0	0	0	0	0	0	0	0	0	0	0	0	5556	1077	21	0	0	6654	72	12	0	2	7	11	1	0	0	2	3	5	51	0	1.29		WILLIAM D. NUTTER	3307723500	1/29/2004	2/12/2004		
2003	20030054	HUTCHINSON UTILITIES COMMISSION	7695	225 MICHIGAN STREET 	HUTCHINSON	MCLEOD	MN	55350						MN	0	0	0	59	32	0	0	0	0	0	91	0	0	0	3248	1687	0	0	0	0	0	4935	0	34	14	8	3	0	59	0	0	0	0	0	0	0	0	0	0	0	0	0	0	0	0	0	0	0	0	0	0	0	0	0	0	0	0	0	18	13	1	0	0	32	0	0	0	0	0	0	0	0	0	0	0	0	0	0	0	0	0	0	0	0	0	0	52	27	9	3	0	91	88	0	3203	41	3	1	0	3248	0	0	0	0	0	0	0	0	0	0	0	0	0	0	0	0	0	0	0	0	0	0	0	0	0	0	0	0	0	1650	35	2	0	0	1687	0	0	0	0	0	0	0	0	0	0	0	0	0	0	0	0	0	0	0	0	0	0	4853	76	5	1	0	4935	0	0	0	0	1	6	0	9	0	0	0	1	0	0	0.72		JOHN WEBSTER	3202340507	1/29/2004	2/12/2004		
2003	20030055	BOLIVAR GAS DEPT	1616	502 EAST JACKSON ST.	BOLIVAR	HARDEMAN	TN	38008						TN	0	0	0	107	229	0	0	0	0	0	336	0	0	0	2336	3837	0	0	0	0	0	6173	0	37	23	47	0	0	107	0	0	0	0	0	0	0	0	0	0	0	0	0	0	0	0	0	0	0	0	0	0	0	0	0	0	0	0	0	188	41	0	0	0	229	0	0	0	0	0	0	0	0	0	0	0	0	0	0	0	0	0	0	0	0	0	0	225	64	47	0	0	336	0	0	2311	22	2	1	0	2336	0	0	0	0	0	0	0	0	0	0	0	0	0	0	0	0	0	0	0	0	0	0	0	0	0	0	0	0	0	3832	5	0	0	0	3837	0	0	0	0	0	0	0	0	0	0	0	0	0	0	0	0	0	0	0	0	0	0	6143	27	2	1	0	6173	0	0	0	0	4	32	0	0	0	0	0	0	0	0	1		CLYDE DELLINGER- MANAGER	7316585894	1/29/2004	2/12/2004		
2003	20030056	"SEBRING GAS SYSTEM, INC"	929	3515 HWY 27 SOUTH	SEBRING	HIGHLANDS	FL	33870						FL	0	0	0	14	15	0	0	0	0	0	29	0	0	0	498	347	0	0	0	0	0	845	0	14	0	0	0	0	14	0	0	0	0	0	0	0	0	0	0	0	0	0	0	0	0	0	0	0	0	0	0	0	0	0	0	0	0	0	7	8	0	0	0	15	0	0	0	0	0	0	0	0	0	0	0	0	0	0	0	0	0	0	0	0	0	0	21	8	0	0	0	29	30	0	498	0	0	0	0	498	0	0	0	0	0	0	0	0	0	0	0	0	0	0	0	0	0	0	0	0	0	0	0	0	0	0	0	0	0	307	40	0	0	0	347	0	0	0	0	0	0	0	0	0	0	0	0	0	0	0	0	0	0	0	0	0	0	805	40	0	0	0	845	0	0	1	3	0	0	0	0	0	0	0	5	0	0	0		JAMES E. CORRELL	8633850194	1/29/2004	2/12/2004		
2003	20030057	ST LAWRENCE GAS CO INC	18084	33 STEARNS STREET	MASSENA	ST LAWRENCE	NY	-3663						 NY	0	0	0	168	108	0	0	0	0	0	276	0	0	0	7356	7205	0	0	0	0	0	14561	0	95	42	12	19	0	168	0	0	0	0	0	0	0	0	0	0	0	0	0	0	0	0	0	0	0	0	0	0	0	0	0	0	0	0	0	85	20	3	0	0	108	0	0	0	0	0	0	0	0	0	0	0	0	0	0	0	0	0	0	0	0	0	0	180	62	15	19	0	276	75	0	6893	432	27	4	0	7356	0	0	0	0	0	0	0	0	0	0	0	0	0	0	0	0	0	0	0	0	0	0	0	0	0	0	0	0	0	6798	404	2	1	0	7205	0	0	0	0	0	0	0	0	0	0	0	0	0	0	0	0	0	0	0	0	0	0	13691	836	29	5	0	14561	1	0	0	4	2	19	0	0	0	0	0	0	0	0	0.59		JAMES P SUTTON	3157693516	1/29/2004	2/12/2004		
2003	20030058	ESCAMBIA GAS PRODUCERS LLC	31200	425 S MAIN ST SUITE 201	ANN ARBOR	WASHTENAW	MI	48104						FL	0	0	0	0	7	0	0	0	0	0	7	0	0	0	0	1	0	0	0	0	0	1	0	0	0	0	0	0	0	0	0	0	0	0	0	0	0	0	0	0	0	0	0	0	0	0	0	0	0	0	0	0	0	0	0	0	0	0	0	0	0	7	0	7	0	0	0	0	0	0	0	0	0	0	0	0	0	0	0	0	0	0	0	0	0	0	0	0	0	7	0	7	1700	0	0	0	0	0	0	0	0	0	0	0	0	0	0	0	0	0	0	0	0	0	0	0	0	0	0	0	0	0	0	0	0	0	0	0	0	0	0	0	0	1	1	0	0	0	0	0	0	0	0	0	0	0	0	0	0	0	0	0	0	0	0	0	0	0	0	0	0	1	1	0	0	0	0	0	0	0	0	0	0	0	0	0	0	0		DOUGLAS NIELSEN	7274451115	1/29/2004	2/12/2004		
2003	20030059	CLAIBORNE COUNTY UTILITY DISTRICT	31498	P O BOX 606 630 DAVIS DRI	NEW TAZEWELL	CLAIBORNE	TN	37824						 TN	0	0	0	29	80	0	0	0	0	0	109	0	0	0	3	702	0	0	0	0	0	705	0	0	3	26	0	0	29	0	0	0	0	0	0	0	0	0	0	0	0	0	0	0	0	0	0	0	0	0	0	0	0	0	0	0	0	0	60	12	8	0	0	80	0	0	0	0	0	0	0	0	0	0	0	0	0	0	0	0	0	0	0	0	0	0	60	15	34	0	0	109	0	0	0	0	0	0	0	0	0	0	0	0	0	0	0	0	0	0	0	0	0	0	0	0	0	0	0	0	0	0	0	0	0	0	0	0	0	635	67	3	0	0	705	0	0	0	0	0	0	0	0	0	0	0	0	0	0	0	0	0	0	0	0	0	0	635	67	3	0	0	705	0	0	0	0	3	5	0	0	0	1	0	3	0	0	0		CARL DOANE	4236264282	1/29/2004	2/12/2004		
2003	20030060	"PINNACLE GAS PRODUCERS, LLC"	31902	425 S MAIN ST SUITE 201	ANN ARBOR	WASHTENAW	MI	48104						 OH	0	0	0	0	2	0	0	0	0	0	2	0	0	0	0	0	0	0	0	0	0	0	0	0	0	0	0	0	0	0	0	0	0	0	0	0	0	0	0	0	0	0	0	0	0	0	0	0	0	0	0	0	0	0	0	0	0	0	0	0	0	0	2	2	0	0	0	0	0	0	0	0	0	0	0	0	0	0	0	0	0	0	0	0	0	0	0	0	0	0	2	2	450	0	0	0	0	0	0	0	0	0	0	0	0	0	0	0	0	0	0	0	0	0	0	0	0	0	0	0	0	0	0	0	0	0	0	0	0	0	0	0	0	0	0	0	0	0	0	0	0	0	0	0	0	0	0	0	0	0	0	0	0	0	0	0	0	0	0	0	0	0	0	0	0	0	0	0	0	0	0	0	0	0	0	0	0	0		DOUGLAS C NIELSEN	7274451115	1/29/2004	2/12/2004		
2003	20030061	"BIRMINGHAM GAS PRODUCERS, LLC"	31203	425 S MAIN ST SUITE 201	ANN ARBOR	WASHTENAW	MI	48104						AL	0	0	0	0	2	0	0	0	0	0	2	1	0	0	0	0	0	0	0	0	0	1	0	0	0	0	0	0	0	0	0	0	0	0	0	0	0	0	0	0	0	0	0	0	0	0	0	0	0	0	0	0	0	0	0	0	0	0	0	0	0	2	0	2	0	0	0	0	0	0	0	0	0	0	0	0	0	0	0	0	0	0	0	0	0	0	0	0	0	2	0	2	312	0	0	0	0	0	1	1	0	0	0	0	0	0	0	0	0	0	0	0	0	0	0	0	0	0	0	0	0	0	0	0	0	0	0	0	0	0	0	0	0	0	0	0	0	0	0	0	0	0	0	0	0	0	0	0	0	0	0	0	0	0	0	0	0	0	0	0	0	1	1	0	0	0	0	0	0	0	0	0	0	0	0	0	0	0	THE STAINLESS STEEL CATHODICALLY UNPROTECTED SERVICE IS COMPLETELY ABOVE GROUND AND IS PHYSICALLY PROTECTED FROM OUTSIDE DAMAGE  9-30-04 THE BARE STEEL CATHODICALLY UNPROTECTED SERVICE IS COMPLETELY ABOVE GROUND AND IS PHYSICALLY PROTECTED FROM OUTSIDE DAMAGE.	DOUGLAS NEILSEN	7274451115	1/29/2004	2/12/2004		
2003	20030062	"WICHITA GAS PRODUCERS, LLC"	31206	425 S MAIN ST STE 201	ANN ARBOR	WASHTENAW	MI	48104						KS	0	0	0	0	11	0	0	0	0	0	11	0	0	0	0	1	0	0	0	0	0	1	0	0	0	0	0	0	0	0	0	0	0	0	0	0	0	0	0	0	0	0	0	0	0	0	0	0	0	0	0	0	0	0	0	0	0	0	0	0	0	0	11	11	0	0	0	0	0	0	0	0	0	0	0	0	0	0	0	0	0	0	0	0	0	0	0	0	0	0	11	11	0	0	0	0	0	0	0	0	0	0	0	0	0	0	0	0	0	0	0	0	0	0	0	0	0	0	0	0	0	0	0	0	0	0	0	0	0	0	0	0	0	1	1	0	0	0	0	0	0	0	0	0	0	0	0	0	0	0	0	0	0	0	0	0	0	0	0	0	0	1	1	0	0	0	0	0	0	0	0	0	0	0	0	0	0	0		DOUGLAS NIELSEN	7274451115	1/29/2004	2/12/2004		
2003	20030063	"WAKE GAS PRODUCERS, LLC"	31205	425 S MAIN ST STE 201	ANN ARBOR	WASHTENAW	MI	48104						NC	0	0	0	0	2	0	0	0	0	0	2	0	0	0	0	1	0	0	0	0	0	1	0	0	0	0	0	0	0	0	0	0	0	0	0	0	0	0	0	0	0	0	0	0	0	0	0	0	0	0	0	0	0	0	0	0	0	0	0	0	0	2	0	2	0	0	0	0	0	0	0	0	0	0	0	0	0	0	0	0	0	0	0	0	0	0	0	0	0	2	0	2	100	0	0	0	0	0	0	0	0	0	0	0	0	0	0	0	0	0	0	0	0	0	0	0	0	0	0	0	0	0	0	0	0	0	0	0	0	0	0	0	0	1	1	0	0	0	0	0	0	0	0	0	0	0	0	0	0	0	0	0	0	0	0	0	0	0	0	0	0	1	1	0	0	0	0	0	0	0	0	0	0	0	0	0	0	0		DOUGLAS NIELSEN	7274451115	1/29/2004	2/12/2004		
2003	20030064	"FAYETTEVILLE GAS PRODUCERS, LLC"	31204	425 S MAIN ST STE 201	ANN ARBOR	WASHTENAW	MI	48104						NC	0	0	0	0	2	0	0	0	0	0	2	0	0	0	0	1	0	0	0	0	0	1	0	0	0	0	0	0	0	0	0	0	0	0	0	0	0	0	0	0	0	0	0	0	0	0	0	0	0	0	0	0	0	0	0	0	0	0	0	0	0	2	0	2	0	0	0	0	0	0	0	0	0	0	0	0	0	0	0	0	0	0	0	0	0	0	0	0	0	2	0	2	100	0	0	0	0	0	0	0	0	0	0	0	0	0	0	0	0	0	0	0	0	0	0	0	0	0	0	0	0	0	0	0	0	0	0	0	0	0	0	0	0	1	1	0	0	0	0	0	0	0	0	0	0	0	0	0	0	0	0	0	0	0	0	0	0	0	0	0	0	1	1	0	0	0	0	0	0	0	0	0	0	0	0	0	0	0		DOUGLAS NIELSEN	7274451115	1/29/2004	2/12/2004		
2003	20030065	"GLENMORA GAS DEPT, TOWN OF"	6400	1000 7TH AVENUE	GLENMORA	RAPIDES	LA	71433						LA	0	0	0	0	31	0	2	0	0	0	33	0	0	0	0	428	0	0	0	0	0	428	0	2	0	0	0	0	2	0	0	0	0	0	0	0	0	0	0	0	0	0	0	0	0	0	0	0	0	0	0	0	0	0	0	0	0	0	12	19	0	0	0	31	0	0	0	0	0	0	0	0	0	0	0	0	0	0	0	0	0	0	0	0	0	0	14	19	0	0	0	33	35	0	0	0	0	0	0	0	0	0	0	0	0	0	0	0	0	0	0	0	0	0	0	0	0	0	0	0	0	0	0	0	0	0	0	0	0	427	1	0	0	0	428	0	0	0	0	0	0	0	0	0	0	0	0	0	0	0	0	0	0	0	0	0	0	427	1	0	0	0	428	0	0	0	0	0	0	0	0	2	5	0	0	0	0	1		CR LAWRENCE	3187484885	1/29/2004	2/12/2004		
2003	20030066	CITY OF WHITE PLAINS	31653	135 SOUTH BOB BRUCE DRIVE	WHITE PLAINS	HOPKINS	KY	42464						 KY	0	0	0	0	15	0	0	0	0	0	15	0	0	0	0	106	0	0	0	0	0	106	0	0	0	0	0	0	0	0	0	0	0	0	0	0	0	0	0	0	0	0	0	0	0	0	0	0	0	0	0	0	0	0	0	0	0	0	10	5	0	0	0	15	0	0	0	0	0	0	0	0	0	0	0	0	0	0	0	0	0	0	0	0	0	0	10	5	0	0	0	15	30	0	0	0	0	0	0	0	0	0	0	0	0	0	0	0	0	0	0	0	0	0	0	0	0	0	0	0	0	0	0	0	0	0	0	0	0	106	0	0	0	0	106	0	0	0	0	0	0	0	0	0	0	0	0	0	0	0	0	0	0	0	0	0	0	106	0	0	0	0	106	0	0	0	0	0	1	0	0	0	0	0	0	0	0	1		DAVID K CRICK	2706768670	1/29/2004	2/12/2004		
2003	20030067	ILLINOIS GAS CO	8030											 IL	0	0	5	148	200	0	0	0	0	0	353	0	0	175	2544	8751	0	0	0	0	0	11470	0	63	63	27	0	0	153	0	0	0	0	0	0	0	0	0	0	0	0	0	0	0	0	0	0	0	0	0	0	0	0	0	0	0	0	0	152	48	0	0	0	200	0	0	0	0	0	0	0	0	0	0	0	0	0	0	0	0	0	0	0	0	0	0	215	111	27	0	0	353	96	0	2305	409	5	0	0	2719	0	0	0	0	0	0	0	0	0	0	0	0	0	0	0	0	0	0	0	0	0	0	0	0	0	0	0	0	0	8673	72	6	0	0	8751	0	0	0	0	0	0	0	0	0	0	0	0	0	0	0	0	0	0	0	0	0	0	10978	481	11	0	0	11470	3	4	0	0	4	11	1	2	1	3	0	0	3	0	1.57		DARIN L HOUCHIN	6183958588	1/29/2004	2/12/2004		
2003	20030068	"LIVONIA, VILLAGE OF"	11606	P O BOX 307 3111 LA HWY 7	LIVONIA	POINTE COUPEE	LA	70755						 LA	0	0	0	4	6	0	0	0	0	0	10	0	0	0	192	203	0	0	0	0	0	395	0	4	0	0	0	0	4	0	0	0	0	0	0	0	0	0	0	0	0	0	0	0	0	0	0	0	0	0	0	0	0	0	0	0	0	0	6	0	0	0	0	6	0	0	0	0	0	0	0	0	0	0	0	0	0	0	0	0	0	0	0	0	0	0	10	0	0	0	0	10	15	0	192	0	0	0	0	192	0	0	0	0	0	0	0	0	0	0	0	0	0	0	0	0	0	0	0	0	0	0	0	0	0	0	0	0	0	203	0	0	0	0	203	0	0	0	0	0	0	0	0	0	0	0	0	0	0	0	0	0	0	0	0	0	0	395	0	0	0	0	395	0	0	0	0	0	2	2	0	0	0	3	19	5	0	4.64		DONNA BERGERON	2256372981	1/29/2004	2/12/2004		
2003	20030069	CASEY MUNICIPAL GAS SYSTEM	2132	"108 EAST MAIN, PO BOX 425"	CASEY	CLARK	IL	62420						IL	0	0	0	43	0	0	0	0	0	0	43	0	0	0	1606	88	0	0	0	0	0	1694	0	17	8	18	0	0	43	0	0	0	0	0	0	0	0	0	0	0	0	0	0	0	0	0	0	0	0	0	0	0	0	0	0	0	0	0	0	0	0	0	0	0	0	0	0	0	0	0	0	0	0	0	0	0	0	0	0	0	0	0	0	0	0	0	17	8	18	0	0	43	0	0	1563	43	0	0	0	1606	0	0	0	0	0	0	0	0	0	0	0	0	0	0	0	0	0	0	0	0	0	0	88	0	0	0	0	88	0	0	0	0	0	0	0	0	0	0	0	0	0	0	0	0	0	0	0	0	0	0	0	0	0	0	0	0	0	1651	43	0	0	0	1694	0	0	0	0	0	0	0	0	0	0	0	15	0	0	2		SHELBY D. BIGGS - SUPT. OF UTILITIES	2179324885	1/29/2004	2/12/2004		
2003	20030070	CITIZENS GAS UTIL DIST	2412	12519 SCOTT HIGHWAY	HELENWOOD	SCOTT	TN	37755						TN	0	0	0	51	607	0	0	0	0	0	658	0	0	0	16	9829	0	0	0	0	0	9845	0	10	12	28	1	0	51	0	0	0	0	0	0	0	0	0	0	0	0	0	0	0	0	0	0	0	0	0	0	0	0	0	0	0	0	0	409	157	41	0	0	607	0	0	0	0	0	0	0	0	0	0	0	0	0	0	0	0	0	0	0	0	0	0	419	169	69	1	0	658	300	0	16	0	0	0	0	16	0	0	0	0	0	0	0	0	0	0	0	0	0	0	0	0	0	0	0	0	0	0	0	0	0	0	0	0	0	9818	9	1	1	0	9829	0	0	0	0	0	0	0	0	0	0	0	0	0	0	0	0	0	0	0	0	0	0	9834	9	1	1	0	9845	0	0	0	0	26	78	0	7	0	3	0	49	0	0	1	"** 1% REPRESENTS AN UNAUDITED FIGURE FOR GAS LOSS.  WE ARE ON A CYCLE BILLING SYSTEM, SO THESE FIGURES ARE APPROXIMATE.  AUDITED FIGURES WILL BE AVAILABLE AFTER MAY 31, 2004."	FRED BISHOP	4235694457	1/29/2004	2/12/2004		
2003	20030071	HUNTSVILLE GAS SYSTEM	7685	"PO BOX 2048, 112 SPRAGINS"	HUNTSVILLE	MADISON	AL	-583						AL	0	0	0	786	167	70	0	0	0	0	1023	0	0	0	25454	16241	830	0	0	0	0	42525	0	413	140	108	14	111	786	0	0	0	0	0	0	0	0	0	0	0	0	0	0	0	0	55	13	2	0	70	0	0	0	0	0	0	0	0	102	34	31	0	0	167	0	0	0	0	0	0	0	0	0	0	0	0	0	0	0	0	0	0	0	0	0	0	515	229	152	16	111	1023	80	0	24911	508	29	6	0	25454	0	0	0	0	0	0	0	0	0	0	0	0	0	0	0	830	0	0	0	0	830	0	0	0	0	0	0	0	0	15968	260	12	1	0	16241	0	0	0	0	0	0	0	0	0	0	0	0	0	0	0	0	0	0	0	0	0	0	41709	768	41	7	0	42525	32	16	1	3	41	93	5	9	0	0	7	2	0	0	0		JOEL PERRY - ENGINEER	2565351214	1/29/2004	2/12/2004		
2003	20030072	INDIANA NATURAL GAS CORP	8080	P.O. BOX 450	PAOLI	ORANGE	IN	47454						IN	0	0	0	170	107	0	0	0	0	0	277	0	0	0	4810	3645	0	0	0	0	0	8455	0	136	31	3	0	0	170	0	0	0	0	0	0	0	0	0	0	0	0	0	0	0	0	0	0	0	0	0	0	0	0	0	0	0	0	0	81	25	1	0	0	107	0	0	0	0	0	0	0	0	0	0	0	0	0	0	0	0	0	0	0	0	0	0	217	56	4	0	0	277	120	0	4806	3	1	0	0	4810	0	0	0	0	0	0	0	0	0	0	0	0	0	0	0	0	0	0	0	0	0	0	0	0	0	0	0	0	0	3572	73	0	0	0	3645	0	0	0	0	0	0	0	0	0	0	0	0	0	0	0	0	0	0	0	0	0	0	8378	76	1	0	0	8455	0	0	0	0	0	10	0	0	0	0	0	0	0	0	1.3		VIRGINIA BURTON	8127232151	1/29/2004	2/12/2004		
2003	20030073	"BLACKSBURG NATURAL GAS SYSTEM, TOWN OF"	1496	200 OSEE ST	BLACKSBURG	CHEROKEE	SC	29702	105 S SHELBY ST	BLACKSBURG	CHEROKEE	SC	29702	 SC	0	0	0	16	24	0	0	0	0	0	40	0	0	0	57	675	0	0	0	0	0	732	0	12	4	0	0	0	16	0	0	0	0	0	0	0	0	0	0	0	0	0	0	0	0	0	0	0	0	0	0	13	3	8	0	0	24	0	0	0	0	0	0	0	0	0	0	0	0	0	0	0	0	0	0	0	0	0	0	0	0	0	0	0	0	0	25	7	8	0	0	40	50	0	50	7	0	0	0	57	0	0	0	0	0	0	0	0	0	0	0	0	0	0	0	0	0	0	0	0	0	0	0	0	0	0	0	0	0	658	14	3	0	0	675	0	0	0	0	0	0	0	0	0	0	0	0	0	0	0	0	0	0	0	0	0	0	708	21	3	0	0	732	0	0	1	0	1	1	0	0	1	1	0	4	0	0	2	"ENVIRONMENTAL MONITORING CORP NC P.O. BOX 2282 SHELBY, NC 704-482-7620 THIS GROUP DID OUR LEAK AND CP SURVEY IN JUNE 2003"	DANNY MCDANIEL	8648392332	1/29/2004	2/12/2004		
2003	20030074	"JENA GAS SYSTEM, TOWN OF"	9210	1875 N 1ST ST	JENA	LA SALLE	LA	71342						LA	0	0	0	10	49	0	0	0	0	0	59	0	0	0	295	1631	0	0	0	0	0	1926	0	4	6	0	0	0	10	0	0	0	0	0	0	0	0	0	0	0	0	0	0	0	0	0	0	0	0	0	0	9	3	0	0	0	12	0	30	7	0	0	0	37	0	0	0	0	0	0	0	0	0	0	0	0	0	0	0	0	0	0	0	0	0	0	43	16	0	0	0	59	25	0	294	0	1	0	0	295	0	0	0	0	0	0	0	0	0	0	0	0	0	0	0	0	0	0	0	0	0	0	68	0	0	0	0	68	0	1551	12	0	0	0	1563	0	0	0	0	0	0	0	0	0	0	0	0	0	0	0	0	0	0	0	0	0	0	1913	12	1	0	0	1926	0	1	0	0	0	3	0	0	0	0	0	27	0	0	2		SHERMAN L. COCKERHAM - UTILITY SUPT	3189922148	1/29/2004	2/12/2004		
2003	20030075	SWEETWATER BOARD OF PUBLIC UTILITES	18768	101 OAK STREET	SWEETWATER	MONROE	TN	37874						 TN	0	0	0	46	13	0	0	0	0	0	59	0	0	0	356	880	0	0	752	0	0	1988	0	36	7	3	0	0	46	0	0	0	0	0	0	0	0	0	0	0	0	0	0	0	0	0	0	0	0	0	0	0	0	0	0	0	0	0	13	0	0	0	0	13	0	0	0	0	0	0	0	0	0	0	0	0	0	0	0	0	0	0	0	0	0	0	49	7	3	0	0	59	100	0	340	16	0	0	0	356	0	0	0	0	0	0	0	0	754	0	0	0	0	754	0	0	0	0	0	0	0	0	0	0	0	0	0	0	0	836	42	0	0	0	878	0	0	0	0	0	0	0	0	0	0	0	0	0	0	0	0	0	0	0	0	0	0	1930	58	0	0	0	1988	2	0	0	0	0	3	0	7	0	3	0	0	0	0	0.3	"LEAK SURVEY FOR 2003 INCLUDED DOWNTOWN, CHURCHES AND SCHOOLS.  2004 WILL BEGIN QUARTERLY LEAK SURVEY OF 25% OF ENTIRE SYSTEM."	ROBERT MORGAN	4233376890	1/29/2004	2/12/2004		
2003	20030076	"GRAYSON UTILITIES COMMISSION, CITY OF"	6620	671 SOUTH STATE HWY 7	GRAYSON	CARTER	KY	41143						 KY	0	0	0	18	42	0	0	0	0	0	60	0	0	0	207	957	0	0	0	0	0	1164	0	1	10	7	0	0	18	0	0	0	0	0	0	0	0	0	0	0	0	0	0	0	0	0	0	0	0	0	0	0	0	0	0	0	0	0	28	12	2	0	0	42	0	0	0	0	0	0	0	0	0	0	0	0	0	0	0	0	0	0	0	0	0	0	29	22	9	0	0	60	110	0	207	0	0	0	0	207	0	0	0	0	0	0	0	0	0	0	0	0	0	0	0	0	0	0	0	0	0	0	0	0	0	0	0	0	0	0	902	53	2	0	957	0	0	0	0	0	0	0	0	0	0	0	0	0	0	0	0	0	0	0	0	0	0	207	902	53	2	0	1164	0	1	0	0	1	1	0	0	0	0	0	0	0	0	1.5		GERALD W HANEY	6064747569	1/29/2004	2/12/2004		
2003	20030077	"BERWICK, TOWN OF"	1376	3225 THIRD STREET	BERWICK	ST MARY	LA	70342	P O BOX 486	BERWICK	ST MARY	LA	70342	 LA	0	0	4	6	14	0	0	0	0	0	24	0	0	50	210	580	0	0	0	0	0	840	0	3	7	0	0	0	10	0	0	0	0	0	0		0	0	0	0	0	0		0	0	0	0	0	0		0	0	0	0	0	0		0	5	2	0	0	0	7	0	6	1	0	0	0	7	0	0	0	0	0	0		0	0	0	0	0	0		0	14	10	0	0	0	24	30	0	13	222	0	0	0	235	0	0	0	0	0	0		0	0	0	0	0	0		0	0	0	0	0	0		0	82	31	0	0	0	113	0	492	0	0	0	0	492	0	0	0	0	0	0		0	0	0	0	0	0		0	0	0	0	0	0		0	587	253	0	0	0	840	3	42	0	0	0	0	0	0	0	0	0	0	5	0	5	"ALL ABOVE LEAKS WERE DETECTED BY THE TOWN'S LEAK SURVEY CONSULTANT AND ARE BEING REPAIRED AT THIS TIME.  BACKUP SOURCE FROM CITY OF MORGAN GAS SYSTEM LOWERED THEIR MAOP BELOW OUR NORMAL OPERATING PRESSURE, ALLOWING THE PURCHASED GAS FROM LOUISIANA INTERSTATE GAS (OUR PRIMARY SOURCE) TO ESCAPE INTO THEIR SYSTEM (MORGAN CITY).  UPON THROUGH INVESTIGATION OF OUR LOSSES, WE FOUND THAT CITY OF MORGAN CITY, BY NOT NOTIFYING OUR TOWN OF THEIR LOWERED MAOP, TOOK ON APPROXIMATELY, IN A NINE MONTH PERIOD, 6,163,400 CUBIC FEET OF GAS.  WE NO LONGER SHARE THE MORGAN CITY GAS SYSTEM AS BACK UP.  DETECTED LEAKS DURING THE YEAR MADE UP APPROXIMATELY 476,100 CUBIC FEET.  APPROXIMATELY 300,000 CUBIC FEET WAS USED IN UNMETERED TOWN OWNED DRAINAGE PUMP STATIONS AND BUILDING CENTERS."	ALLEN J BENOIT	9853848858	1/29/2004	2/12/2004		
2003	20030078	NEW YORK MILLS MUNICIPAL GAS SYSTEM	13410	102 N BOARDMAN	NEW YORK	OTTERTAIR	MN	-661						 MN	0	0	0	7	6	0	0	0	0	0	13	0	0	0	349	196	0	0	0	0	0	545	0	6	1	0	0	0	7	0	0	0	0	0	0		0	0	0	0	0	0		0	0	0	0	0	0		0	0	0	0	0	0		0	3	3	0	0	0	6	0	0	0	0	0	0		0	0	0	0	0	0		0	0	0	0	0	0		0	9	4	0	0	0	13	93	0	343	6	0	0	0	349	0	0	0	0	0	0		0	0	0	0	0	0		0	0	0	0	0	0		0	0	0	0	0	0		0	139	7	0	0	0	146	0	0	0	0	0	0		0	0	0	0	0	0		0	0	0	0	0	0		0	532	13	0	0	0	545	0	0	0	0	2	0	0	0	0	0	0	0	0	0	0		ROGER D SALO	2103852213	1/29/2004	2/12/2004		
2003	20030079	"WILLISTON GAS DEPT, CITY OF"	22651	50 N W MAIN STREET	WILLISTON	LEVY	FL	32696						 FL	0	0	0	12	2	0	0	0	0	0	14	0	0	0	594	179	0	0	0	0	0	773	0	8	2	2	0	0	12	0	0	0	0	0	0	0	0	0	0	0	0	0	0	0	0	0	0	0	0	0	0	0	0	0	0	0	0	0	0	2	0	0	0	2	0	0	0	0	0	0	0	0	0	0	0	0	0	0	0	0	0	0	0	0	0	0	8	4	2	0	0	14	75	0	0	5	0	0	0	5	0	0	0	0	0	0	0	0	0	0	0	0	0	0	0	0	0	0	0	0	0	0	0	0	0	0	0	0	0	179	0	0	0	0	179	0	0	0	0	0	0	0	0	589	0	0	0	0	589	0	0	0	0	0	0	0	0	768	5	0	0	0	773	0	0	0	0	0	1	0	0	0	0	0	11	0	0	0		JUANA RAE BUTLER	3525283060	1/29/2004	2/12/2004		
2003	20030080	"SABINAL, CITY OF"	18004	PO BOX 838	SABINAL	UVALDE	TX	78881	501 NORTH CENTER STREET	SABINAL		TX	-8888	TX	0	0	0	25	0	0	0	0	0	0	25	0	0	0	531	0	0	0	0	0	0	531	0	23	2	0	0	0	25	0	0	0	0	0	0	0	0	0	0	0	0	0	0	0	0	0	0	0	0	0	0	0	0	0	0	0	0	0	0	0	0	0	0	0	0	0	0	0	0	0	0	0	0	0	0	0	0	0	0	0	0	0	0	0	0	0	23	2	0	0	0	25	0	0	531	0	0	0	0	531	0	0	0	0	0	0	0	0	0	0	0	0	0	0	0	0	0	0	0	0	0	0	0	0	0	0	0	0	0	0	0	0	0	0	0	0	0	0	0	0	0	0	0	0	0	0	0	0	0	0	0	0	0	0	0	0	0	531	0	0	0	0	531	0	0	0	0	0	0	0	0	0	0	0	4	0	0	6.16		BETTY JO HARRIS - CITY SECRETARY	8309882218	1/29/2004	2/12/2004		
2003	20030081	CITIES OF CLARISSA AND EAGLE BEND	31071	108 MAIN STREET WEST	EAGLE BEND	TODD	MN	56446						MN	0	0	0	12	26	0	0	0	0	0	38	0	0	0	0	500	0	0	0	0	0	500	0	0	12	0	0	0	12	0	0	0	0	0	0	0	0	0	0	0	0	0	0	0	0	0	0	0	0	0	0	0	0	0	0	0	0	0	14	12	0	0	0	26	0	0	0	0	0	0	0	0	0	0	0	0	0	0	0	0	0	0	0	0	0	0	14	24	0	0	0	38	105	0	0	0	0	0	0	0	0	0	0	0	0	0	0	0	0	0	0	0	0	0	0	0	0	0	0	0	0	0	0	0	0	0	0	0	0	492	6	2	0	0	500	0	0	0	0	0	0	0	0	0	0	0	0	0	0	0	0	0	0	0	0	0	0	492	6	2	0	0	500	0	0	0	0	0	1	0	0	0	0	0	0	0	0	0		KEVIN HESS	2187385982	1/29/2004	2/12/2004		
2003	20030082	"CENTREVILLE MUNICIPAL GAS, TOWN OF"	2232	P.O. BOX 578	CENTREVILLE	WILKINSON	MS	39631						MS	0	0	0	11	20	0	0	0	0	0	31	0	0	0	52	400	0	0	0	0	0	452	0	0	11	0	0	0	11	0	0	0	0	0	0	0	0	0	0	0	0	0	0	0	0	0	0	0	0	0	0	0	0	0	0	0	0	0	16	4	0	0	0	20	0	0	0	0	0	0	0	0	0	0	0	0	0	0	0	0	0	0	0	0	0	0	16	15	0	0	0	31	0	0	0	0	0	0	0	0	0	0	0	0	0	0	0	0	0	0	0	0	0	0	0	0	0	0	0	0	0	0	0	0	0	0	0	0	0	443	9	0	0	0	452	0	0	0	0	0	0	0	0	0	0	0	0	0	0	0	0	0	0	0	0	0	0	443	9	0	0	0	452	0	7	0	0	0	0	0	0	0	0	0	0	7	0	0		"DAVID OWENS, JR."	6016455218	1/29/2004	2/12/2004		
2003	20030083	"CARBON HILL GAS BOARD, CITY OF"	2088	"P.O. BOX 459, 170 NW 2ND "	CARBON HILL	WALKER	AL	35549						AL	0	0	0	39	20	0	0	0	0	0	59	0	0	0	594	301	0	0	0	0	0	895	0	5	39	0	0	0	44	0	0	0	0	0	0	0	0	0	0	0	0	0	0	0	0	0	0	0	0	0	0	0	0	0	0	0	0	0	15	0	0	0	0	15	0	0	0	0	0	0	0	0	0	0	0	0	0	0	0	0	0	0	0	0	0	0	20	39	0	0	0	59	0	0	533	61	0	0	0	594	0	0	0	0	0	0	0	0	0	0	0	0	0	0	0	0	0	0	0	0	0	0	0	0	0	0	0	0	0	301	0	0	0	0	301	0	0	0	0	0	0	0	0	0	0	0	0	0	0	0	0	0	0	0	0	0	0	834	61	0	0	0	895	0	0	0	0	0	0	0	0	0	0	0	0	0	0	1		"JACKIE STOUGH, SUPERINTENDENT"	2059249313	1/29/2004	2/12/2004		
2003	20030084	COLVIN GAS CO	2633	5608 HWY 822	DUBACH	LINCOLN	LA	71235						LA	0	0	0	0	1	0	0	0	0	0	1	0	0	0	0	12	0	0	0	0	0	12	0	0	0	0	0	0	0	0	0	0	0	0	0	0	0	0	0	0	0	0	0	0	0	0	0	0	0	0	0	0	0	0	0	0	0	0	1	0	0	0	0	1	0	0	0	0	0	0	0	0	0	0	0	0	0	0	0	0	0	0	0	0	0	0	1	0	0	0	0	1	0	0	0	0	0	0	0	0	0	0	0	0	0	0	0	0	0	0	0	0	0	0	0	0	0	0	0	0	0	0	0	0	0	0	0	0	0	12	0	0	0	0	12	0	0	0	0	0	0	0	0	0	0	0	0	0	0	0	0	0	0	0	0	0	0	12	0	0	0	0	12	0	0	0	0	0	0	0	0	0	0	0	0	0	0	0		LAMAR COLVIN	3187773696	1/29/2004	2/12/2004		
2003	20030085	"FAIRFAX, CITY OF"	31349	112 1ST STREET SE	FAIRFAX	RENVILLE	MN	-5337						MN	0	0	0	18	14	0	0	0	0	0	32	0	0	0	0	547	0	0	0	0	0	547	0	0	18	0	0	0	18	0	0	0	0	0	0	0	0	0	0	0	0	0	0	0	0	0	0	0	0	0	0	0	0	0	0	0	0	0	13	1	0	0	0	14	0	0	0	0	0	0	0	0	0	0	0	0	0	0	0	0	0	0	0	0	0	0	13	19	0	0	0	32	100	0	0	0	0	0	0	0	0	0	0	0	0	0	0	0	0	0	0	0	0	0	0	0	0	0	0	0	0	0	0	0	0	0	0	0	0	542	5	0	0	0	547	0	0	0	0	0	0	0	0	0	0	0	0	0	0	0	0	0	0	0	0	0	0	542	5	0	0	0	547	0	0	0	0	0	0	0	0	0	5	0	0	0	0	0		LARRY LINSMEIER	5074267255	1/29/2004	2/12/2004		
2003	20030086	"COVINGTON GAS DEPT, CITY OF"	2853	200 WEST WASHINGTON	COVINGTON	TIPTON	TN	38019						TN	0	0	2	48	30	0	0	0	0	0	80	0	0	0	1635	1626	0	0	0	0	0	3261	0	25	23	2	0	0	50	0	0	0	0	0	0	0	0	0	0	0	0	0	0	0	0	0	0	0	0	0	0	0	0	0	0	0	0	0	28	2	0	0	0	30	0	0	0	0	0	0	0	0	0	0	0	0	0	0	0	0	0	0	0	0	0	0	53	25	2	0	0	80	0	0	1395	202	37	1	0	1635	0	0	0	0	0	0	0	0	0	0	0	0	0	0	0	0	0	0	0	0	0	0	0	0	0	0	0	0	0	1614	8	4	0	0	1626	0	0	0	0	0	0	0	0	0	0	0	0	0	0	0	0	0	0	0	0	0	0	3009	210	41	1	0	3261	0	0	0	0	0	0	0	0	0	0	7	6	0	0	0.039		DAVID GRAY	9014760583	1/30/2004	2/12/2004		
2003	20030087	"COLUMBIA, TOWN OF"	2622	"PO BOX 10,302 PEARL ST"	COLUMBIA	CALDWELL 	LA	71418						LA	0	0	0	0	15	0	0	0	0	0	15	0	0	0	0	352	0	0	0	0	0	352	0	0	0	0	0	0	0	0	0	0	0	0	0	0	0	0	0	0	0	0	0	0	0	0	0	0	0	0	0	0	0	0	0	0	0	0	6	9	0	0	0	15	0	0	0	0	0	0	0	0	0	0	0	0	0	0	0	0	0	0	0	0	0	0	6	9	0	0	0	15	40	0	0	0	0	0	0	0	0	0	0	0	0	0	0	0	0	0	0	0	0	0	0	0	0	0	0	0	0	0	0	0	0	0	0	0	0	348	4	0	0	0	352	0	0	0	0	0	0	0	0	0	0	0	0	0	0	0	0	0	0	0	0	0	0	348	4	0	0	0	352	0	0	0	0	0	0	0	0	0	0	0	0	6	0	10		PEARL ADAMS	3186496174	1/29/2004	2/12/2004		
2003	20030088	"ST JOSEPH, CITY OF"	30030	PO BOX 37 409 N MAIN ST P	ST JOSEPH	LAWRENCE	TN	38481						TN	0	0	0	0	18	0	0	0	0	0	18	0	0	0	0	384	0	0	0	0	0	384	0	0	0	0	0	0	0	0	0	0	0	0	0	0	0	0	0	0	0	0	0	0	0	0	0	0	0	0	0	9	9	0	0	0	18	0	0	0	0	0	0	0	0	0	0	0	0	0	0	0	0	0	0	0	0	0	0	0	0	0	0	0	0	0	9	9	0	0	0	18	130	0	0	0	0	0	0	0	0	0	0	0	0	0	0	0	0	0	0	0	0	0	0	0	0	0	0	0	0	0	0	0	0	0	0	0	0	382	2	0	0	0	384	0	0	0	0	0	0	0	0	0	0	0	0	0	0	0	0	0	0	0	0	0	0	382	2	0	0	0	384	0	0	0	0	0	0	0	0	0	0	0	0	0	0	0		WAYNE HOOD	9318454141	1/29/2004	2/12/2004		
2003	20030089	CONSUMERS GAS CO	2728	216 INDUSTRIAL AVE	CARMI	WHITE	IL	62821	1410 N CULLEN AVE	EVANSVILLE	VANDERBURGH	IN	-775	IL	0	0	6	110	96	0	0	0	0	0	212	0	0	0	1048	5374	0	0	0	0	0	6422	0	35	61	20	0	0	116	0	0	0	0	0	0	0	0	0	0	0	0	0	0	0	0	0	0	0	0	0	0	0	0	0	0	0	0	0	73	23	0	0	0	96	0	0	0	0	0	0	0	0	0	0	0	0	0	0	0	0	0	0	0	0	0	0	108	84	20	0	0	212	0	0	1036	12	0	0	0	1048	0	0	0	0	0	0	0	0	0	0	0	0	0	0	0	0	0	0	0	0	0	0	0	0	0	0	0	0	0	5305	69	0	0	0	5374	0	0	0	0	0	0	0	0	0	0	0	0	0	0	0	0	0	0	0	0	0	0	6341	81	0	0	0	6422	0	0	0	14	2	34	2	0	0	0	0	0	0	0	1.8		KEVIN BRATCHER	6183824158	1/29/2004	2/12/2004		
2003	20030090	"EQUALITY, VILLAGE OF"	4507	100 NORTH CALHOUN STREET	EQUALITY	GALLATIN	IL	62934						IL	0	0	0	0	10	0	0	0	0	0	10	0	0	0	0	307	0	0	0	0	0	307	0	0	0	0	0	0	0	0	0	0	0	0	0	0	0	0	0	0	0	0	0	0	0	0	0	0	0	0	0	0	0	0	0	0	0	0	7	3	0	0	0	10	0	0	0	0	0	0	0	0	0	0	0	0	0	0	0	0	0	0	0	0	0	0	7	3	0	0	0	10	95	0	0	0	0	0	0	0	0	0	0	0	0	0	0	0	0	0	0	0	0	0	0	0	0	0	0	0	0	0	0	0	0	0	0	0	0	306	1	0	0	0	307	0	0	0	0	0	0	0	0	0	0	0	0	0	0	0	0	0	0	0	0	0	0	306	1	0	0	0	307	0	0	0	0	0	1	0	0	0	0	0	0	0	0	3		DALE BRATCHER	6182725681	1/30/2004	2/12/2004		
2003	20030091	"ROUND LAKE, CITY OF"	30566	98 MAIN ST PO BOX 72	ROUND LAKE	NOBLES	MN	56167						MN	0	0	0	0	9	0	0	0	0	0	9	0	0	0	2	242	0	0	0	0	0	244	0	0	0	0	0	0	0	0	0	0	0	0	0	0	0	0	0	0	0	0	0	0	0	0	0	0	0	0	0	0	0	0	0	0	0	0	1	8	0	0	0	9	0	0	0	0	0	0	0	0	0	0	0	0	0	0	0	0	0	0	0	0	0	0	1	8	0	0	0	9	98	0	0	2	0	0	0	2	0	0	0	0	0	0	0	0	0	0	0	0	0	0	0	0	0	0	0	0	0	0	0	0	0	0	0	0	0	242	0	0	0	0	242	0	0	0	0	0	0	0	0	0	0	0	0	0	0	0	0	0	0	0	0	0	0	242	2	0	0	0	244	0	0	0	0	0	0	0	0	0	0	0	0	0	0	0		TODD DOEDEN	5079458127	1/30/2004	2/12/2004		
2003	20030092	FAIRBANKS NATURAL GAS/DIV OF NORTHERN ECLIPSE	99128	3408 INTERNATIONAL WAY	FAIRBANKS		AK							 AK	0	0	0	0	43	0	0	0	0	0	43	0	0	0	0	609	0	0	0	0	0	609	0	0	0	0	0	0	0	0	0	0	0	0	0	0	0	0	0	0	0	0	0	0	0	0	0	0	0	0	0	0	0	0	0	0	0	0	17	6	20	0	0	43	0	0	0	0	0	0	0	0	0	0	0	0	0	0	0	0	0	0	0	0	0	0	17	6	20	0	0	43	98	0	0	0	0	0	0	0	0	0	0	0	0	0	0	0	0	0	0	0	0	0	0	0	0	0	0	0	0	0	0	0	0	0	0	0	0	575	33	1	0	0	609	0	0	0	0	0	0	0	0	0	0	0	0	0	0	0	0	0	0	0	0	0	0	575	33	1	0	0	609	0	0	0	0	3	5	0	0	0	0	0	0	0	0	0		DUNCAN JAKES	9074527111	1/22/2004	2/12/2004		
2003	20030093	RIPLEY PUBLIC WORKS AUTH	17475	203 S. MORTON P.O. BOX 68	RIPLEY	PAYNE	OK	74062						OK	0	0	2	0	4	0	0	0	0	0	6	0	0	11	0	174	0	0	0	0	0	185	0	0	0	2	0	0	2	0	0	0	0	0	0	0	0	0	0	0	0	0	0	0	0	0	0	0	0	0	0	0	0	0	0	0	0	0	2	2	0	0	0	4	0	0	0	0	0	0	0	0	0	0	0	0	0	0	0	0	0	0	0	0	0	0	2	2	2	0	0	6	10	0	0	11	0	0	0	11	0	0	0	0	0	0	0	0	0	0	0	0	0	0	0	0	0	0	0	0	0	0	0	0	0	0	0	0	0	0	174	0	0	0	174	0	0	0	0	0	0	0	0	0	0	0	0	0	0	0	0	0	0	0	0	0	0	0	185	0	0	0	185	0	0	0	0	0	0	0	0	0	0	0	0	0	0	0.03		DELOIS CARRIER	9183724287	1/23/2004	2/12/2004		
2003	20030095	DRUMRIGHT GAS AUTH	3550	122 WEST BROADWAY	DRUMRIGHT	CREEK	OK	-410						 OK	6	0	0	0	58	0	0	0	0	0	64	0	0	0	0	1362	0	0	0	0	0	1362	0	2	0	4	0	0	6	0	0	0	0	0	0	0	0	0	0	0	0	0	0	0	0	0	0	0	0	0	0	0	0	0	0	0	0	0	40	9	9	0	0	58	0	0	0	0	0	0	0	0	0	0	0	0	0	0	0	0	0	0	0	0	0	0	42	9	13	0	0	64	10	0	0	0	0	0	0	0	0	0	0	0	0	0	0	0	0	0	0	0	0	0	0	0	0	0	0	0	0	0	0	0	0	0	0	0	0	0	0	0	0	0	0	0	0	1362	0	0	0	1362	0	0	0	0	0	0	0	0	0	0	0	0	0	0	0	0	1362	0	0	0	1362	0	0	0	0	0	0	1	0	0	10	0	0	0	0	2	DRUMRIGHT GAS AUTHORITY HAS DONE A COMPLETE LEAK SURVEY OF DOWN TOWN AND BUSINESSES.  ALSO NORTH WEST QUARTER OF DRUMRIGHT WAS SURVIVED.	J C LEONARD	9183532610	1/26/2004	2/12/2004		
2003	20030096	RAPIDES PARISH GAS UTILITY DIST #2	25046	198 HATHORN LN	ALEXANDRIA	RAPIDES	LA	71302						LA	0	0	0	22	9	0	0	0	0	0	31	0	0	0	300	100	0	0	0	0	0	400	0	15	7	0	0	0	22	0	0	0	0	0	0	0	0	0	0	0	0	0	0	0	0	0	0	0	0	0	0	0	0	0	0	0	0	0	3	6	0	0	0	9	0	0	0	0	0	0	0	0	0	0	0	0	0	0	0	0	0	0	0	0	0	0	18	13	0	0	0	31	16	0	297	3	0	0	0	300	0	0	0	0	0	0	0	0	0	0	0	0	0	0	0	0	0	0	0	0	0	0	0	0	0	0	0	0	0	97	3	0	0	0	100	0	0	0	0	0	0	0	0	0	0	0	0	0	0	0	0	0	0	0	0	0	0	394	6	0	0	0	400	0	0	0	2	0	0	1	0	1	16	0	0	32	0	3.57		JEFFREY J TARVER	3184489281	1/26/2004	2/12/2004		
2003	20030097	"BURLINGTON GAS SYSTEM , CITY OF"	1920	P.O. BOX 216 603 MAIN ST	BURLINGTON	ALFALFA	OK	73722						OK	0	0	0	5	1	0	0	0	0	0	6	0	0	0	100	14	0	0	0	0	0	114	0	3	2	0	0	0	5	0	0	0	0	0	0	0	0	0	0	0	0	0	0	0	0	0	0	0	0	0	0	0	0	0	0	0	0	0	1	0	0	0	0	1	0	0	0	0	0	0	0	0	0	0	0	0	0	0	0	0	0	0	0	0	0	0	4	2	0	0	0	6	15	0	99	1	0	0	0	100	0	0	0	0	0	0	0	0	0	0	0	0	0	0	0	0	0	0	0	0	0	0	0	0	0	0	0	0	0	14	0	0	0	0	14	0	0	0	0	0	0	0	0	0	0	0	0	0	0	0	0	0	0	0	0	0	0	113	1	0	0	0	114	0	0	0	0	0	0	0	1	0	0	0	0	0	0	12		MARCI HYDE  - CITY CLERK/TREASURE	5804312550	1/23/2004	2/12/2004		
2003	20030098	CARRIZO SPRINGS GAS DEPT	2112	P.O. BOX 329/308 WEST PEN	CARRIZO SPRINGS	DIMMIT	TX	78834						TX	0	0	0	6	0	23	0	0	0	0	29	0	0	0	78	0	2044	0	0	0	0	2122	0	4	1	0	0	0	5	0	0	0	0	0	0	0	0	0	0	0	0	0	0	0	0	0	0	0	0	0	0	0	0	0	0	0	0	0	21	3	0	0	0	24	0	0	0	0	0	0	0	0	0	0	0	0	0	0	0	0	0	0	0	0	0	0	25	4	0	0	0	29	40	0	78	0	0	0	0	78	0	0	0	0	0	0	0	0	0	0	0	0	0	0	0	0	0	0	0	0	0	0	0	0	0	0	0	0	0	2035	9	0	0	0	2044	0	0	0	0	0	0	0	0	0	0	0	0	0	0	0	0	0	0	0	0	0	0	2113	9	0	0	0	2122	0	0	0	0	0	1	0	8	0	9	0	0	0	0	0		MARTIN V. PICHARDO - GAS SUPERINTENDENT	8308762476	1/28/2004	2/12/2004		
2003	20030099	NORGASCO INC	13639	4341 B STREET SUITE 306	ANCHORAGE		AK	-9512						 AK	8	0	0	0	2	0	0	0	0	0	10	37	0	0	0	66	0	0	0	0	0	103	0	0	1	7	0	0	8	0	0	0	0	0	0		0	0	0	0	0	0		0	0	0	0	0	0		0	0	0	0	0	0		0	0	0	2	0	0	2	0	0	0	0	0	0		0	0	0	0	0	0		0	0	0	0	0	0	0	0	0	1	9	0	0	10	0	0	0	19	17	0	0	36	0	0	0	0	0	0		0	0	0	0	0	0		0	0	0	0	0	0		0	0	0	0	0	0		0	29	35	3	0	0	67	0	0	0	0	0	0		0	0	0	0	0	0		0	0	0	0	0	0		0	29	54	20	0	0	103	0	0	0	0	0	0	0	0	1	0	0	0	0	0	0		LEROY H FRANK	9075625520	1/28/2004	2/12/2004		
2003	20030100	JEFFERSON - COCKE CO UTIL DIST	9200	122 HIGHWAY 25E	NEWPORT	COCKE	TN	37821					37821	TN	0	0	0	216	145	0	0	0	0	0	361	0	0	0	3690	3923	0	0	0	0	0	7613	0	132	39	45	0	0	216	0	0	0	0	0	0	0	0	0	0	0	0	0	0	0	0	0	0	0	0	0	0	0	0	0	0	0	0	0	104	41	0	0	0	145	0	0	0	0	0	0	0	0	0	0	0	0	0	0	0	0	0	0	0	0	0	0	236	80	45	0	0	361	130	0	3508	175	4	3	0	3690	0	0	0	0	0	0	0	0	0	0	0	0	0	0	0	0	0	0	0	0	0	0	0	0	0	0	0	0	0	3871	52	0	0	0	3923	0	0	0	0	0	0	0	0	0	0	0	0	0	0	0	0	0	0	0	0	0	0	7379	227	4	3	0	7613	0	0	2	2	5	15	0	0	0	0	1	97	1	0	0		RUSSELL BLAZER	4236233069	1/28/2004	2/12/2004		
2003	20030101	"ENGLEWOOD GAS DEPT, TOWN OF"	4480	111 NIOTA AVE PO BOX 150	ENGLEWOOD	MCMINN	TN	37329						TN	0	0	0	9	2	0	0	0	0	0	11	0	0	0	242	220	0	0	0	0	0	462	0	0	9	0	0	0	9	0	0	0	0	0	0	0	0	0	0	0	0	0	0	0	0	0	0	0	0	0	0	0	0	0	0	0	0	0	2	0	0	0	0	2	0	0	0	0	0	0	0	0	0	0	0	0	0	0	0	0	0	0	0	0	0	0	2	9	0	0	0	11	0	0	242	0	0	0	0	242	0	0	0	0	0	0	0	0	0	0	0	0	0	0	0	0	0	0	0	0	0	0	0	0	0	0	0	0	0	220	0	0	0	0	220	0	0	0	0	0	0	0	0	0	0	0	0	0	0	0	0	0	0	0	0	0	0	462	0	0	0	0	462	0	3	0	0	0	0	0	0	0	0	0	0	1	0	0.2473		DEBORAH RAPER	4238877224	1/27/2004	2/12/2004		
2003	20030102	SWICKARD GAS CO	18369	209 STATE ST	BETTSVILLE	SENECA	OH	44815						OH	0	0	12	1	4	0	0	0	0	0	17	15	0	272	11	120	0	0	0	0	0	418	0	7	6	0	0	0	13	0	0	0	0	0	0	0	0	0	0	0	0	0	0	0	0	0	0	0	0	0	0	0	0	0	0	0	0	0	4	0	0	0	0	4	0	0	0	0	0	0	0	0	0	0	0	0	0	0	0	0	0	0	0	0	0	0	11	6	0	0	0	17	75	0	259	38	1	0	0	298	0	0	0	0	0	0	0	0	0	0	0	0	0	0	0	0	0	0	0	0	0	0	0	0	0	0	0	0	0	85	35	0	0	0	120	0	0	0	0	0	0	0	0	0	0	0	0	0	0	0	0	0	0	0	0	0	0	344	73	1	0	0	418	5	0	0	0	0	1	0	0	0	0	2	2	0	0	0		CHARLES D. WEBER - MANAGER	4199865171	1/28/2004	2/12/2004		
2003	20030103	"VINA GAS SYSTEM, TOWN OF"	21300	P O BOX 6 7111 HWY 19	VINA	FRANKLIN	AL	35593						AL	0	0	0	6	39	0	0	0	0	0	45	0	0	0	101	339	0	0	0	0	0	440	0	6	0	0	0	0	6	0	0	0	0	0	0	0	0	0	0	0	0	0	0	0	0	0	0	0	0	0	0	0	0	0	0	0	0	0	39	0	0	0	0	39	0	0	0	0	0	0	0	0	0	0	0	0	0	0	0	0	0	0	0	0	0	0	45	0	0	0	0	45	100	0	101	0	0	0	0	101	0	0	0	0	0	0	0	0	0	0	0	0	0	0	0	0	0	0	0	0	0	0	0	0	0	0	0	0	0	0	0	0	0	0	0	0	327	12	0	0	0	339	0	0	0	0	0	0	0	0	0	0	0	0	0	0	0	428	12	0	0	0	440	0	0	0	0	0	0	0	0	0	11	0	0	11	0	4		MICHAEL MOOMAW	2563564996	2/4/2004	2/12/2004		
2003	20030104	"SWEENY GAS SYSTEM, CITY OF"	18764	102 W. ASHLEY WILSON RD	SWEENY	BRAZORIA	TX	77480						TX	0	0	0	23	6	0	0	0	0	0	29	0	0	0	719	580	0	0	0	0	0	1299	0	15	8	0	0	0	23	0	0	0	0	0	0	0	0	0	0	0	0	0	0	0	0	0	0	0	0	0	0	0	0	0	0	0	0	0	6	0	0	0	0	6	0	0	0	0	0	0	0	0	0	0	0	0	0	0	0	0	0	0	0	0	0	0	21	8	0	0	0	29	75	0	0	703	0	0	0	703	0	0	0	0	0	0	0	0	0	0	0	0	0	0	0	0	0	0	0	0	0	0	0	0	0	0	0	0	0	580	16	0	0	0	596	0	0	0	0	0	0	0	0	0	0	0	0	0	0	0	0	0	0	0	0	0	0	580	719	0	0	0	1299	3	0	0	1	0	0	0	1	0	0	0	17	0	0	4.1		TIM MOSS	9795483321	2/2/2004	2/12/2004		
2003	20030105	"SUNRISE, CITY OF"	18738	4401 NW 103 AVE	SUNRISE	BROWARD	FL	33351	10770 W. OAKLAND PARK BLV	SUNRISE		FL	33351	FL	0	0	0	96	79	0	0	0	0	0	175	0	0	0	6233	3823	0	0	0	0	0	10056	0	61	20	15	0	0	96	0	0	0	0	0	0	0	0	0	0	0	0	0	0	0	0	0	0	0	0	0	0	0	0	0	0	0	0	0	58	14	7	0	0	79	0	0	0	0	0	0	0	0	0	0	0	0	0	0	0	0	0	0	0	0	0	0	119	34	22	0	0	175	0	0	6125	108	0	0	0	6233	0	0	0	0	0	0	0	0	0	0	0	0	0	0	0	0	0	0	0	0	0	0	0	0	0	0	0	0	0	3540	282	1	0	0	3823	0	0	0	0	0	0	0	0	0	0	0	0	0	0	0	0	0	0	0	0	0	0	9665	390	1	0	0	10056	5	29	0	0	4	17	0	1	4	22	0	1	0	0	1.2		JOHN DILLAVOU	9545722299	2/3/2004	2/12/2004		
2003	20030106	LAKE COUNTY UTIL DIST	11120	123 N COURT STREET	TIPTONVILLE	LAKE	TN	-8082						 TN	0	0	0	144	0	0	0	0	0	0	144	0	0	0	3224	0	0	0	0	0	0	3224	0	81	48	15	0	0	144	0	0	0	0	0	0	0	0	0	0	0	0	0	0	0	0	0	0	0	0	0	0	0	0	0	0	0	0	0	0	0	0	0	0	0	0	0	0	0	0	0	0	0	0	0	0	0	0	0	0	0	0	0	0	0	0	0	81	48	15	0	0	144	0	0	3175	48	1	0	0	3224	0	0	0	0	0	0	0	0	0	0	0	0	0	0	0	0	0	0	0	0	0	0	0	0	0	0	0	0	0	0	0	0	0	0	0	0	0	0	0	0	0	0	0	0	0	0	0	0	0	0	0	0	0	0	0	0	0	3175	48	1	0	0	3224	0	0	0	0	0	0	0	0	0	0	0	0	0	0	0.0165		JAMES R CLEMENTS	7312536203	2/2/2004	2/12/2004		
2003	20030107	BLACK MOUNTAIN GAS CO	1480	2000 E FRONTAGE RD	PAGE	COCONINO	AZ	86040	4300 W TROPICANA AVE	LAS VEGAS	CLARK	NV	89193-8512	AZ	0	0	0	5	57	0	0	0	0	0	62	0	0	0	662	1240	0	0	0	0	0	1902	0	4	1	0	0	0	5	0	0	0	0	0	0	0	0	0	0	0	0	0	0	0	0	0	0	0	0	0	0	0	0	0	0	0	0	0	36	21	0	0	0	57	0	0	0	0	0	0	0	0	0	0	0	0	0	0	0	0	0	0	0	0	0	0	40	22	0	0	0	62	42	0	662	0	0	0	0	662	0	0	0	0	0	0	0	0	0	0	0	0	0	0	0	0	0	0	0	0	0	0	0	0	0	0	0	0	0	1191	49	0	0	0	1240	0	0	0	0	0	0	0	0	0	0	0	0	0	0	0	0	0	0	0	0	0	0	1853	49	0	0	0	1902	0	0	0	1	1	2	0	0	0	0	0	3	0	0	0.18		GAIL ROBINSON	9286452080	2/4/2004	2/12/2004		
2003	20030108	CITY OF WAHOO 	31363	605 N BROADWAY	WAHOO	SAUNDERS	NE	68066						NE	3	0	0	12	17	1	0	0	0	0	33	69	91	0	445	867	0	0	32	83	0	1587	0	11	2	2	0	0	15	0	0	0	0	0	0	0	0	0	0	0	0	0	0	0	1	0	0	0	0	1	0	0	0	0	0	0	0	0	11	5	1	0	0	17	0	0	0	0	0	0	0	0	0	0	0	0	0	0	0	0	0	0	0	0	0	0	23	7	3	0	0	33	75	0	578	22	5	0	0	605	0	0	0	0	0	0	0	0	32	0	0	0	0	32	0	0	0	0	0	0	0	0	0	0	0	0	0	0	0	818	45	4	0	0	867	0	83	0	0	0	0	83	0	0	0	0	0	0	0	0	0	0	0	0	0	0	0	1511	67	9	0	0	1587	2	2	0	0	2	4	0	0	0	2	0	0	11	0		UNACCOUNTED FOR GAS -5%	CHRIS OTTE	4024431558	2/11/2004	2/24/2004		
2003	20030109	INDIANTOWN GAS CO INC	8100	16600 SW WARFIELD BLVD	INDIANTOWN	MARTIN	FL	34956						 FL	1	0	0	3	9	0	0	0	0	0	13	73	0	0	2	634	0	0	0	0	0	709	0	1	0	3	0	0	4	0	0	0	0	0	0	0	0	0	0	0	0	0	0	0	0	0	0	0	0	0	0	0	0	0	0	0	0	0	9	0	0	0	0	9	0	0	0	0	0	0	0	0	0	0	0	0	0	0	0	0	0	0	0	0	0	0	10	0	3	0	0	13	65	0	73	0	0	2	0	75	0	0	0	0	0	0	0	0	0	0	0	0	0	0	0	0	0	0	0	0	0	0	0	0	0	0	0	0	0	634	0	0	0	0	634	0	0	0	0	0	0	0	0	0	0	0	0	0	0	0	0	0	0	0	0	0	0	707	0	0	2	0	709	0	3	0	0	0	0	0	2	0	9	1	0	0	0	1.75		EARNEST E. BANKS	7725972268	2/10/2004	2/24/2004		
2003	20030110	"EUNICE GAS DEPT, CITY OF"	4590	705 S BOBCAT DR	EUNICE	ST. LANDRY	LA	70535	300 S 2ND ST PO BOX 1106	EUNICE		LA	70535	LA	0	0	0	20	67	17	0	0	0	0	104	0	0	5	32	3788	0	0	0	0	0	3825	0	3	14	3	0	0	20	0	0	0	0	0	0	0	0	0	0	0	0	0	0	0	16	1	0	0	0	17	0	0	0	0	0	0	0	0	57	10	0	0	0	67	0	0	0	0	0	0	0	0	0	0	0	0	0	0	0	0	0	0	0	0	0	0	76	25	3	0	0	104	75	0	32	0	0	0	0	32	0	0	0	0	0	0	0	0	5	0	0	0	0	5	0	0	0	0	0	0	0	0	0	0	0	0	0	0	0	3774	14	0	0	0	3788	0	0	0	0	0	0	0	0	0	0	0	0	0	0	0	0	0	0	0	0	0	0	3811	14	0	0	0	3825	3	10	0	0	7	29	3	4	0	19	5	10	130	0	0.73		NELSON JAMES	3374576576	2/5/2004	2/24/2004		
2003	20030111	"HORNBECK GAS DEPT, CITY OF"	7360	1083 HAMMOND 	HORNBECK	VERNON	LA	71439						LA	0	0	0	79	8	0	0	0	0	0	87	0	0	805	0	94	0	0	0	0	0	899	0	39	36	4	0	0	79	0	0	0	0	0	0	0	0	0	0	0	0	0	0	0	0	0	0	0	0	0	0	0	0	0	0	0	0	0	8	0	0	0	0	8	0	0	0	0	0	0	0	0	0	0	0	0	0	0	0	0	0	0	0	0	0	0	47	36	4	0	0	87	15	0	795	0	0	0	0	795	0	0	0	0	0	0	0	0	0	0	0	0	0	0	0	0	0	0	0	0	0	0	0	0	0	0	0	0	0	104	0	0	0	0	104	0	0	0	0	0	0	0	0	0	0	0	0	0	0	0	0	0	0	0	0	0	0	899	0	0	0	0	899	0	0	5	10	0	0	0	0	0	0	0	0	0	0	0.5		JAMES A BROWNING	3185654659	2/9/2004	2/24/2004		
2003	20030112	"CORONA GAS SYSTEM, VILLAGE OF"	2804	PO BOX 37 -MAIN ST HWY 54	CORONA	LINCOLN	NM	88318					88318	NM	0	0	0	15	0	0	0	0	0	0	15	0	0	0	90	0	0	0	0	0	0	90	0	3	12	0	0	0	15	0	0	0	0	0	0	0	0	0	0	0	0	0	0	0	0	0	0	0	0	0	0	0	0	0	0	0	0	0	0	0	0	0	0	0	0	0	0	0	0	0	0	0	0	0	0	0	0	0	0	0	0	0	0	0	0	0	3	12	0	0	0	15	0	0	90	0	0	0	0	90	0	0	0	0	0	0	0	0	0	0	0	0	0	0	0	0	0	0	0	0	0	0	0	0	0	0	0	0	0	0	0	0	0	0	0	0	0	0	0	0	0	0	0	0	0	0	0	0	0	0	0	0	0	0	0	0	0	90	0	0	0	0	90	0	0	0	0	0	0	0	0	0	0	0	0	0	0	2.5		CATHY PEREZ	5058495511	2/9/2004	2/24/2004		
2003	20030113	"MARIANNA, CITY OF"	12150	P O BOX 936	MARIANNA	JACKSON	FL	32447						 FL	0	0	0	46	17	0	0	0	0	0	63	0	0	42	1338	969	0	0	0	0	0	2349	0	13	27	6	0	0	46	0	0	0	0	0	0	0	0	0	0	0	0	0	0	0	0	0	0	0	0	0	0	0	0	0	0	0	0	0	13	4	0	0	0	17	0	0	0	0	0	0	0	0	0	0	0	0	0	0	0	0	0	0	0	0	0	0	26	31	6	0	0	63	65	0	1368	9	3	0	0	1380	0	0	0	0	0	0	0	0	0	0	0	0	0	0	0	0	0	0	0	0	0	0	0	0	0	0	0	0	0	948	21	0	0	0	969	0	0	0	0	0	0	0	0	0	0	0	0	0	0	0	0	0	0	0	0	0	0	2316	30	3	0	0	2349	0	0	1	1	0	1	0	3	0	8	0	0	0	0	1.36		BOBBY CHRISTMAS	8504825887	2/9/2004	2/24/2004		
2003	20030114	"EAST FELICIANA PARISH, GAS UTIL DIST # 1 OF"	6225	PO BOX 39 - 6509 SYCAMORE	WILSON	EAST FELICIANA	LA	70789						LA	0	0	0	32	2	0	0	0	1	0	35	0	0	0	667	10	0	0	0	60	0	737	0	18	14	0	0	0	32	0	0	0	0	0	0	0	0	0	0	0	0	0	0	0	0	0	0	0	0	0	0	2	0	0	0	0	2	0	1	0	0	0	0	1	0	0	0	0	0	0	0	0	0	0	0	0	0	0	0	0	0	0	0	0	0	0	21	14	0	0	0	35	0	0	664	0	0	0	0	664	0	0	3	0	0	0	3	0	0	0	0	0	0	0	0	0	0	0	0	0	0	0	10	0	0	0	0	10	0	60	0	0	0	0	60	0	0	0	0	0	0	0	0	0	0	0	0	0	0	0	0	0	0	0	0	0	0	734	3	0	0	0	737	0	0	2	6	0	0	0	0	0	0	0	0	0	0	0.04		L VAN RUSSELL	2256295341	2/9/2004	2/24/2004		
2003	20030115	AFTON PUBLIC WORKS AUTHORITY (APWA)	30507	P.O. BOX 250	AFTON	OTTAWA	OK	74331						OK	0	0	0	23	1	0	0	0	0	0	24	0	0	0	497	13	0	0	0	0	0	510	0	15	8	0	0	0	23	0	0	0	0	0	0	0	0	0	0	0	0	0	0	0	0	0	0	0	0	0	0	0	0	0	0	0	0	0	1	0	0	0	0	1	0	0	0	0	0	0	0	0	0	0	0	0	0	0	0	0	0	0	0	0	0	0	16	8	0	0	0	24	0	0	496	0	0	0	0	496	0	0	0	0	0	0	0	0	0	0	0	0	0	0	0	0	0	0	0	0	0	0	0	0	0	0	0	0	0	8	6	0	0	0	14	0	0	0	0	0	0	0	0	0	0	0	0	0	0	0	0	0	0	0	0	0	0	504	6	0	0	0	510	0	0	0	0	0	0	0	0	0	0	0	0	0	0	3.38		BILLY M. HARRISON - CHAIRMAN	9182574304	2/9/2004	2/24/2004		
2003	20030116	AMERICUS UTILITY COMMISSION	423	715 VALLEY DRIVE	AMERICUS 	SUMTER	GA	31709	101 WEST LAMAR STREET	AMERICUS 	SUMTER	GA	31709	 GA	0	0	0	82	18	0	0	0	0	0	100	0	0	0	1880	2288	0	0	0	0	0	4168	0	37	33	12	0	0	82	0	0	0	0	0	0	0	0	0	0	0	0	0	0	0	0	0	0	0	0	0	0	0	0	0	0	0	0	0	16	2	0	0	0	18	0	0	0	0	0	0	0	0	0	0	0	0	0	0	0	0	0	0	0	0	0	0	53	35	12	0	0	100	130	0	1856	15	7	2	0	1880	0	0	0	0	0	0	0	0	0	0	0	0	0	0	0	0	0	0	0	0	0	0	0	0	0	0	0	0	0	2285	3	0	0	0	2288	0	0	0	0	0	0	0	0	0	0	0	0	0	0	0	0	0	0	0	0	0	0	4141	18	7	2	0	4168	0	4	0	0	0	0	0	0	0	0	4	16	0	0	0	THE OTHER ON MAINS WERE VALVES.  THEY WERE GREASED.  THIS STOPPED THE LEAK.  THE 16 OTHER SERVICES WERE METER SET LEAKS.  EITHER FITTING OR REGULATOR VENTING.	HENRY BARFIELD	2299246700	2/9/2004	2/24/2004		
2003	20030117	GUTHRIE CENTER MUNICIPAL UTILITIES	6950	102 N. 1ST ST PO BOX 100	GUTHRIE CENTER	GUTHRIE	IA	50115						IA	0	0	0	12	3	0	0	0	0	0	15	0	0	0	774	43	0	0	0	0	0	817	0	7	4	1	0	0	12	0	0	0	0	0	0	0	0	0	0	0	0	0	0	0	0	0	0	0	0	0	0	0	0	0	0	0	0	0	3	0	0	0	0	3	0	0	0	0	0	0	0	0	0	0	0	0	0	0	0	0	0	0	0	0	0	0	10	4	1	0	0	15	60	0	741	33	0	0	0	774	0	0	0	0	0	0	0	0	0	0	0	0	0	0	0	0	0	0	0	0	0	0	0	0	0	0	0	0	0	43	0	0	0	0	43	0	0	0	0	0	0	0	0	0	0	0	0	0	0	0	0	0	0	0	0	0	0	784	33	0	0	0	817	0	0	0	0	0	0	0	0	0	0	0	4	0	0	0		BILL SLATER	6417473154	2/9/2004	2/24/2004		
2003	20030118	"RANTOUL, VILLAGE OF"	30889	200 W GROVE AVE	RANTOUL	CHAMPAIGN	IL	61866						IL	0	0	0	10	9	0	0	0	0	0	19	0	0	0	353	181	0	0	0	51	0	585	0	5	4	1	0	0	10	0	0	0	0	0	0	0	0	0	0	0	0	0	0	0	0	0	0	0	0	0	0	0	0	0	0	0	0	0	2	3	4	0	0	9	0	0	0	0	0	0	0	0	0	0	0	0	0	0	0	0	0	0	0	0	0	0	7	7	5	0	0	19	75	0	351	2	0	0	0	353	0	0	0	0	0	0	0	0	0	0	0	0	0	0	0	0	0	0	0	0	0	0	0	0	0	0	0	0	0	156	24	0	1	0	181	0	0	0	0	0	0	0	0	50	1	0	0	0	51	0	0	0	0	0	0	0	0	557	27	0	1	0	585	4	2	0	0	2	0	0	0	0	0	7	5	11	0	0.16	"PART B, HEM 3-OTHER: TRIPLE-DEK, ALUMINUM WITH P.E. COATING.    PART C, MAINS-OTHER: FLANGE 6' VALVE AND GREASE VALVE.    PART C, SERVICES-OTHER: GREASED RISERVALVE."	GEOFFREY SINCLAIR	2178922178	2/9/2004	2/24/2004		
2003	20030119	"HUXLEY, CITY OF"	7700	11798 FM 2694	SHELBYVILLE 	SHELBY	TX	75973						TX	0	0	0	75	167	0	0	0	0	0	242	0	0	0	1288	251	0	0	0	0	0	1539	0	0	47	28	0	0	75	0	0	0	0	0	0	0	0	0	0	0	0	0	0	0	0	0	0	0	0	0	0	136	17	0	0	0	153	0	14	0	0	0	0	14	0	0	0	0	0	0	0	0	0	0	0	0	0	0	0	0	0	0	0	0	0	0	150	64	28	0	0	242	15	0	1238	50	0	0	0	1288	0	0	0	0	0	0	0	0	0	0	0	0	0	0	0	0	0	0	0	0	0	0	0	0	0	0	0	0	0	251	0	0	0	0	251	0	0	0	0	0	0	0	0	0	0	0	0	0	0	0	0	0	0	0	0	0	0	1489	50	0	0	0	1539	0	1	0	0	4	6	0	0	2	0	4	2	2	0	3		O.L. HENDRICKS	9363682266	2/9/2004	2/24/2004		
2003	20030120	NEW ALBANY GAS SYSTEM	13226	PO DRAWER 727	NEW ALBANY	UNION	MS	38652						MS	0	0	0	96	210	0	0	0	0	0	306	0	0	0	2558	3519	0	0	0	0	0	6077	0	28	31	37	0	0	96	0	0	0	0	0	0	0	0	0	0	0	0	0	0	0	0	0	0	0	0	0	0	0	0	0	0	0	0	0	106	96	8	0	0	210	0	0	0	0	0	0	0	0	0	0	0	0	0	0	0	0	0	0	0	0	0	0	134	127	45	0	0	306	0	0	2528	30	0	0	0	2558	0	0	0	0	0	0	0	0	0	0	0	0	0	0	0	0	0	0	0	0	0	0	0	0	0	0	0	0	0	3461	58	0	0	0	3519	0	0	0	0	0	0	0	0	0	0	0	0	0	0	0	0	0	0	0	0	0	0	5989	88	0	0	0	6077	0	0	0	0	5	25	0	0	0	0	0	0	0	0	0.03		HAROLD SMITH	6625341041	2/9/2004	2/24/2004		
2003	20030121	"VERNON PARISH, GAS UTIL DIST # 1 OF"	6235	12863 HWY 10 PO BOX 346	PITKIN	VERNON	LA	70656						 LA	0	0	0	21	1	0	0	0	0	0	22	0	0	0	412	4	0	0	0	0	0	416	0	21	0	0	0	0	21	0	0	0	0	0	0	0	0	0	0	0	0	0	0	0	0	0	0	0	0	0	0	1	0	0	0	0	1	0	0	0	0	0	0	0	0	0	0	0	0	0	0	0	0	0	0	0	0	0	0	0	0	0	0	0	0	0	22	0	0	0	0	22	5	0	0	0	0	0	0	0	0	412	0	0	0	0	412	0	0	0	0	0	0	0	0	0	0	0	0	0	0	0	4	0	0	0	0	4	0	0	0	0	0	0	0	0	0	0	0	0	0	0	0	0	0	0	0	0	0	0	0	0	0	0	0	0	0	416	0	0	0	0	416	0	3	0	0	0	0	0	0	1	0	0	0	6	0	2.7	"SERVICE REGULATORS & VALVES                                                         LEAK & CATHODIC SURVEY COMPLETED 12/23/03  EUNICE METER SERVICES--6/19/03                                                       NATIONAL CORROSION SERVICE, INC.  BO FONTENOT--OWNER                                                                          GEORGE MOULEDOUX, JR.--OWNER  P.O. BOX 84                                                                                                2210 JEFFERSON AVE.  EUNICE, LA. 70535                                                                                     NEW ORLEANS, LA., 70115    LOSS DUE TO ELIEF VALVE  1) 1ST TIME DUE TO DIAPHRAMS MALFUNCTIONING FROM EXCESSIVE DRIPPINGS  CAUSING RELIEF VALVE TO VENT.  2) 2ND TIME DUE TO ROCK FOUND IN REGULATOR CAUSING RELIEF VALVE TO VENT.    AFTER PROBLEMS WE HIRED NATIONAL CORROSION TO BUILD A FILTERATION AND SEPERATOR SYSTEM DUE TO EXCESSIVE DRIPPINGS AND TRASH IN OUR LINES."	ANNIE RUTH MARICLE	3183585426	2/9/2004	3/16/2004		
2003	20030122	"LINDEN NATURAL GAS SYSTEM, TOWN OF"	11520	216 EAST MAIN ST   BOX 46	LINDEN	PERRY	TN	37096						TN	0	0	0	31	108	0	0	0	0	0	139	0	0	0	357	806	0	0	0	0	0	1163	0	13	18	0	0	0	31	0	0	0	0	0	0	0	0	0	0	0	0	0	0	0	0	0	0	0	0	0	0	0	0	0	0	0	0	0	71	37	0	0	0	108	0	0	0	0	0	0	0	0	0	0	0	0	0	0	0	0	0	0	0	0	0	0	84	55	0	0	0	139	150	0	354	3	0	0	0	357	0	0	0	0	0	0	0	0	0	0	0	0	0	0	0	0	0	0	0	0	0	0	0	0	0	0	0	0	0	806	0	0	0	0	806	0	0	0	0	0	0	0	0	0	0	0	0	0	0	0	0	0	0	0	0	0	0	1160	3	0	0	0	1163	0	0	0	0	2	2	0	0	0	0	0	0	0	0	1		GAIL MOORE - CITY RECORDER	9315893766	2/9/2004	2/24/2004		
2003	20030123	HARLAN MUNICIPAL UTILITIES	7080	405 CHATBURN AVENUE	HARLAN	SHELBY	IA	51537						IA	0	0	0	31	5	0	0	0	0	0	36	0	0	0	2195	172	0	0	0	0	0	2367	0	23	4	4	0	0	31	0	0	0	0	0	0	0	0	0	0	0	0	0	0	0	0	0	0	0	0	0	0	0	0	0	0	0	0	0	3	2	0	0	0	5	0	0	0	0	0	0	0	0	0	0	0	0	0	0	0	0	0	0	0	0	0	0	26	6	4	0	0	36	80	0	2054	136	5	0	0	2195	0	0	0	0	0	0	0	0	0	0	0	0	0	0	0	0	0	0	0	0	0	0	0	0	0	0	0	0	0	167	4	1	0	0	172	0	0	0	0	0	0	0	0	0	0	0	0	0	0	0	0	0	0	0	0	0	0	2221	140	6	0	0	2367	0	0	0	0	0	0	0	0	0	0	0	0	0	0	0		SCOTT W JENSEN - GAS/METER SUPT	7127555182	2/9/2004	2/24/2004		
2003	20030124	SAVANNAH PUBLIC UTILITY DEPT	18124	1020 MAIN STREET	SAVANNAH	HARDIN	TN	38372						TN	0	0	0	111	151	0	0	0	0	0	262	0	0	0	1724	4436	0	0	0	0	0	6160	0	84	21	5	1	0	111	0	0	0	0	0	0	0	0	0	0	0	0	0	0	0	0	0	0	0	0	0	0	0	0	0	0	0	0	0	94	57	0	0	0	151	0	0	0	0	0	0	0	0	0	0	0	0	0	0	0	0	0	0	0	0	0	0	178	78	5	1	0	262	117	0	1712	12	0	0	0	1724	0	0	0	0	0	0	0	0	0	0	0	0	0	0	0	0	0	0	0	0	0	0	0	0	0	0	0	0	0	4419	17	0	0	0	4436	0	0	0	0	0	0	0	0	0	0	0	0	0	0	0	0	0	0	0	0	0	0	6131	29	0	0	0	6160	1	0	0	2	3	20	0	1	0	27	1	15	0	0	1		VIRGIL W. MORRIS - DIRECTOR	7319254216	2/10/2004	2/24/2004		
2003	20030125	"CHIPLEY, CITY OF"	2348	692 RUSTIN DRIVE	CHIPLEY 	WASHINGTON	FL	32428						FL	0	0	2	28	8	0	0	0	0	0	38	0	0	687	53	389	0	0	0	0	0	1129	0	22	8	0	0	0	30	0	0	0	0	0	0	0	0	0	0	0	0	0	0	0	0	0	0	0	0	0	0	0	0	0	0	0	0	0	7	1	0	0	0	8	0	0	0	0	0	0	0	0	0	0	0	0	0	0	0	0	0	0	0	0	0	0	29	9	0	0	0	38	0	0	706	32	0	0	0	738	0	0	0	0	0	0	0	0	0	0	0	0	0	0	0	0	0	0	0	0	0	0	0	0	0	0	0	0	0	0	0	0	0	0	0	0	389	2	0	0	0	391	0	0	0	0	0	0	0	0	0	0	0	0	0	0	0	1095	34	0	0	0	1129	0	0	0	0	0	3	0	3	0	3	0	4	0	0	1		TRACEY THOMAS	8506386346	2/10/2004	2/24/2004		
2003	20030126	"HICKMAN GAS DEPT, CITY OF"	7255	1812 SO. 7TH STREET	HICKMAN	FULTON	KY	42050						KY	0	0	0	20	9	0	0	0	0	0	29	0	0	0	717	216	0	0	0	0	0	933	0	0	20	0	0	0	20	0	0	0	0	0	0	0	0	0	0	0	0	0	0	0	0	0	0	0	0	0	0	0	0	0	0	0	0	0	9	0	0	0	0	9	0	0	0	0	0	0	0	0	0	0	0	0	0	0	0	0	0	0	0	0	0	0	9	20	0	0	0	29	100	0	713	4	0	0	0	717	0	0	0	0	0	0	0	0	0	0	0	0	0	0	0	0	0	0	0	0	0	0	0	0	0	0	0	0	0	210	5	1	0	0	216	0	0	0	0	0	0	0	0	0	0	0	0	0	0	0	0	0	0	0	0	0	0	923	9	1	0	0	933	0	0	0	0	0	1	0	0	0	0	0	0	0	0	0		DANNY PRUITT	2702362535	2/9/2004	2/24/2004		
2003	20030127	"ZACHARY WATER & GAS DISTRIBUTION SYSTEM, CITY OF"	25010	P O BOX 310	ZACHARY		LA	70791						 LA	0	0	0	0	119	0	0	0	0	0	119	0	0	0	0	3944	0	0	0	0	0	3944	0	0	0	0	0	0	0	0	0	0	0	0	0	0	0	0	0	0	0	0	0	0	0	0	0	0	0	0	0	6	12	0	0	0	18	0	61	40	0	0	0	101	0	0	0	0	0	0	0	0	0	0	0	0	0	0	0	0	0	0	0	0	0	0	67	52	0	0	0	119	50	0	0	0	0	0	0	0	0	0	0	0	0	0	0	0	0	0	0	0	0	0	0	0	0	0	0	0	0	0	0	0	0	0	0	0	0	3944	15	0	0	0	3959	0	0	0	0	0	0	0	0	0	0	0	0	0	0	0	0	0	0	0	0	0	0	3944	15	0	0	0	3959	0	3	3	0	5	21	1	2	8	16	2	18	79	0	3.53		CHRIS E DAVEZAC	2256540201	2/10/2004	2/24/2004		
2003	20030128	DANISCO CULTOR USA INC	31100	201 NEW CENTURY PARKWAY	NEW CENTURY	JOHNSON	KS	66031						KS	0	0	0	3	0	0	0	0	0	0	3	0	0	0	0	0	0	0	0	0	0	0	0	0	3	0	0	0	3	0	0	0	0	0	0	0	0	0	0	0	0	0	0	0	0	0	0	0	0	0	0	0	0	0	0	0	0	0	0	0	0	0	0	0	0	0	0	0	0	0	0	0	0	0	0	0	0	0	0	0	0	0	0	0	0	0	0	3	0	0	0	3	0	0	0	0	0	0	0	0	0	0	0	0	0	0	0	0	0	0	0	0	0	0	0	0	0	0	0	0	0	0	0	0	0	0	0	0	0	0	0	0	0	0	0	0	0	0	0	0	0	0	0	0	0	0	0	0	0	0	0	0	0	0	0	0	0	0	0	0	0	0	0	0	0	0	0	0	0	0	0	0	0	0	0	0	0	0		MARK A. SCHULMAN	9137648100	2/10/2004	2/24/2004		
2003	20030129	CORN GAS DEPT	2792	"213 W. MAIN, PO BOX 482"	CORN	WASHITA	OK	73024						OK	0	0	4	2	2	0	0	0	0	0	8	0	0	180	0	0	0	0	0	0	0	180	0	0	5	0	0	0	5	0	0	0	0	0	0	0	0	0	0	0	0	0	0	0	0	0	0	0	0	0	0	0	0	0	0	0	0	0	2	1	0	0	0	3	0	0	0	0	0	0	0	0	0	0	0	0	0	0	0	0	0	0	0	0	0	0	2	6	0	0	0	8	60	0	160	0	0	0	0	160	0	0	0	0	0	0	0	0	0	0	0	0	0	0	0	0	0	0	0	0	0	0	0	0	0	0	0	0	0	25	5	0	0	0	30	0	0	0	0	0	0	0	0	0	0	0	0	0	0	0	0	0	0	0	0	0	0	185	5	0	0	0	190	2	0	0	0	0	0	0	0	0	0	0	0	1	0	0	"FIRE STATION, MAINTENANCE SHOP, PUMPHOUSE AND TOWN OFFICE AND MUSEUM WERE METERED BEGINNING JANUARY OF 2003."	BILL COUCH	5803432255	2/10/2004	2/25/2004		
2003	20030130	DAHLGREN GAS SYSTEM	3060	3RD AND MAIN STREET	DAHLGREN	HAMILTON	IL	62828						IL	0	9	0	0	0	0	0	0	0	0	9	0	279	0	0	0	0	0	0	0	0	279	0	1	8	0	0	0	9	0	0	0	0	0	0	0	0	0	0	0	0	0	0	0	0	0	0	0	0	0	0	0	0	0	0	0	0	0	0	0	0	0	0	0	0	0	0	0	0	0	0	0	0	0	0	0	0	0	0	0	0	0	0	0	0	0	1	8	0	0	0	9	75	0	279	0	0	0	0	279	0	0	0	0	0	0	0	0	0	0	0	0	0	0	0	0	0	0	0	0	0	0	0	0	0	0	0	0	0	0	0	0	0	0	0	0	0	0	0	0	0	0	0	0	0	0	0	0	0	0	0	0	0	0	0	0	0	279	0	0	0	0	279	0	0	0	0	0	0	0	0	0	0	0	5	0	0	1		MARILYN L KARCHER	6187362830	2/10/2004	2/24/2004		
2003	20030131	ROLFE MUNICIPAL GAS SYSTEM	17640	306 WALNUT STREET	ROLFE	POCAHONTAS	IA	50581						IA	0	0	0	7	1	0	0	0	0	0	8	0	0	0	383	21	0	0	0	0	0	404	0	6	1	0	0	0	7	0	0	0	0	0	0	0	0	0	0	0	0	0	0	0	0	0	0	0	0	0	0	0	0	0	0	0	0	0	1	0	0	0	0	1	0	0	0	0	0	0	0	0	0	0	0	0	0	0	0	0	0	0	0	0	0	0	7	1	0	0	0	8	0	0	380	3	0	0	0	383	0	0	0	0	0	0	0	0	0	0	0	0	0	0	0	0	0	0	0	0	0	0	0	0	0	0	0	0	0	20	0	1	0	0	21	0	0	0	0	0	0	0	0	0	0	0	0	0	0	0	0	0	0	0	0	0	0	400	3	1	0	0	404	0	0	0	0	0	0	0	0	0	0	0	7	0	0	0	SMALL LEAKS ON METER SETS ALL REPAIRED WHEN FOUND.	MARK SINDERGARD	7128483456	2/10/2004	2/24/2004		
2003	20030132	MOREAUVILLE GAS DEPT	12768	BOX 57 9898 BAYOU DES 	MOREAUVILLE	AVOYELLES	LA	71355						LA	0	0	0	60	6	0	0	0	0	0	66	0	0	0	647	376	0	0	0	0	0	1023	0	41	19	0	0	0	60	0	0	0	0	0	0	0	0	0	0	0	0	0	0	0	0	0	0	0	0	0	0	0	0	0	0	0	0	0	6	0	0	0	0	6	0	0	0	0	0	0	0	0	0	0	0	0	0	0	0	0	0	0	0	0	0	0	47	19	0	0	0	66	15	0	643	3	0	0	0	646	0	0	0	0	0	0	0	0	0	0	0	0	0	0	0	0	0	0	0	0	0	0	0	0	0	0	0	0	0	376	0	1	0	0	377	0	0	0	0	0	0	0	0	0	0	0	0	0	0	0	0	0	0	0	0	0	0	1019	3	1	0	0	1023	0	1	0	0	0	6	0	0	0	0	0	0	0	0	7.6	"MCF'S BOUGHT 41,345,000  (INCLUDES 176,000 STORAGE GAS)    MCF'S SOLD      38,176,000                LOST        3,169,000"	JOHN W. GUIDROZ	3189852462	2/10/2004	2/24/2004		
2003	20030133	LAMONI MUNICIPAL UTILITIES	11184	111 SOUTH CHESTNUT	LAMONI	DECATUR	IA	50140						IA	0	0	0	0	24	0	0	0	0	0	24	0	0	0	302	569	0	0	0	0	0	871	0	0	0	0	0	0	0	0	0	0	0	0	0	0	0	0	0	0	0	0	0	0	0	0	0	0	0	0	0	1	0	0	0	0	1	0	18	5	0	0	0	23	0	0	0	0	0	0	0	0	0	0	0	0	0	0	0	0	0	0	0	0	0	0	19	5	0	0	0	24	100	0	272	30	0	0	0	302	0	0	0	0	0	0	0	0	0	0	0	0	0	0	0	0	0	0	0	0	0	0	0	0	0	0	0	0	0	510	59	0	0	0	569	0	0	0	0	0	0	0	0	0	0	0	0	0	0	0	0	0	0	0	0	0	0	782	89	0	0	0	871	0	0	0	0	5	0	0	0	0	0	0	0	0	0	2.3		STEVEN J BARNEY	6417846911	2/10/2004	2/25/2004		
2003	20030134	"DUMAS, CITY OF"	3600	P.O. BOX 438	DUMAS	MOORE	TX	79029						TX	1	26	0	0	40	0	0	0	0	0	67	600	2400	0	0	2022	0	0	0	0	0	5022	0	17	9	1	0	0	27	0	0	0	0	0	0	0	0	0	0	0	0	0	0	0	0	0	0	0	0	0	0	0	0	0	0	0	0	0	38	2	0	0	0	40	0	0	0	0	0	0	0	0	0	0	0	0	0	0	0	0	0	0	0	0	0	0	55	11	1	0	0	67	14	0	3000	0	0	0	0	3000	0	0	0	0	0	0	0	0	0	0	0	0	0	0	0	0	0	0	0	0	0	0	0	0	0	0	0	0	0	2022	0	0	0	0	2022	0	0	0	0	0	0	0	0	0	0	0	0	0	0	0	0	0	0	0	0	0	0	5022	0	0	0	0	5022	5	1	0	1	0	0	0	0	1	1	0	0	0	0	1		PATTY STAHL	8069354707	2/10/2004	2/25/2004		
2003	20030135	"DEL RIO GAS SYSTEM, CITY OF"	3210	201 E DE LA ROSA STREET	DEL RIO	VAL VERDE	TX	78840						TX	0	0	3	192	38	0	0	0	0	0	233	0	0	0	8258	281	0	0	0	0	0	8539	0	127	44	10	14	0	195	0	0	0	0	0	0	0	0	0	0	0	0	0	0	0	0	0	0	0	0	0	0	0	0	0	0	0	0	0	13	16	9	0	0	38	0	0	0	0	0	0	0	0	0	0	0	0	0	0	0	0	0	0	0	0	0	0	140	60	19	14	0	233	15	0	8183	75	0	0	0	8258	0	0	0	0	0	0	0	0	0	0	0	0	0	0	0	0	0	0	0	0	0	0	0	0	0	0	0	0	0	245	36	0	0	0	281	0	0	0	0	0	0	0	0	0	0	0	0	0	0	0	0	0	0	0	0	0	0	8428	111	0	0	0	8539	2	3	0	0	2	16	0	0	0	0	4	1	0	0		UNACCOUNTED FOR GAS -1.20%  LEAK SURVEY-2003 1/5-OF SYSTEM COVERED. NO PRESONAL INJURIES OR PROPERTY DAMAGES.	ELOY B. GARZA   OFFICE MGR	8307748622	2/10/2004	2/25/2004		
2003	20030136	SOUTHEASTERN NATURAL GAS CO	18465	9320 BLACK RUN ROAD	NASHPORT	MUSKINGUM	OH	43830						OH	0	0	11	40	88	0	0	0	0	0	139	2	0	0	6	1528	0	0	0	0	0	1536	0	0	24	27	0	0	51	0	0	0	0	0	0	0	0	0	0	0	0	0	0	0	0	0	0	0	0	0	0	0	0	0	0	0	0	0	54	20	14	0	0	88	0	0	0	0	0	0	0	0	0	0	0	0	0	0	0	0	0	0	0	0	0	0	54	44	41	0	0	139	100	0	2	0	5	1	0	8	0	0	0	0	0	0	0	0	0	0	0	0	0	0	0	0	0	0	0	0	0	0	0	0	0	0	0	0	0	1485	31	9	3	0	1528	0	0	0	0	0	0	0	0	0	0	0	0	0	0	0	0	0	0	0	0	0	0	1487	31	14	4	0	1536	0	4	0	0	2	4	0	1	0	0	0	0	0	1	2.3		BRIAN R. JONARD	7408289100	2/6/2004	2/25/2004		
2003	20030137	"GONZALES GAS CO, TOWN OF"	6440	120 S. IRMA BLVD	GONZALES	ASCENSION	LA	70737						LA	0	0	0	51	31	0	0	0	0	0	82	0	0	0	802	1251	0	0	0	0	0	2053	0	45	5	2	0	0	52	0	0	0	0	0	0	0	0	0	0	0	0	0	0	0	0	0	0	0	0	0	0	1	0	0	0	0	1	0	27	2	0	0	0	29	0	0	0	0	0	0	0	0	0	0	0	0	0	0	0	0	0	0	0	0	0	0	73	7	2	0	0	82	0	0	802	15	2	0	0	819	0	0	0	0	0	0	0	0	0	0	0	0	0	0	0	0	0	0	0	0	0	0	0	0	0	0	0	0	0	1251	22	0	0	0	1273	0	0	0	0	0	0	0	0	0	0	0	0	0	0	0	0	0	0	0	0	0	0	2053	37	2	0	0	2092	2	2	0	4	0	6	0	0	0	0	0	0	0	0	5		ADAM THOMPSON	2256472841	2/6/2004	2/25/2004		
2003	20030138	"PERRYTON, CITY OF"	15406	110 S ASH	PERRYTON	OCHILTREE	TX	79070						TX	0	0	0	1	53	0	0	0	0	0	54	0	0	0	217	3039	0	0	0	0	0	3256	0	0	1	0	0	0	1	0	0	0	0	0	0	0	0	0	0	0	0	0	0	0	0	0	0	0	0	0	0	0	0	0	0	0	0	0	30	23	0	0	0	53	0	0	0	0	0	0	0	0	0	0	0	0	0	0	0	0	0	0	0	0	0	0	30	24	0	0	0	54	6	0	0	200	17	0	0	217	0	0	0	0	0	0	0	0	0	0	0	0	0	0	0	0	0	0	0	0	0	0	0	0	0	0	0	0	0	0	2006	1033	0	0	3039	0	0	0	0	0	0	0	0	0	0	0	0	0	0	0	0	0	0	0	0	0	0	0	2206	1050	0	0	3256	0	0	0	0	0	5	0	0	0	0	0	4	0	0	4.58		LYNN CHAPPELL	8064354014	2/6/2004	2/25/2004		
2003	20030139	PULASKI NATURAL GAS DEPT	15966	203 SOUTH FIRST STREET	PULASKI	GILES	TN	38478						TN	0	0	0	78	0	0	0	0	0	0	78	0	0	0	2175	1952	0	0	0	0	0	4127	0	27	13	38	0	0	78	0	0	0	0	0	0	0	0	0	0	0	0	0	0	0	0	0	0	0	0	0	0	0	0	0	0	0	0	0	0	0	0	0	0	0	0	0	0	0	0	0	0	0	0	0	0	0	0	0	0	0	0	0	0	0	0	0	27	13	38	0	0	78	75	0	2157	16	2	0	0	2175	0	0	0	0	0	0	0	0	0	0	0	0	0	0	0	0	0	0	0	0	0	0	0	0	0	0	0	0	0	1950	2	0	0	0	1952	0	0	0	0	0	0	0	0	0	0	0	0	0	0	0	0	0	0	0	0	0	0	4107	18	2	0	0	4127	0	0	0	0	0	0	0	7	0	0	0	25	2	0	0.05	"PURCHASED 939,541 MCF  SOLD 892,250 MCF"	BUDDY BUSBY	9313631752	2/5/2004	2/25/2004		
2003	20030140	"LIVE OAK GAS DEPT, CITY OF"	11576	101 S.E. WHITE AVENUE	LIVE OAK	SUWANNEE	FL	32064						FL	0	0	0	32	14	0	0	0	0	0	46	0	0	0	1432	300	0	0	0	0	0	1732	0	16	16	0	0	0	32	0	0	0	0	0	0	0	0	0	0	0	0	0	0	0	0	0	0	0	0	0	0	0	0	0	0	0	0	0	14	0	0	0	0	14	0	0	0	0	0	0	0	0	0	0	0	0	0	0	0	0	0	0	0	0	0	0	30	16	0	0	0	46	75	0	1424	8	0	0	0	1432	0	0	0	0	0	0	0	0	0	0	0	0	0	0	0	0	0	0	0	0	0	0	298	2	0	0	0	300	0	0	0	0	0	0	0	0	0	0	0	0	0	0	0	0	0	0	0	0	0	0	0	0	0	0	0	0	0	1722	10	0	0	0	1732	0	0	3	1	0	0	0	0	5	0	0	0	1	0	1.33		WILLARD HEWIETT / DELORIS SELLERS	3683622276	2/10/2004	2/25/2004		
2003	20030141	INTERMOUNTAIN GAS CO	8160	555 S COLE RD	BOISE	ADA	ID	83707						ID	0	0	0	2459	2549	0	0	0	0	0	5008	0	0	0	90296	175356	0	0	0	0	0	265652	0	1433	725	234	67	0	2459	0	0	0	0	0	0	0	0	0	0	0	0	0	0	0	0	0	0	0	0	0	0	0	0	0	0	0	0	0	2157	382	10	0	0	2549	0	0	0	0	0	0	0	0	0	0	0	0	0	0	0	0	0	0	0	0	0	0	3590	1107	244	67	0	5008	80	0	87734	2464	94	4	0	90296	0	0	0	0	0	0	0	0	0	0	0	0	0	0	0	0	0	0	0	0	0	0	0	0	0	0	0	0	0	172636	2695	25	0	0	175356	0	0	0	0	0	0	0	0	0	0	0	0	0	0	0	0	0	0	0	0	0	0	260370	5159	119	4	0	265652	1	5	5	16	144	1032	18	23	3	14	13	41	1	0	0.005		DARYL WATSON   DISTRIBUTION MGR	2083776083	2/9/2004	2/25/2004		
2003	20030142	"GRAYVILLE GAS DEPT, CITY OF"	6640	122 S. COURT ST.	GRAYVILLE	WHITE	IL	62844						IL	0	0	0	17	5	0	0	0	0	0	22	0	0	0	876	42	0	0	0	0	0	918	0	9	5	3	0	0	17	0	0	0	0	0	0	0	0	0	0	0	0	0	0	0	0	0	0	0	0	0	0	0	0	0	0	0	0	0	2	2	1	0	0	5	0	0	0	0	0	0	0	0	0	0	0	0	0	0	0	0	0	0	0	0	0	0	11	7	4	0	0	22	75	0	866	8	0	0	0	874	0	0	0	0	0	0	0	0	0	0	0	0	0	0	0	0	0	0	0	0	0	0	0	0	0	0	0	0	0	42	2	0	0	0	44	0	0	0	0	0	0	0	0	0	0	0	0	0	0	0	0	0	0	0	0	0	0	908	10	0	0	0	918	0	3	0	0	0	0	0	0	0	9	0	0	12	0	1		ALLEN ALLDREDGE	6183753671	2/10/2004	2/25/2004		
2003	20030143	RICHMOND NATURAL GAS & SEWAGE WKS	17390	300 HALLIE IRVINE STREET	RICHMOND	MADISON	KY	40475						 KY	0	0	0	16	71	0	0	0	0	0	87	0	0	0	8	4915	0	0	0	0	0	4923	0	0	8	8	0	0	16	0	0	0	0	0	0	0	0	0	0	0	0	0	0	0	0	0	0	0	0	0	0	0	0	0	0	0	0	0	37	21	13	0	0	71	0	0	0	0	0	0	0	0	0	0	0	0	0	0	0	0	0	0	0	0	0	0	37	29	21	0	0	87	60	0	0	2	4	2	0	8	0	0	0	0	0	0	0	0	0	0	0	0	0	0	0	0	0	0	0	0	0	0	0	0	0	0	0	0	0	4738	177	0	0	0	4915	0	0	0	0	0	0	0	0	0	0	0	0	0	0	0	0	0	0	0	0	0	0	4738	179	4	2	0	4923	0	1	0	0	8	47	1	5	0	2	1	58	0	0	0.36		WILLIAM WESLEY SWEAT	8596232323	2/5/2004	2/25/2004		
2003	20030144	DOWNEAST ENERGY	31900	18 SPRING STREET	BRUNSWICK		ME	4011					4011	 ME	0	0	0	0	14	0	0	0	0	0	14	0	0	0	0	110	0	0	0	0	0	110	0	0	0	0	0	0	0	0	0	0	0	0	0	0	0	0	0	0	0	0	0	0	0	0	0	0	0	0	0	0	0	0	0	0	0	0	8	6	0	0	0	14	0	0	0	0	0	0	0	0	0	0	0	0	0	0	0	0	0	0	0	0	0	0	8	6	0	0	0	14	50	0	0	0	0	0	0	0	0	0	0	0	0	0	0	0	0	0	0	0	0	0	0	0	0	0	0	0	0	0	0	0	0	0	0	0	0	110	0	0	0	0	110	0	0	0	0	0	0	0	0	0	0	0	0	0	0	0	0	0	0	0	0	0	0	110	0	0	0	0	110	0	0	0	0	0	0	0	0	0	0	0	0	0	0	1		ALAN DOW	2077299921	1/29/2004	2/25/2004		
2003	20030145	"WILLOW GAS DEPT, TOWN OF"	22665	CITY HALL	WILLOW	GREER	OK	73673						OK	0	0	0	0	5	0	0	0	0	0	5	0	0	0	0	100	0	0	0	0	0	100	0	0	0	0	0	0	0	0	0	0	0	0	0	0	0	0	0	0	0	0	0	0	0	0	0	0	0	0	0	0	0	0	0	0	0	0	5	0	0	0	0	5	0	0	0	0	0	0	0	0	0	0	0	0	0	0	0	0	0	0	0	0	0	0	5	0	0	0	0	5	0	0	0	0	0	0	0	0	0	0	0	0	0	0	0	0	0	0	0	0	0	0	0	0	0	0	0	0	0	0	0	0	0	0	0	0	0	100	0	0	0	0	100	0	0	0	0	0	0	0	0	0	0	0	0	0	0	0	0	0	0	0	0	0	0	100	0	0	0	0	100	0	0	0	0	0	0	0	0	0	0	0	0	0	0	3		RONNIE DENNEY - OPERATOR	5802873381	2/12/2004	2/25/2004		
2003	20030146	"EAST BATON ROUGE PARISH, GAS UTIL DIST # 1 OF"	6219	10633 GREENWELL SPRING 	ZACHARY		LA	70791						LA	0	0	0	71	109	0	0	0	0	0	180	0	0	0	3744	0	0	0	0	0	0	3744	0	42	29	0	0	0	71	0	0	0	0	0	0	0	0	0	0	0	0	0	0	0	0	0	0	0	0	0	0	69	13	0	0	0	82	0	25	2	0	0	0	27	0	0	0	0	0	0	0	0	0	0	0	0	0	0	0	0	0	0	0	0	0	0	136	44	0	0	0	180	50	0	3738	6	0	0	0	3744	0	0	0	0	0	0	0	0	0	0	0	0	0	0	0	0	0	0	0	0	0	0	0	0	0	0	0	0	0	0	0	0	0	0	0	0	0	0	0	0	0	0	0	0	0	0	0	0	0	0	0	0	0	0	0	0	0	3738	6	0	0	0	3744	0	5	2	1	2	13	0	8	2	7	0	5	0	0	0.7		RANDALL L CROFT OPERATIONS MGR	2256544020	2/12/2004	2/25/2004		
2003	20030147	EASTERN COLORADO UTILITY CO	4100	58801 E HWY 36 PO BOX 575	STRASBURG	ARAPAHOE	CO	80136						 CO	0	0	0	74	114	0	0	0	0	0	188	0	0	0	1658	1802	0	0	0	0	0	3460	0	36	38	0	0	0	74	0	0	0	0	0	0	0	0	0	0	0	0	0	0	0	0	0	0	0	0	0	0	0	0	0	0	0	0	0	102	12	0	0	0	114	0	0	0	0	0	0	0	0	0	0	0	0	0	0	0	0	0	0	0	0	0	0	138	50	0	0	0	188	30	0	1640	18	0	0	0	1658	0	0	0	0	0	0	0	0	0	0	0	0	0	0	0	0	0	0	0	0	0	0	0	0	0	0	0	0	0	1800	2	0	0	0	1802	0	0	0	0	0	0	0	0	0	0	0	0	0	0	0	0	0	0	0	0	0	0	3440	20	0	0	0	3460	0	0	0	0	4	4	1	0	1	0	0	0	0	0	2.56		DARRIEL HAMACHER	3036224220	2/12/2004	2/25/2004		
2003	20030148	CONSUMERS ENERGY	31571	2908 SOUTH CENTER ST	MARSHALLTOWN	MARSHALL	IA	50158						 IA	0	0	0	0	20	0	0	0	0	0	20	0	0	0	0	135	0	0	0	0	0	135	0	0	0	0	0	0	0	0	0	0	0	0	0	0	0	0	0	0	0	0	0	0	0	0	0	0	0	0	0	0	0	0	0	0	0	0	5	12	3	0	0	20	0	0	0	0	0	0	0	0	0	0	0	0	0	0	0	0	0	0	0	0	0	0	5	12	3	0	0	20	100	0	0	0	0	0	0	0	0	0	0	0	0	0	0	0	0	0	0	0	0	0	0	0	0	0	0	0	0	0	0	0	0	0	0	0	0	135	0	0	0	0	135	0	0	0	0	0	0	0	0	0	0	0	0	0	0	0	0	0	0	0	0	0	0	135	0	0	0	0	135	0	0	0	0	9	0	0	0	0	0	0	0	0	0	0		JIM KIDD	6417521593	2/12/2004	2/25/2004		
2003	20030149	"SIMMESPORT NATURAL GAS SYSTEM, TOWN OF"	18328	"PO BOX 145,372 MISSION DR"	SIMMESPORT		LA	71369						 LA	0	0	0	23	6	0	0	0	0	0	29	0	0	0	528	202	0	0	0	0	0	730	0	12	11	0	0	0	23	0	0	0	0	0	0	0	0	0	0	0	0	0	0	0	0	0	0	0	0	0	0	0	0	0	0	0	0	0	3	3	0	0	0	6	0	0	0	0	0	0	0	0	0	0	0	0	0	0	0	0	0	0	0	0	0	0	15	14	0	0	0	29	50	0	528	0	0	0	0	528	0	0	0	0	0	0	0	0	0	0	0	0	0	0	0	0	0	0	0	0	0	0	0	0	0	0	0	0	0	202	0	0	0	0	202	0	0	0	0	0	0	0	0	0	0	0	0	0	0	0	0	0	0	0	0	0	0	730	0	0	0	0	730	1	8	0	4	0	0	0	0	0	1	0	0	1	0	0.047		FRANKIE BORDELON	3189412493	2/12/2004	2/25/2004		
2003	20030150	WATERVILLE GAS & OIL CO	22238	11 N RIVER ROAD	WATERVILLE	LUCAS	OH	43566						 OH	11	0	4	28	58	0	0	0	0	0	101	185	192	102	366	2767	0	0	0	0	0	3612	0	10	30	2	1	0	43	0	0	0	0	0	0	0	0	0	0	0	0	0	0	0	0	0	0	0	0	0	0	0	0	0	0	0	0	0	22	29	7	0	0	58	0	0	0	0	0	0	0	0	0	0	0	0	0	0	0	0	0	0	0	0	0	0	32	59	9	1	0	101	34	0	842	2	1	0	0	845	0	0	0	0	0	0	0	0	0	0	0	0	0	0	0	0	0	0	0	0	0	0	0	0	0	0	0	0	0	2758	9	0	0	0	2767	0	0	0	0	0	0	0	0	0	0	0	0	0	0	0	0	0	0	0	0	0	0	3600	11	1	0	0	3612	2	0	0	1	3	4	0	1	0	0	0	0	3	0	1.6		JAMES E A BLACK	4198784972	2/12/2004	2/25/2004		
2003	20030151	"MADISON, CITY OF"	12030	109 W. RUTLEDGE STREET	MADISON	MADISON	FL	32340						FL	0	0	0	30	24	0	0	0	0	0	54	0	0	0	855	717	0	0	0	0	0	1572	0	24	5	1	0	0	30	0	0	0	0	0	0	0	0	0	0	0	0	0	0	0	0	0	0	0	0	0	0	0	0	0	0	0	0	0	20	4	0	0	0	24	0	0	0	0	0	0	0	0	0	0	0	0	0	0	0	0	0	0	0	0	0	0	44	9	1	0	0	54	85	0	846	0	9	0	0	855	0	0	0	0	0	0	0	0	0	0	0	0	0	0	0	0	0	0	0	0	0	0	0	0	0	0	0	0	0	709	0	8	0	0	717	0	0	0	0	0	0	0	0	0	0	0	0	0	0	0	0	0	0	0	0	0	0	1555	0	17	0	0	1572	1	11	0	1	0	0	0	0	1	22	0	0	0	0	0	UNACCOUNTED FOR -.31%	MICHAEL G. SMITH - NATURAL GAS SUPERVISOR	8509735081	2/12/2004	2/25/2004		
2003	20030152	"RANGELY, TOWN OF"	17070	514 PROPECT AVE	RANGELY	RIO BLANCO	CO	81648	209 E MAIN ST	RANGELY		CO	81648	 CO	0	0	0	3	26	0	0	0	0	0	29	0	0	0	135	911	0	0	0	0	0	1046	0	1	2	0	0	0	3	0	0	0	0	0	0		0	0	0	0	0	0		0	0	0	0	0	0		0	0	0	0	0	0		0	21	5	0	0	0	26	0	0	0	0	0	0		0	0	0	0	0	0		0	0	0	0	0	0		0	22	7	0	0	0	29	84	0	125	10	0	0	0	135	0	0	0	0	0	0		0	0	0	0	0	0		0	0	0	0	0	0		0	0	0	0	0	0		0	893	17	1	0	0	911	0	0	0	0	0	0		0	0	0	0	0	0		0	0	0	0	0	0		0	1018	27	1	0	0	1046	0	1	0	0	0	2	0	0	0	0	0	0	0	0	3.5		DEBBIE KARSCHNER	9706758258	2/12/2004	2/25/2004		
2003	20030153	"TOCCOA NATURAL GAS SYSTEM, CITY OF"	19490	"PO BOX 579,203 N ALEXANER"	TOCCOA	STEPHENS	GA	30577						 GA	0	0	14	145	163	0	0	0	0	0	322	0	0	316	2339	5303	0	0	0	0	0	7958	0	86	19	54	0	0	159	0	0	0	0	0	0	0	0	0	0	0	0	0	0	0	0	0	0	0	0	0	0	104	59	0	0	0	163	0	0	0	0	0	0	0	0	0	0	0	0	0	0	0	0	0	0	0	0	0	0	0	0	0	0	0	0	0	190	78	54	0	0	322	100	0	2578	51	26	0	0	2655	0	0	0	0	0	0	0	0	0	0	0	0	0	0	0	0	0	0	0	0	0	0	0	0	0	0	0	0	0	5244	57	2	0	0	5303	0	0	0	0	0	0	0	0	0	0	0	0	0	0	0	0	0	0	0	0	0	0	7822	108	28	0	0	7958	15	20	0	0	10	24	0	0	0	0	0	0	10	0	2.75		DOLLY TEASLEY	7062823300	2/12/2004	2/25/2004		
2003	20030154	"TOCCOA NATURAL GAS SYSTEM, CITY OF"	19490	"PO BOX 579,203 N ALEXANDE"	TOCCOA	STEPHENS	GA	30577						 NC	0	0	0	1	66	0	0	0	0	0	67	0	0	0	0	554	0	0	0	0	0	554	0	0	1	0	0	0	1	0	0	0	0	0	0	0	0	0	0	0	0	0	0	0	0	0	0	0	0	0	0	0	0	0	0	0	0	0	41	25	0	0	0	66	0	0	0	0	0	0	0	0	0	0	0	0	0	0	0	0	0	0	0	0	0	0	41	26	0	0	0	67	100	0	0	0	0	0	0	0	0	0	0	0	0	0	0	0	0	0	0	0	0	0	0	0	0	0	0	0	0	0	0	0	0	0	0	0	0	529	25	0	0	0	554	0	0	0	0	0	0	0	0	0	0	0	0	0	0	0	0	0	0	0	0	0	0	529	25	0	0	0	554	0	0	0	0	5	8	0	0	0	0	0	0	0	0	2.75		DOLLY TEASLEY	7062823300	2/12/2004	2/25/2004		
2003	20030155	WATERVILLE GAS CO	22236	11 N RIVER ROAD	WATERVILLE	LUCAS	OH	-360						 OH	0	0	0	1	0	0	0	0	0	0	1	0	0	0	1	0	0	0	0	0	0	1	0	0	0	1	0	0	1	0	0	0	0	0	0		0	0	0	0	0	0		0	0	0	0	0	0		0	0	0	0	0	0		0	0	0	0	0	0		0	0	0	0	0	0		0	0	0	0	0	0		0	0	0	0	0	0	0	0	0	0	1	0	0	1	74	0	0	0	0	1	0	1	0	0	0	0	0	0		0	0	0	0	0	0		0	0	0	0	0	0		0	0	0	0	0	0		0	0	0	0	0	0		0	0	0	0	0	0		0	0	0	0	0	0		0	0	0	0	0	0		0	0	0	0	1	0	1	0	0	0	0	0	0	0	0	0	0	0	0	0	0	0.2		JAMES E A BLACK	4198784972	2/12/2004	2/25/2004		
2003	20030156	HUMBOLDT UTILITIES - GAS DEPT	7650	P O BOX 850 207 S 13TH AV	HUMBOLDT	GISBON	TN							 TN	0	0	2	77	30	0	0	0	0	0	109	0	0	240	2253	1022	0	0	0	807	0	4322	0	15	50	14	0	0	79	0	0	0	0	0	0	0	0	0	0	0	0	0	0	0	0	0	0	0	0	0	0	0	0	0	0	0	0	0	24	6	0	0	0	30	0	0	0	0	0	0	0	0	0	0	0	0	0	0	0	0	0	0	0	0	0	0	39	56	14	0	0	109	80	0	2443	40	10	0	0	2493	0	0	0	0	0	0	0	0	0	0	0	0	0	0	0	0	0	0	0	0	0	0	0	0	0	0	0	0	0	1014	5	3	0	0	1022	0	0	0	0	0	0	0	0	0	0	0	0	0	0	0	807	0	0	0	0	807	0	4264	45	13	0	0	4322	4	3	0	0	1	0	3	6	0	0	1	1	8	0	1		DAVID FRISBEE	7317849212	2/20/2004	2/25/2004		
2003	20030157	"WARREN GAS DEPT, CITY OF"	22168	120 E BRIDGE AVE	WARREN 	MARSHALL	MN	56762						 MN	0	0	0	10	4	0	0	0	0	0	14	0	0	0	452	286	0	0	0	0	0	738	0	7	3	0	0	0	10	0	0	0	0	0	0		0	0	0	0	0	0		0	0	0	0	0	0		0	0	0	0	0	0		0	2	2	0	0	0	4	0	0	0	0	0	0		0	0	0	0	0	0		0	0	0	0	0	0		0	9	5	0	0	0	14	96	0	449	3	0	0	0	452	0	0	0	0	0	0		0	0	0	0	0	0		0	0	0	0	0	0		0	0	0	0	0	0		0	284	2	0	0	0	286	0	0	0	0	0	0		0	0	0	0	0	0		0	0	0	0	0	0		0	733	5	0	0	0	738	0	0	0	0	0	0	0	0	0	0	0	0	0	0	1		JEFF WOHLERS	2187455343	2/12/2004	2/25/2004		
2003	20030158	PUBLIC SERVICE ELECTRIC & GAS CO	15952	80 PARK PLAZA	NEWARK	ESSEX	NJ	7102--4194	80 PARK PLAZA M/C - T25	NEWARK	ESSEX	NJ	7101	NJ	607	606	0	4893	6286	4597	0	0	0	0	16989	14158	0	0	501	525161	631988	8	33274	0	0	1205090	0	2184	1583	1460	665	215	6107	0	0	0	0	0	0	0	0	0	2057	1701	435	403	4596	0	0	0	0	0	0	0	0	0	0	0	0	0	0	0	3653	1664	926	43	0	6286	0	0	0	0	0	0	0	0	0	0	0	0	0	0	0	0	0	0	0	0	0	0	5837	5304	4087	1143	618	16989	71	0	535723	0	3817	438	0	539978	0	0	0	0	0	0	0	0	33274	0	0	0	0	33274	0	0	0	0	8	0	8	0	0	0	0	0	0	0	0	576350	49601	5353	515	11	631830	0	0	0	0	0	0	0	0	0	0	0	0	0	0	0	0	0	0	0	0	0	0	1145347	49601	9170	961	11	1205090	0	0	0	0	0	0	0	0	0	0	0	0	0	0	0		BERNICE RIVERA	9734305340	2/13/2004	2/25/2004		
2003	20030159	"PENSACOLA, ENERGY SERVICES OF"	4475	1625 ATWOOD DRIVE	PENSACOLA	ESCAMBIA	FL	-2517						 FL	486	86	2	178	650	88	0	0	0	0	1490	22139	0	144	2132	34388	0	0	0	0	0	58803	0	588	79	75	10	0	752	0	0	0	0	0	0	0	0	0	0	0	0	0	0	0	1	66	21	0	0	88	0	0	0	0	0	0	0	0	506	79	50	15	0	650	0	0	0	0	0	0	0	0	0	0	0	0	0	0	0	0	0	0	0	0	0	0	1095	224	146	25	0	1490	56	0	20215	4174	20	6	0	24415	0	0	0	0	0	0	0	0	0	0	0	0	0	0	0	0	0	0	0	0	0	0	0	0	0	0	0	0	0	33392	986	10	0	0	34388	0	0	0	0	0	0	0	0	0	0	0	0	0	0	0	0	0	0	0	0	0	0	53607	5160	30	6	0	58803	166	171	4	3	44	199	5	21	4	6	81	104	0	0	2.4		TAMRON GOODSON	8504735316	2/13/2004	2/25/2004		
2003	20030160	"TALOGA, TOWN OF"	19060	P O BOX 307	TALOSA	DEWEY	OK	73667						 OK	0	0	0	5	1	0	0	0	0	0	6	0	0	0	208	11	0	0	0	0	0	219	0	4	1	0	0	0	5	0	0	0	0	0	0		0	0	0	0	0	0		0	0	0	0	0	0		0	0	0	0	0	0		0	1	0	0	0	0	1	0	0	0	0	0	0		0	0	0	0	0	0		0	0	0	0	0	0	0	0	5	1	0	0	0	6	0	0	203	0	0	0	0	203	0	0	0	0	0	0		0	0	0	0	0	0		0	0	0	0	0	0		0	0	0	0	0	0		0	16	0	0	0	0	16	0	0	0	0	0	0		0	0	0	0	0	0		0	0	0	0	0	0		0	219	0	0	0	0	219	0	0	0	0	0	0	0	0	0	0	0	0	0	0	2		JUSTIN FOX	5803285444	2/11/2004	2/25/2004		
2003	20030161	CENTRAL FLORIDA GAS CORP	2188	1015 6TH STREET N.W.	WINTER HAVEN	POLK	FL	33881	P.O. BOX 1769	DOVER		DE	19904	FL	157	0	0	200	150	0	0	0	0	0	507	969	0	0	2646	7508	0	0	0	0	0	11123	0	146	121	85	5	0	357	0	0	0	0	0	0	0	0	0	0	0	0	0	0	0	0	0	0	0	0	0	0	0	0	0	0	0	0	0	106	44	0	0	0	150	0	0	0	0	0	0	0	0	0	0	0	0	0	0	0	0	0	0	0	0	0	0	252	165	85	5	0	507	75	0	3495	102	13	5	0	3615	0	0	0	0	0	0	0	0	0	0	0	0	0	0	0	0	0	0	0	0	0	0	0	0	0	0	0	0	0	7434	65	9	0	0	7508	0	0	0	0	0	0	0	0	0	0	0	0	0	0	0	0	0	0	0	0	0	0	10929	167	22	5	0	11123	41	23	1	10	3	16	8	1	0	0	0	0	0	0	0	WINTER HAVEN	MICHAEL MCCARTY	8632932125	2/11/2004	2/25/2004		
2003	20030162	CENTRAL FLORIDA GAS CORP	2188	1015 6TH STREET N.W.	WINTER HAVEN	POLK	FL	33881	P.O. BOX 1769	DOVER		DE	19904	FL	2	0	0	9	7	0	0	0	0	0	18	6	0	0	285	125	0	0	0	0	0	416	0	5	3	3	0	0	11	0	0	0	0	0	0	0	0	0	0	0	0	0	0	0	0	0	0	0	0	0	0	0	0	0	0	0	0	0	4	3	0	0	0	7	0	0	0	0	0	0	0	0	0	0	0	0	0	0	0	0	0	0	0	0	0	0	9	6	3	0	0	18	75	0	284	6	1	0	0	291	0	0	0	0	0	0	0	0	0	0	0	0	0	0	0	0	0	0	0	0	0	0	0	0	0	0	0	0	0	120	5	0	0	0	125	0	0	0	0	0	0	0	0	0	0	0	0	0	0	0	0	0	0	0	0	0	0	404	11	1	0	0	416	6	0	2	1	0	1	0	0	0	0	0	0	0	0	0	ST. CLOUD	MICHAEL MCCARTY	8632932125	2/11/2004	2/25/2004		
2003	20030163	CENTRAL FLORIDA GAS CORP	2188	1015 6TH STREET N.W.	WINTER HAVEN	POLK	FL	33881	P.O. BOX 1769	DOVER		DE	19904	FL	1	0	0	45	12	0	0	0	0	0	58	0	0	0	625	192	0	0	0	0	0	817	0	27	9	10	0	0	46	0	0	0	0	0	0	0	0	0	0	0	0	0	0	0	0	0	0	0	0	0	0	0	0	0	0	0	0	0	0	0	0	0	0	0	0	0	0	0	0	0	0	0	7	5	0	0	0	12	0	0	0	0	0	0	0	0	34	14	10	0	0	58	75	0	575	34	7	9	0	625	0	0	0	0	0	0	0	0	0	0	0	0	0	0	0	0	0	0	0	0	0	0	0	0	0	0	0	0	0	170	20	2	0	0	192	0	0	0	0	0	0	0	0	0	0	0	0	0	0	0	0	0	0	0	0	0	0	745	54	9	9	0	817	1	1	1	0	2	1	0	0	0	0	0	0	0	0	0	PLANT CITY	MICHAEL MCCARTY	8632932125	2/11/2004	2/26/2004		
2003	20030164	CENTRAL FLORIDA GAS CORP	2188	1015 6TH STREET N.W.	WINTER HAVEN	POLK	FL	33881	P.O. BOX 1769	DOVER		DE	19904	FL	0	0	0	13	65	0	0	0	0	0	78	0	0	0	0	625	0	0	0	0	0	625	0	0	0	13	0	0	13	0	0	0	0	0	0	0	0	0	0	0	0	0	0	0	0	0	0	0	0	0	0	0	0	0	0	0	0	0	30	35	0	0	0	65	0	0	0	0	0	0	0	0	0	0	0	0	0	0	0	0	0	0	0	0	0	0	30	35	13	0	0	78	75	0	0	0	0	0	0	0	0	0	0	0	0	0	0	0	0	0	0	0	0	0	0	0	0	0	0	0	0	0	0	0	0	0	0	0	0	614	11	0	0	0	625	0	0	0	0	0	0	0	0	0	0	0	0	0	0	0	0	0	0	0	0	0	0	614	11	0	0	0	625	0	0	0	0	4	12	4	0	0	0	0	0	0	0	0	CITRUS COUNTY	MICHAEL MCCARTY	8632932125	2/11/2004	2/26/2004		
2003	20030165	CENTRAL FLORIDA GAS CORP	2188	1015 6TH STREET N.W.	WINTER HAVEN	POLK	FL	33881	P.O. BOX 1769	DOVER		DE	19904	FL	0	0	0	11	0	0	0	0	0	0	11	0	0	0	2	0	0	0	0	0	0	2	0	0	0	11	0	0	11	0	0	0	0	0	0	0	0	0	0	0	0	0	0	0	0	0	0	0	0	0	0	0	0	0	0	0	0	0	0	0	0	0	0	0	0	0	0	0	0	0	0	0	0	0	0	0	0	0	0	0	0	0	0	0	0	0	0	0	11	0	0	11	75	0	0	2	0	0	0	2	0	0	0	0	0	0	0	0	0	0	0	0	0	0	0	0	0	0	0	0	0	0	0	0	0	0	0	0	0	0	0	0	0	0	0	0	0	0	0	0	0	0	0	0	0	0	0	0	0	0	0	0	0	0	0	0	0	0	2	0	0	0	2	0	0	0	0	0	0	0	0	0	0	0	0	0	0	0	CITROSUCO	MICHAEL MCCARTY	8632932125	2/11/2004	2/26/2004		
2003	20030166	JAMESTOWN GAS SYSTEM	9100	PO BOX 670 -314 E CENTRAL	JAMESTOWN	FENTRESS	TN	38556						TN	0	0	0	54	95	0	0	0	0	0	149	0	0	0	1180	1819	0	0	0	0	0	2999	0	28	19	7	0	0	54	0	0	0	0	0	0	0	0	0	0	0	0	0	0	0	0	0	0	0	0	0	0	0	0	0	0	0	0	0	79	13	3	0	0	95	0	0	0	0	0	0	0	0	0	0	0	0	0	0	0	0	0	0	0	0	0	0	107	32	10	0	0	149	213	0	1154	26	0	0	0	1180	0	0	0	0	0	0	0	0	0	0	0	0	0	0	0	0	0	0	0	0	0	0	0	0	0	0	0	0	0	1810	9	0	0	0	1819	0	0	0	0	0	0	0	0	0	0	0	0	0	0	0	0	0	0	0	0	0	0	2964	35	0	0	0	2999	4	0	0	0	0	0	0	0	0	0	0	0	0	0	0		DALLAS A. HAYES	9318792772	2/11/2004	2/26/2004		
2003	20030167	"CARROLLTON GAS DISTRICT SYSTEM, CITY OF"	2116	"PO BOX 269, 225 6TH ST"	CARROLLTON	CARROLL	KY	41008	P O BOX 269	CARROLLTON	CARROLL	KY	-1012	 KY	0	0	9	57	49	0	0	0	0	0	115	0	0	68	282	2236	0	0	0	0	0	2586	0	7	7	36	16	0	66	0	0	0	0	0	0	0	0	0	0	0	0	0	0	0	0	0	0	0	0	0	0	0	0	0	0	0	0	0	29	15	5	0	0	49	0	0	0	0	0	0	0	0	0	0	0	0	0	0	0	0	0	0	0	0	0	0	36	22	41	16	0	115	150	0	328	15	3	4	0	350	0	0	0	0	0	0	0	0	0	0	0	0	0	0	0	0	0	0	0	0	0	0	0	0	0	0	0	0	0	2177	59	0	0	0	2236	0	0	0	0	0	0	0	0	0	0	0	0	0	0	0	0	0	0	0	0	0	0	2505	74	3	4	0	2586	0	4	1	0	0	35	0	0	0	0	0	0	0	0	0.19		ROBERT E ADAMS	5027327055	2/11/2004	2/26/2004		
2003	20030168	"TUSCUMBIA GAS DEPT, CITY OF"	19760	PO BOX 269	TUSCUMBIA	COLBERT	AL	35674						AL	0	0	12	10	35	3	0	0	0	0	60	0	0	507	0	2719	0	0	0	0	0	3226	0	17	3	2	0	0	22	0	0	0	0	0	0	0	0	0	0	0	0	0	0	0	1	2	0	0	0	3	0	0	0	0	0	0	0	0	28	7	0	0	0	35	0	0	0	0	0	0	0	0	0	0	0	0	0	0	0	0	0	0	0	0	0	0	46	12	2	0	0	60	100	0	499	8	0	0	0	507	0	0	0	0	0	0	0	0	0	0	0	0	0	0	0	0	0	0	0	0	0	0	0	0	0	0	0	0	0	2717	1	1	0	0	2719	0	0	0	0	0	0	0	0	0	0	0	0	0	0	0	0	0	0	0	0	0	0	3216	9	1	0	0	3226	8	3	0	0	0	0	0	0	9	2	0	2	15	0	0.56		DAVID B. THORNTON - MANAGER	2053830321	2/11/2004	2/26/2004		
2003	20030169	"SPEARMAN GAS DEPT, CITY OF"	18568	30 SW COURT 	SPEARMAN 	HANSFORD	TX	79081						 TX	8	0	0	0	1	0	0	0	21	0	30	139	0	0	0	8	0	0	0	1825	0	1972	0	4	4	0	0	0	8	0	0	0	0	0	0	0	0	0	0	0	0	0	0	0	0	0	0	0	0	0	0	1	0	0	0	0	1	0	17	4	0	0	0	21	0	0	0	0	0	0	0	0	0	0	0	0	0	0	0	0	0	0	0	0	0	0	22	8	0	0	0	30	11	0	0	139	0	0	0	139	0	0	0	0	0	0	0	0	0	0	0	0	0	0	0	0	0	0	0	0	0	0	0	0	0	0	0	0	0	1825	8	0	0	0	1833	0	0	0	0	0	0	0	0	0	0	0	0	0	0	0	0	0	0	0	0	0	0	1825	147	0	0	0	1972	0	0	3	3	0	0	0	0	0	0	0	0	0	0	1.9149		DANNY C PARKER	8066592524	2/11/2004	2/26/2004		
2003	20030170	AMARILLO NATURAL GAS INC	383	4500 I-40 WEST BUILDING C	AMARILLO	POTTER	TX	79106						OK TX KS	0	0	0	59	48	0	0	0	0	0	107	0	0	0	100	0	0	0	0	0	0	100	0	10	49	0	0	0	59	0	0	0	0	0	0	0	0	0	0	0	0	0	0	0	0	0	0	0	0	0	0	0	0	0	0	0	0	0	7	41	0	0	0	48	0	0	0	0	0	0	0	0	0	0	0	0	0	0	0	0	0	0	0	0	0	0	17	90	0	0	0	107	50	0	0	99	1	0	0	100	0	0	0	0	0	0	0	0	0	0	0	0	0	0	0	0	0	0	0	0	0	0	0	0	0	0	0	0	0	0	0	0	0	0	0	0	0	0	0	0	0	0	0	0	0	0	0	0	0	0	0	0	0	0	0	0	0	0	99	1	0	0	100	0	0	0	0	0	1	0	0	0	0	0	0	0	0	1.5		SCOTT C. SMITH	8063525271	2/11/2004	2/26/2004		
2003	20030171	SHEFFIELD GAS DEPARTMENT	18252	221 N. COLUMBIA AVE	SHEFFIELD	COLBERT	AL	35660	300 N. NASHVILLE AVE	SHEFFIELD		AL	35660	AL	0	0	0	4	98	0	0	0	0	0	102	0	0	0	26	4768	0	0	0	0	0	4794	0	4	0	0	0	0	4	0	0	0	0	0	0	0	0	0	0	0	0	0	0	0	0	0	0	0	0	0	0	0	0	0	0	0	0	0	68	18	12	0	0	98	0	0	0	0	0	0	0	0	0	0	0	0	0	0	0	0	0	0	0	0	0	0	72	18	12	0	0	102	115	0	21	5	0	0	0	26	0	0	0	0	0	0	0	0	0	0	0	0	0	0	0	0	0	0	0	0	0	0	0	0	0	0	0	0	0	4759	5	3	1	0	4768	0	0	0	0	0	0	0	0	0	0	0	0	0	0	0	0	0	0	0	0	0	0	4780	10	3	1	0	4794	0	0	0	0	1	2	0	0	0	0	1	0	0	0	1		ALLEN HUGHES	2653892045	2/11/2004	2/26/2004		
2003	20030172	WINFIELD MUNICIPAL GAS	30515	115 N. LOCUST	WINFIELD	HENRY	IA	52659						 IA	0	0	0	12	1	0	0	0	0	0	13	0	0	0	496	0	0	0	0	0	0	496	0	10	1	1	0	0	12	0	0	0	0	0	0	0	0	0	0	0	0	0	0	0	1	0	0	0	0	1	0	0	0	0	0	0	0	0	0	0	0	0	0	0	0	0	0	0	0	0	0	0	0	0	0	0	0	0	0	0	0	0	0	0	0	0	11	1	1	0	0	13	102	0	438	48	2	0	0	488	0	0	0	0	0	0	0	0	0	0	0	0	0	0	0	0	0	0	0	0	0	0	8	0	0	0	0	8	0	0	0	0	0	0	0	0	0	0	0	0	0	0	0	0	0	0	0	0	0	0	0	0	0	0	0	0	0	446	48	2	0	0	496	0	0	0	0	0	0	0	0	0	0	0	0	0	0	0		JAN WALTER	3192576661	2/11/2004	2/26/2004		
2003	20030173	"PINNACLE GAS PRODUCERS, LLC"	31902	2240 AVENUE P	LYONS RICE		KS	67554						 AK	0	0	0	0	3	0	0	0	0	0	3	0	0	0	0	1	0	0	0	0	0	1	0	0	0	0	0	0	0	0	0	0	0	0	0	0	0	0	0	0	0	0	0	0	0	0	0	0	0	0	0	0	0	0	0	0	0	0	0	3	0	0	0	3	0	0	0	0	0	0	0	0	0	0	0	0	0	0	0	0	0	0	0	0	0	0	0	3	0	0	0	3	0	0	0	0	0	0	0	0	0	0	0	0	0	0	0	0	0	0	0	0	0	0	0	0	0	0	0	0	0	0	0	0	0	0	0	0	0	0	1	0	0	0	1	0	0	0	0	0	0	0	0	0	0	0	0	0	0	0	0	0	0	0	0	0	0	0	1	0	0	0	1	0	0	0	0	0	0	0	0	0	0	0	0	0	0	0		KENNY WIENS	6202572346	2/11/2004	2/26/2004		
2003	20030174	"RIPLEY GAS DEPT, TOWN OF"	17470	PO BOX 26 - 116 CHURCH	RIPLEY	LAUDERDALE	TN	38063						TN	0	0	0	209	4	0	0	0	0	0	213	0	0	65	5324	191	0	0	0	187	0	5767	0	147	59	3	0	0	209	0	0	0	0	0	0	0	0	0	0	0	0	0	0	0	0	0	0	0	0	0	0	0	0	0	0	0	0	0	4	0	0	0	0	4	0	0	0	0	0	0	0	0	0	0	0	0	0	0	0	0	0	0	0	0	0	0	151	59	3	0	0	213	75	0	5357	28	3	1	0	5389	0	0	0	0	0	0	0	0	0	0	0	0	0	0	0	0	0	0	0	0	0	0	0	0	0	0	0	0	0	191	0	0	0	0	191	0	0	0	0	0	0	0	0	187	0	0	0	0	187	0	0	0	0	0	0	0	0	5735	28	3	1	0	5767	2	1	0	3	1	3	0	0	1	2	1	28	2	0	0		PAM JACKSON	7316351212	2/11/2004	2/26/2004		
2003	20030175	GUYMON MUNICIPAL GAS CO	6960	219 N.W. 4TH STREET	GUYMON	TEXAS	OK	73942						OK	0	0	0	25	16	29	0	0	0	0	70	0	0	0	1227	1671	1257	0	0	0	0	4155	0	18	18	5	0	0	41	0	0	0	0	0	0	0	0	0	0	0	0	0	0	0	0	0	0	0	0	0	0	2	1	0	0	0	3	0	19	7	0	0	0	26	0	0	0	0	0	0	0	0	0	0	0	0	0	0	0	0	0	0	0	0	0	0	39	26	5	0	0	70	10	0	1656	1227	15	0	0	2898	0	0	0	0	0	0	0	0	0	0	0	0	0	0	0	0	0	0	0	0	0	0	0	0	0	0	0	0	0	1257	0	0	0	0	1257	0	0	0	0	0	0	0	0	0	0	0	0	0	0	0	0	0	0	0	0	0	0	2913	1227	15	0	0	4155	12	3	0	0	3	11	0	0	0	0	0	0	7	0	0		TRACY A. BOWENS-SUPERVISOR	5083385688	2/11/2004	2/26/2004		
2003	20030176	"PITTSBORO GAS CO, TOWN OF"	15616	P O BOX 185 80 N MERIDIAN	PITTSBORO	HENDRICKS	IN	46167						 IN	0	0	2	2	10	0	0	0	0	0	14	30	0	34	0	576	0	0	0	0	0	640	0	1	3	0	0	0	4	0	0	0	0	0	0	0	0	0	0	0	0	0	0	0	0	0	0	0	0	0	0	0	0	0	0	0	0	0	0	9	1	0	0	10	0	0	0	0	0	0	0	0	0	0	0	0	0	0	0	0	0	0	0	0	0	0	1	12	1	0	0	14	75	0	0	64	0	0	0	64	0	0	0	0	0	0	0	0	0	0	0	0	0	0	0	0	0	0	0	0	0	0	0	0	0	0	0	0	0	576	0	0	0	0	576	0	0	0	0	0	0	0	0	0	0	0	0	0	0	0	0	0	0	0	0	0	0	576	64	0	0	0	640	0	0	0	0	0	0	0	0	0	0	3	34	37	0	0.03	INSTALLATION OF NEW ODORANT.  CHANGING OF A NEW 6'' PLASTIC MAIN (JUST UNDER A MILE GAS WAS USED TO BURN OFF OLD ORDORANT WHEN ODORIZER SYSTEM WAS INSTALLED.	"PATRICIA MITCHELL, CLERK TREASURER"	3178923326	2/11/2004	2/26/2004		
2003	20030177	CASCADE MUNICIPAL UTIL	2124	P O BOX 400 320 1ST AVE W	CASCADE	DUBOQUE	IA	-208						 IA	0	0	0	12	4	0	0	0	0	0	16	0	0	0	412	429	0	0	0	0	0	841	0	9	3	0	0	0	12	0	0	0	0	0	0	0	0	0	0	0	0	0	0	0	0	0	0	0	0	0	0	0	0	0	0	0	0	0	3	1	0	0	0	4	0	0	0	0	0	0	0	0	0	0	0	0	0	0	0	0	0	0	0	0	0	0	12	4	0	0	0	16	86	0	392	20	0	0	0	412	0	0	0	0	0	0	0	0	0	0	0	0	0	0	0	0	0	0	0	0	0	0	0	0	0	0	0	0	0	427	2	0	0	0	429	0	0	0	0	0	0	0	0	0	0	0	0	0	0	0	0	0	0	0	0	0	0	819	22	0	0	0	841	1	0	0	0	0	0	0	0	0	3	0	4	0	0	0.009		SHERRIE RIES	5638523614	2/11/2004	2/26/2004		
2003	20030178	"STARKE NATURAL GAS DEPT, CITY OF"	18620	209 N THOMPSON STREET	STARKE	BRADFORD	FL	-2094						 FL	0	0	0	30	0	0	0	0	0	0	30	0	0	0	1266	69	0	0	0	0	0	1335	0	27	3	0	0	0	30	0	0	0	0	0	0	0	0	0	0	0	0	0	0	0	0	0	0	0	0	0	0	0	0	0	0	0	0	0	0	0	0	0	0	0	0	0	0	0	0	0	0	0	0	0	0	0	0	0	0	0	0	0	0	0	0	0	27	3	0	0	0	30	110	0	1246	20	0	0	0	1266	0	0	0	0	0	0	0	0	0	0	0	0	0	0	0	0	0	0	0	0	0	0	0	0	0	0	0	0	0	61	8	0	0	0	69	0	0	0	0	0	0	0	0	0	0	0	0	0	0	0	0	0	0	0	0	0	0	1307	28	0	0	0	1335	0	0	0	0	0	0	0	0	0	0	0	0	0	0	0.08		RICKY THOMPSON	9049642011	2/11/2004	2/26/2004		
2003	20030179	SUBURBAN PROPANE	18338	212 STATE ST	YREKA	SISKIYOU	CA	96097						CA	0	2	0	13	10	0	0	0	0	0	25	0	60	0	939	372	0	0	0	0	0	1371	0	12	2	1	0	0	15	0	0	0	0	0	0	0	0	0	0	0	0	0	0	0	0	0	0	0	0	0	0	0	0	0	0	0	0	0	5	3	2	0	0	10	0	0	0	0	0	0	0	0	0	0	0	0	0	0	0	0	0	0	0	0	0	0	17	5	3	0	0	25	55	0	943	56	0	0	0	999	0	0	0	0	0	0	0	0	0	0	0	0	0	0	0	0	0	0	0	0	0	0	0	0	0	0	0	0	0	301	71	0	0	0	372	0	0	0	0	0	0	0	0	0	0	0	0	0	0	0	0	0	0	0	0	0	0	1244	127	0	0	0	1371	0	0	0	1	0	1	0	0	0	0	0	0	0	0	0.022		TOBY ROBINSON	5308423575	2/11/2004	2/26/2004		
2003	20030180	"HAWARDEN GAS DEPT, CITY OF"	7165	700 7TH STREET PO BOX 231	HAWARDEN	SIOUX	IA	51023						IA	0	0	0	22	4	0	0	0	0	0	26	0	0	0	1062	136	0	0	0	0	0	1198	0	17	4	1	0	0	22	0	0	0	0	0	0	0	0	0	0	0	0	0	0	0	0	0	0	0	0	0	0	0	0	0	0	0	0	0	3	1	0	0	0	4	0	0	0	0	0	0	0	0	0	0	0	0	0	0	0	0	0	0	0	0	0	0	20	5	1	0	0	26	0	0	58	997	7	0	0	1062	0	0	0	0	0	0	0	0	0	0	0	0	0	0	0	0	0	0	0	0	0	0	0	0	0	0	0	0	0	136	0	0	0	0	136	0	0	0	0	0	0	0	0	0	0	0	0	0	0	0	0	0	0	0	0	0	0	194	997	7	0	0	1198	0	0	0	0	0	0	0	0	0	0	0	0	0	0	2		TOM KANE	7125512565	2/11/2004	2/26/2004		
2003	20030181	"BROOKSVILLE UTILITIES, TOWN OF"	1816	101 FRANKFORT ST	BROOKSVILLE	BRACKEN	KY	41004						KY	0	0	0	8	62	0	0	0	0	0	70	0	0	0	359	369	0	0	0	0	0	728	0	3	5	0	0	0	8	0	0	0	0	0	0	0	0	0	0	0	0	0	0	0	0	0	0	0	0	0	0	1	2	0	0	0	3	0	21	38	0	0	0	59	0	0	0	0	0	0	0	0	0	0	0	0	0	0	0	0	0	0	0	0	0	0	25	45	0	0	0	70	30	0	350	10	0	0	0	360	0	0	0	0	0	0	0	0	0	0	0	0	0	0	0	0	0	0	0	0	0	0	20	1	0	0	0	21	0	344	3	0	0	0	347	0	0	0	0	0	0	0	0	0	0	0	0	0	0	0	0	0	0	0	0	0	0	714	14	0	0	0	728	1	5	0	0	0	0	0	0	0	0	0	0	2	0	0.0297		EDDIE MOFFORD	6067352501	2/6/2004	2/26/2004		
2003	20030182	MT CARMEL PUBLIC UTILITY CO	12858	410 SOUTH MULBERRY STREET	MOUNT CARMEL	WABASH	IL	62863	316 MARKET STREET	MOUNT CARMEL		IL	62863	IL	0	0	1	101	0	1	0	0	0	0	103	0	0	215	3895	225	0	0	0	0	0	4335	0	47	33	22	0	0	102	0	0	0	0	0	0	0	0	0	0	0	0	0	0	0	0	0	1	0	0	1	0	0	0	0	0	0	0	0	0	0	0	0	0	0	0	0	0	0	0	0	0	0	0	0	0	0	0	0	0	0	0	0	0	0	0	0	47	33	23	0	0	103	112	215	0	0	0	0	0	215	0	0	0	0	0	0	0	0	0	0	0	0	0	0	0	0	0	0	0	0	0	0	0	0	0	0	0	0	0	225	0	0	0	0	225	0	0	0	0	0	0	0	3895	0	0	0	0	0	3895	0	0	0	0	0	0	0	4110	225	0	0	0	0	4335	1	0	0	0	0	3	0	0	0	0	0	0	4	0	0.94		WM R STROCKBINE	6182625151	2/11/2004	2/26/2004		
2003	20030183	"UNIONTOWN GAS DEPT, CITY OF"	20180	206 SHERMAN ST	UNIONTOWN	BOURBON	KS	66779						KS	0	0	0	9	2	0	0	0	0	0	11	0	0	0	162	31	0	0	0	0	0	193	0	3	6	0	0	0	9	0	0	0	0	0	0	0	0	0	0	0	0	0	0	0	0	0	0	0	0	0	0	2	0	0	0	0	2	0	0	0	0	0	0	0	0	0	0	0	0	0	0	0	0	0	0	0	0	0	0	0	0	0	0	0	0	0	5	6	0	0	0	11	10	0	0	162	0	0	0	162	0	0	0	0	0	0	0	0	0	0	0	0	0	0	0	0	0	0	0	0	0	0	0	0	0	0	0	0	0	0	31	0	0	0	31	0	0	0	0	0	0	0	0	0	0	0	0	0	0	0	0	0	0	0	0	0	0	0	193	0	0	0	193	0	0	0	0	0	0	0	0	0	0	5	0	0	0	0		"LINDA E GIER, CITY CLERK"	6207564742	2/11/2004	2/26/2004		
2003	20030184	FLORIDA PUBLIC UTILITIES CO	5330	450 S HWY 17-92	DE BARY	VOLUSIA	FL	32713	PO BOX 3395	WEST PALM BEACH 	PALM BEACH	FL	-2404	 FL	27	0	0	278	197	0	0	0	0	0	502	685	0	0	7614	11014	0	0	0	0	0	19313	0	206	37	62	0	0	305	0	0	0	0	0	0	0	0	0	0	0	0	0	0	0	0	0	0	0	0	0	0	0	0	0	0	0	0	0	151	46	0	0	0	197	0	0	0	0	0	0	0	0	0	0	0	0	0	0	0	0	0	0	0	0	0	0	357	83	62	0	0	502	65	0	8292	3	4	0	0	8299	0	0	0	0	0	0	0	0	0	0	0	0	0	0	0	0	0	0	0	0	0	0	0	0	0	0	0	0	0	10622	385	7	0	0	11014	0	0	0	0	0	0	0	0	0	0	0	0	0	0	0	0	0	0	0	0	0	0	18914	388	11	0	0	19313	13	95	0	4	21	84	0	3	0	10	20	117	50	0	0	CENTRAL FLORIDA DIVISION	DONALD E KITNER	3866682600	2/11/2004	2/26/2004		
2003	20030185	FLORIDA PUBLIC UTILITIES CO	5330	401 SOUTH DIXIE HIGHWAY	WEST PALM BEACH	PALM BEACH	FL	33402	PO BOX 3395	WEST PALM BEACH 	PALM BEACH	FL	33402	 FL	176	0	22	449	299	5	0	0	0	0	951	6735	0	1997	7750	19910	0	0	0	0	0	36392	0	335	118	185	2	7	647	0	0	0	0	0	0	0	0	0	0	0	0	0	0	0	2	3	0	0	0	5	0	0	0	0	0	0	0	0	216	82	1	0	0	299	0	0	0	0	0	0	0	0	0	0	0	0	0	0	0	0	0	0	0	0	0	0	553	203	186	2	7	951	65	0	15918	547	13	4	0	16482	0	0	0	0	0	0	0	0	0	0	0	0	0	0	0	0	0	0	0	0	0	0	0	0	0	0	0	0	0	18474	1422	14	0	0	19910	0	0	0	0	0	0	0	0	0	0	0	0	0	0	0	0	0	0	0	0	0	0	34392	1969	27	4	0	36392	33	86	0	0	74	147	4	6	0	13	21	162	6	0	0	SOUTH FLORIDA DIVISION	KEVIN JOYCE	5618381803	2/11/2004	2/26/2004		
2003	20030186	"MAMOU, TOWN OF"	26310	101-B CHESTNUT STREET	MAMOU	EVANGELINE	LA	70554	625 SIXTH STREET	MAMOU	EVANGELINE	LA	70554	LA	0	0	0	17	67	0	0	0	0	0	84	0	0	0	120	1142	0	0	0	0	0	1262	0	5	12	0	0	0	17	0	0	0	0	0	0	0	0	0	0	0	0	0	0	0	0	0	0	0	0	0	0	0	0	0	0	0	0	0	65	2	0	0	0	67	0	0	0	0	0	0	0	0	0	0	0	0	0	0	0	0	0	0	0	0	0	0	70	14	0	0	0	84	30	0	0	124	0	0	0	124	0	0	0	0	0	0	0	0	0	0	0	0	0	0	0	0	0	0	0	0	0	0	1130	0	0	0	0	1130	0	0	0	8	0	0	8	0	0	0	0	0	0	0	0	0	0	0	0	0	0	0	0	0	0	0	0	0	0	1130	124	8	0	0	1262	5	0	4	6	7	4	5	0	6	0	0	0	0	0	2.8		SPENCER LONG	3174687141	2/11/2004	2/26/2004		
2003	20030187	"RED BUD UTILITIES, CITY OF"	17160	525 POWER ST	RED BUD	RANDOLPH	IL	62278	200 E MARKET ST	RED BUD		IL	62278	 IL	0	0	0	14	27	0	5	0	0	0	46	0	0	0	3	1567	0	0	0	0	0	1570	0	0	2	12	0	0	14	0	0	5	0	0	0	5	0	0	0	0	0	0	0	0	0	0	0	0	0	0	0	0	0	0	0	0	0	0	18	8	1	0	0	27	0	0	0	0	0	0	0	0	0	0	0	0	0	0	0	0	0	0	0	0	0	0	18	15	13	0	0	46	75	0	0	3	0	0	0	3	0	0	0	0	0	0	0	0	0	0	0	0	0	0	0	0	0	0	0	0	0	0	0	0	0	0	0	0	0	1550	14	3	0	0	1567	0	0	0	0	0	0	0	0	0	0	0	0	0	0	0	0	0	0	0	0	0	0	1550	17	3	0	0	1570	1	0	0	0	1	0	0	0	0	0	0	0	0	0	1		KENNY LANGREHR	6182823339	2/11/2004	2/26/2004		
2003	20030188	"COOKEVILLE GAS DEPT, CITY OF"	2764	16 N OAK STREET	COOKEVILLE	PUTNAM	TN	38501						 TN	0	0	0	278	11	1	0	0	0	0	290	0	0	0	5653	3525	0	0	0	0	0	9178	0	181	55	42	0	0	278	0	0	0	0	0	0		0	0	0	0	0	0		0	0	0	1	0	0	1	0	0	0	0	0	0		0	11	0	0	0	0	11	0	0	0	0	0	0		0	0	0	0	0	0		0	0	0	0	0	0	0	0	192	55	43	0	0	290	100	0	5587	56	9	1	0	5653	0	0	0	0	0	0		0	0	0	0	0	0		0	0	0	0	0	0		0	0	0	0	0	0		0	3512	13	0	0	0	3525	0	0	0	0	0	0		0	0	0	0	0	0		0	0	0	0	0	0		0	9099	69	9	1	0	9178	3	1	1	6	3	47	2	6	0	1	0	0	0	0	2		JAMES A DANIEL	9315204427	2/12/2004	2/26/2004		
2003	20030189	UNICOI COUNTY MUNICIPAL UTILITY AUTH	20030	1414 NORTH MAIN AVENUE	ERWIN	UNICOI	TN	-768						 TN	0	0	55	81	0	0	0	0	0	0	136	0	0	999	3097	0	0	0	0	0	0	4096	0	37	7	11	0	0	55	0	0	0	0	0	0	0	0	0	0	0	0	0	0	0	0	0	0	0	0	0	0	0	0	0	0	0	0	0	66	15	0	0	0	81	0	0	0	0	0	0	0	0	0	0	0	0	0	0	0	0	0	0	0	0	0	0	103	22	11	0	0	136	113	0	991	4	4	0	0	999	0	0	0	0	0	0	0	0	0	0	0	0	0	0	0	0	0	0	0	0	0	0	0	0	0	0	0	0	0	3081	16	0	0	0	3097	0	0	0	0	0	0	0	0	0	0	0	0	0	0	0	0	0	0	0	0	0	0	4072	20	4	0	0	4096	2	1	0	0	4	13	0	4	0	1	0	0	3	0	0		HARLEY STANCIL	4237436793	2/12/2004	2/26/2004		
2003	20030190	LAURINGBURG HOUSING AUTH	11266	1300 WOODLAWN ST	LAURINBURG	SCOTLAND	NC	28352						 NC	0	0	0	4	0	0	0	0	0	0	4	0	0	0	320	0	0	0	0	0	0	320	0	4	0	0	0	0	4	0	0	0	0	0	0	0	0	0	0	0	0	0	0	0	0	0	0	0	0	0	0	0	0	0	0	0	0	0	0	0	0	0	0	0	0	0	0	0	0	0	0	0	0	0	0	0	0	0	0	0	0	0	0	0	0	0	4	0	0	0	0	4	0	0	0	320	0	0	0	320	0	0	0	0	0	0	0	0	0	0	0	0	0	0	0	0	0	0	0	0	0	0	0	0	0	0	0	0	0	0	0	0	0	0	0	0	0	0	0	0	0	0	0	0	0	0	0	0	0	0	0	0	0	0	0	0	0	0	320	0	0	0	320	0	0	0	0	0	0	0	0	6	0	9	0	0	0	1	ALL LEAKS DETECTED WERE CLASS III LEAKS AND CORRECTED.	DEWEY HARDEE	9102770701	2/12/2004	2/26/2004		
2003	20030191	PEOPLES GAS SYSTEM INC	15348	P. O. BOX 2562	TAMPA	HILLSBOROUGH	FL	33601	P.O. BOX 2562	TAMPA	HILLSBOROUGH	FL	33601-2562	FL	443	11	33	4213	4479	199	0	0	0	0	9378	15933	2419	3309	80983	195507	0	0	0	0	0	298151	0	2278	1150	1194	73	5	4700	0	0	0	0	0	0	0	0	0	0	0	0	0	0	0	1	140	37	13	8	199	0	0	0	0	0	0	0	0	3272	939	288	0	0	4499	0	0	0	0	0	0	0	0	0	0	0	0	0	0	0	0	0	0	0	0	0	0	5551	2229	1499	86	13	9378	76	59852	29137	12576	700	36	4	102305	0	0	0	0	0	0	0	0	0	0	0	0	0	0	0	0	0	0	0	0	0	0	0	0	0	0	0	0	0	181138	14496	196	6	0	195836	0	0	0	0	0	0	0	0	0	0	0	0	0	0	0	0	0	0	0	0	0	59852	210275	27072	896	42	4	298141	153	230	51	77	479	1428	49	182	93	216	40	85	101	6	0		TODD W. WEIDLEY	8132281564	2/11/2004	2/26/2004		
2003	20030192	PEOPLES GAS SYSTEM INC	15348	1722 RIDGEWOOD AVENUE	HOLLY HILL		FL	32117	P.O. BOX 2562	TAMPA	HILLSBOROUGH	FL	33601-2562	FL	13	0	1	133	126	7	0	0	0	0	280	570	0	37	1558	6009	0	0	0	0	0	8174	0	61	45	41	0	0	147	0	0	0	0	0	0	0	0	0	0	0	0	0	0	0	0	6	1	0	0	7	0	0	0	0	0	0	0	0	111	15	0	0	0	126	0	0	0	0	0	0	0	0	0	0	0	0	0	0	0	0	0	0	0	0	0	0	172	66	42	0	0	280	90	0	1539	616	9	1	0	2165	0	0	0	0	0	0	0	0	0	0	0	0	0	0	0	0	0	0	0	0	0	0	0	0	0	0	0	0	0	5625	384	0	0	0	6009	0	0	0	0	0	0	0	0	0	0	0	0	0	0	0	0	0	0	0	0	0	0	7164	1000	9	1	0	8174	0	7	4	6	11	39	2	11	5	25	0	7	6	0	0.88	NUMBER OF BELL JOINT CLAMPS REPAIRED-2  NUMBER OF MECHANICAL JOINTS REPAIRED-0  NUMBER OF ABOVE GROUND LEAKS-48  NUMBER OF ATOMASPHERIC CORROISON LEAKS-6	HEATH M. MCARDLE	3522673580	2/11/2004	2/26/2004		
2003	20030193	PEOPLES GAS SYSTEM INC	15348	1724 KURT STREET	EUSTIS		FL	32726	P. O. BOX 2562	TAMPA	HILLSBOROUGH	FL	336012562	FL	20	0	17	78	83	0	0	0	0	0	198	688	0	72	1039	4216	0	0	0	0	0	6015	0	67	38	10	0	0	115	0	0	0	0	0	0	0	0	0	0	0	0	0	0	0	0	0	0	0	0	0	0	0	0	0	0	0	0	0	67	9	7	0	0	83	0	0	0	0	0	0	0	0	0	0	0	0	0	0	0	0	0	0	0	0	0	0	134	47	17	0	0	198	75	0	1765	26	7	1	0	1799	0	0	0	0	0	0	0	0	0	0	0	0	0	0	0	0	0	0	0	0	0	0	0	0	0	0	0	0	0	4023	193	0	0	0	4216	0	0	0	0	0	0	0	0	0	0	0	0	0	0	0	0	0	0	0	0	0	0	5788	219	7	1	0	6015	3	4	1	0	6	31	1	0	1	4	0	27	0	0		UNACCOUNTED FOR GAS -0.51  NUMBER OF BELL JOINTS CLAMPS REPAIRED-0  NUMBER OF MECHANICAL JOINTS REPAIRED-0   NUMBER OF ABOVE GROUND LEAKS-34  NUMBER OF ATOMOSPHERIC CORROSION LEAKS-0	HEATH M. MCARDLE	3522673580	2/11/2004	2/26/2004		
2003	20030194	PEOPLES GAS SYSTEM INC	15348	1400 CHANNELSIDE	TAMPA	HILLSBOROUGH	FL	33605	P. O. BOX 2562	TAMPA		FL	33601-2562	FL	84	0	4	583	716	61	0	0	0	0	1448	4255	0	0	8512	34344	0	0	0	0	0	47111	0	288	157	222	4	0	671	0	0	0	0	0	0	0	0	0	0	0	0	0	0	0	0	48	5	4	4	61	0	0	0	0	0	0	0	0	549	136	31	0	0	716	0	0	0	0	0	0	0	0	0	0	0	0	0	0	0	0	0	0	0	0	0	0	837	341	258	8	4	1448	42	748	5295	6607	107	10	0	12767	0	0	0	0	0	0	0	0	0	0	0	0	0	0	0	0	0	0	0	0	0	0	0	0	0	0	0	0	0	33079	1194	69	2	0	34344	0	0	0	0	0	0	0	0	0	0	0	0	0	0	0	0	0	0	0	0	0	748	38374	7801	176	12	0	47111	24	47	10	4	83	177	13	14	17	17	0	0	4	0	0.13	BELL JOINTS-129  MECHANICAL JOINTS-8	WILLIAM BLUME	8132753761	2/11/2004	2/26/2004		
2003	20030195	PEOPLES GAS SYSTEM INC	15348	13179 SPRINGHILL DRIVE	SPRINGHILL	HERANDO	FL	34609	P. O. BOX 2562	TAMPA	HILLSBOROUGH	FL	33601-2562	FL	0	0	0	59	20	0	0	0	0	0	79	0	0	0	81	595	0	0	0	0	0	676	0	4	30	25	0	0	59	0	0	0	0	0	0	0	0	0	0	0	0	0	0	0	0	0	0	0	0	0	0	0	0	0	0	0	0	0	0	13	7	0	0	20	0	0	0	0	0	0	0	0	0	0	0	0	0	0	0	0	0	0	0	0	0	0	4	43	32	0	0	79	100	0	63	18	0	0	0	81	0	0	0	0	0	0	0	0	0	0	0	0	0	0	0	0	0	0	0	0	0	0	0	0	0	0	0	0	0	488	107	0	0	0	595	0	0	0	0	0	0	0	0	0	0	0	0	0	0	0	0	0	0	0	0	0	0	551	125	0	0	0	676	0	2	0	0	2	3	0	0	0	1	0	0	0	0	1.48		PANSY REED	8132753729	2/11/2004	2/26/2004		
2003	20030196	PEOPLES GAS SYSTEM INC	15348	1800 9TH AVENUE NORTH	ST. PETERSBURG 		FL	33713	P. O. BOX 2562	TAMPA	HILLSBOROUGH	FL	33601-2562	FL	145	0	0	293	257	38	0	0	0	0	733	3293	0	0	1880	17555	0	0	0	0	0	22728	0	302	68	59	9	0	438	0	0	0	0	0	0	0	0	0	0	0	0	0	0	0	0	27	4	4	3	38	0	0	0	0	0	0	0	0	181	51	25	0	0	257	0	0	0	0	0	0	0	0	0	0	0	0	0	0	0	0	0	0	0	0	0	0	483	146	88	13	3	733	68	3293	782	1077	20	1	0	5173	0	0	0	0	0	0	0	0	0	0	0	0	0	0	0	0	0	0	0	0	0	0	0	0	0	0	0	0	0	14283	3258	14	0	0	17555	0	0	0	0	0	0	0	0	0	0	0	0	0	0	0	0	0	0	0	0	0	3293	15065	4335	34	1	0	22728	22	20	12	16	47	165	4	3	5	9	9	11	0	0	1.48	BELL JOINT LEAKS-12  MECHANICAL JOINT-4	PANSY REED	8132753729	2/11/2004	2/26/2004		
2003	20030197	TECO PEOPLES GAS LP OPERATIONS	31358	316 SW 33 RD AVENUE	OCALA	MARION	FL	34474	P.O. BOX 2562	TAMPA	HILLSBOROUGH	FL	33601	 FL	4	0	4	173	448	0	0	0	0	0	629	20	0	42	3146	23675	0	0	0	0	0	26883	0	121	16	38	6	0	181	0	0	0	0	0	0		0	0	0	0	0	0		0	0	0	0	0	0		0	0	0	0	0	0		0	347	56	45	0	0	448	0	0	0	0	0	0		0	0	0	0	0	0		0	0	0	0	0	0	0	0	468	72	83	6	0	629	125	0	3000	208	0	0	0	3208	0	0	0	0	0	0		0	0	0	0	0	0		0	0	0	0	0	0		0	0	0	0	0	0		0	23267	389	16	3	0	23675	0	0	0	0	0	0		0	0	0	0	0	0		0	0	0	0	0	0		0	26267	597	16	3	0	26883	0	4	1	1	39	83	2	0	0	0	0	0	0	0	1.54	"CONSTRUCTION DEFECTS FROM PART ""C""= METER FITTING LEAKS VILLAGES 159 & OCALA 106...TOTAL=265  OTHER FROM PART ""C""= METER/REGULATOR VILLAGES 32 OCALA 37...TOTAL=69"	RICHARD JACOBS	3524837232	2/11/2004	2/26/2004		
2003	20030198	PEOPLES GAS SYSTEM INC	15348	301 MAPLE AVENUE	PANAMA CITY		FL	32401	P. O. BOX 2562	TAMPA	HILLSBOROUGH	FL	33601	FL	0	0	0	196	400	0	0	0	0	0	596	0	0	0	5868	17633	0	0	0	0	0	23501	0	115	49	32	0	0	196	0	0	0	0	0	0	0	0	0	0	0	0	0	0	0	0	0	0	0	0	0	0	0	0	0	0	0	0	0	345	35	20	0	0	400	0	0	0	0	0	0	0	0	0	0	0	0	0	0	0	0	0	0	0	0	0	0	460	84	52	0	0	596	100	0	5736	129	0	3	0	5868	0	0	0	0	0	0	0	0	0	0	0	0	0	0	0	0	0	0	0	0	0	0	0	0	0	0	0	0	0	17215	413	5	0	0	17633	0	0	0	0	0	0	0	0	0	0	0	0	0	0	0	0	0	0	0	0	0	0	22951	542	5	3	0	23501	0	0	0	0	22	86	1	1	3	13	1	1	0	0	1.59	248 ABOVE-GROUND LEAKS FOUND AT METER-SETS. ALL HAVE BEEN REPAIRED.	PAUL DANIELS	8509146143	2/11/2004	2/26/2004		
2003	20030199	TECO PEOPLES GAS LP OPERATIONS	31358	1085 W. MAIN ST.	AVON PARK		FL	33825	P.O. BOX 2562	TAMPA		FL	-3605	 FL	0	0	0	32	33	0	0	0	0	0	65	0	0	0	239	488	0	0	0	0	0	727	0	4	17	11	0	0	32	0	0	0	0	0	0	0	0	0	0	0	0	0	0	0	0	0	0	0	0	0	0	0	0	0	0	0	0	0	16	17	0	0	0	33	0	0	0	0	0	0	0	0	0	0	0	0	0	0	0	0	0	0	0	0	0	0	20	34	11	0	0	65	91	0	228	5	6	0	0	239	0	0	0	0	0	0		0	0	0	0	0	0		0	0	0	0	0	0		0	0	0	0	0	0		0	454	34	0	0	0	488	0	0	0	0	0	0		0	0	0	0	0	0		0	0	0	0	0	0		0	682	39	6	0	0	727	0	0	0	0	1	5	0	0	0	0	0	0	0	0	0	5-ABOVE GROUND LEAKS  0-ATMOSPHERIC CORROSION LEAK	FRANK WALKUP	8634522252	2/11/2004	2/26/2004		
2003	20030200	PEOPLES GAS SYSTEM INC	15348	15779 W DIXIE HWY	NORTH MIAMI BEACH	DADE	FL	33601	P. O. BOX 2562	TAMPA	HILLSBOROUGH	FL	33601	FL	11	11	6	1120	214	8	0	0	0	0	1370	0	2419	0	46922	11081	0	0	0	0	0	60422	0	765	208	151	19	5	1148	0	0	0	0	0	0	0	0	0	0	0	0	0	0	0	1	1	6	0	0	8	0	0	0	0	0	0	0	0	107	78	29	0	0	214	0	0	0	0	0	0	0	0	0	0	0	0	0	0	0	0	0	0	0	0	0	0	873	287	186	19	5	1370	83	46917	2238	155	27	4	0	49341	0	0	0	0	0	0	0	0	0	0	0	0	0	0	0	0	0	0	0	0	0	0	0	0	0	0	0	0	0	10145	895	40	1	0	11081	0	0	0	0	0	0	0	0	0	0	0	0	0	0	0	0	0	0	0	0	0	46917	12383	1050	67	5	0	60422	54	75	1	3	47	199	0	4	12	21	2	1	52	0		UNACCOUNTED FOR GAS -2.09  2 LEAKS ON CAST IRON MAIN NBELL & SIGOT  167 ABOVE GROUND LEAKS ON MAINS AND SERVICES	LEO DOS REMEDIOS	9544530794	2/11/2004	2/26/2004		
2003	20030201	PEOPLES GAS SYSTEM INC	15348	60 NW 17 ST	MIAMI	DADE	FL	33136	P.O. BOX 2562	TAMPA 		FL	336012562	FL	14	0	0	85	93	36	0	0	0	0	228	2547	0	168	2151	2280	0	0	0	0	0	7146	0	55	26	13	5	0	99	0	0	0	0	0	0	0	0	0	0	0	0	0	0	0	0	15	18	2	1	36	0	0	0	0	0	0	0	0	63	28	2	0	0	93	0	0	0	0	0	0	0	0	0	0	0	0	0	0	0	0	0	0	0	0	0	0	118	69	33	7	1	228	78	0	1993	2597	276	0	0	4866	0	0	0	0	0	0	0	0	0	0	0	0	0	0	0	0	0	0	0	0	0	0	0	0	0	0	0	0	0	1498	762	20	0	0	2280	0	0	0	0	0	0	0	0	0	0	0	0	0	0	0	0	0	0	0	0	0	0	3491	3359	296	0	0	7146	2	21	4	7	16	63	1	2	6	1	1	2	5	0	0	34 ABOVE GROUND LEAKS ON MAINS ANDSERVICES.	LEO DOS REMEDIOS	9544530794	2/11/2004	2/26/2004		
2003	20030202	PEOPLES GAS SYSTEM INC	15348	8261 VICO COURT	SARASOTA	SARASOTA	FL	34240	P.O. BOX 2562	TAMPA 		FL	33601-2562	FL	51	0	0	171	690	0	0	0	0	0	912	805	0	0	1153	17975	0	0	0	0	0	19933	0	47	45	125	5	0	222	0	0	0	0	0	0	0	0	0	0	0	0	0	0	0	0	0	0	0	0	0	0	0	0	0	0	0	0	0	430	231	29	0	0	690	0	0	0	0	0	0	0	0	0	0	0	0	0	0	0	0	0	0	0	0	0	0	477	276	154	5	0	912	78	0	1827	120	8	2	1	1958	0	0	0	0	0	0	0	0	0	0	0	0	0	0	0	0	0	0	0	0	0	0	0	0	0	0	0	0	0	17373	600	2	0	0	17975	0	0	0	0	0	0	0	0	0	0	0	0	0	0	0	0	0	0	0	0	0	0	19200	720	10	2	1	19933	14	24	4	5	45	127	4	6	11	11	11	16	0	0	0.19	93 ABOVE GROUND LEAKS@METER SETS AND ABOVE GROUND CROSSING	LEO DOS REMEDIOS	9544530794	2/11/2004	2/26/2004		
2003	20030203	PEOPLES GAS SYSTEM INC	15348	1363 JUPITER PARKER DRIVE	JUPITER	PALM BEACH	FL	33458	P.O. BOX 2562	TAMPA 		FL	33601-2562	FL	0	0	0	20	223	0	0	0	0	0	243	0	0	0	26	7819	0	0	0	0	0	7845	0	3	6	11	0	0	20	0	0	0	0	0	0	0	0	0	0	0	0	0	0	0	0	0	0	0	0	0	0	0	0	0	0	0	0	0	166	56	1	0	0	223	0	0	0	0	0	0	0	0	0	0	0	0	0	0	0	0	0	0	0	0	0	0	169	62	12	0	0	243	37	0	11	15	0	0	0	26	0	0	0	0	0	0	0	0	0	0	0	0	0	0	0	0	0	0	0	0	0	0	0	0	0	0	0	0	0	7713	103	3	0	0	7819	0	0	0	0	0	0	0	0	0	0	0	0	0	0	0	0	0	0	0	0	0	0	7724	118	3	0	0	7845	0	0	1	0	23	56	2	4	0	1	0	0	0	0	1.05	10 ABOVE GROUND LEAKS ON SERVICES.	LEO DOS REMEDIOS	9544530794	2/11/2004	2/26/2004		
2003	20030204	PEOPLES GAS SYSTEM INC	15348	5901 ENTERPRISE PARKWAY	FORT MYERS 	LEE	FL	33905	P.O. BOX 2562	TAMPA 		FL	33601-2562	FL	0	0	0	170	215	0	0	0	0	0	385	0	0	0	5	4533	0	0	0	0	0	4538	0	1	25	144	0	0	170	0	0	0	0	0	0	0	0	0	0	0	0	0	0	0	0	0	0	0	0	0	0	0	0	0	0	0	0	0	67	78	70	0	0	215	0	0	0	0	0	0	0	0	0	0	0	0	0	0	0	0	0	0	0	0	0	0	68	103	214	0	0	385	178	0	0	5	0	0	0	5	0	0	0	0	0	0	0	0	0	0	0	0	0	0	0	0	0	0	0	0	0	0	0	0	0	0	0	0	0	3266	1253	14	0	0	4533	0	0	0	0	0	0	0	0	0	0	0	0	0	0	0	0	0	0	0	0	0	0	3266	1258	14	0	0	4538	0	0	3	0	14	19	1	2	1	2	0	0	0	0	0.19	74 ABOVE GROUND LEAKS ON SERVICES AND MAIN.	LEO DOS REMEDIOS	9544530794	2/11/2004	2/26/2004		
2003	20030205	PEOPLES GAS SYSTEM INC	15348	4040 PHILIPS HIGHWAY	JACKSONVILLE	DUVAL	FL	32207	P.O. BOX 2562	TAMPA 		FL	33601-2562	FL	15	0	0	392	426	0	0	0	0	0	833	0	0	2732	1320	15738	0	0	0	0	0	19790	0	93	122	167	25	0	407	0	0	0	0	0	0	0	0	0	0	0	0	0	0	0	0	0	0	0	0	0	0	0	0	0	0	0	0	0	329	95	2	0	0	426	0	0	0	0	0	0	0	0	0	0	0	0	0	0	0	0	0	0	0	0	0	0	422	217	169	25	0	833	75	0	3523	356	163	7	3	4052	0	0	0	0	0	0	0	0	0	0	0	0	0	0	0	0	0	0	0	0	0	0	0	0	0	0	0	0	0	15069	656	13	0	0	15738	0	0	0	0	0	0	0	0	0	0	0	0	0	0	0	0	0	0	0	0	0	0	18592	1012	176	7	3	19790	3	12	0	9	92	314	14	113	12	64	0	1	7	6	2.33	"PART C INCLUDES: 186 LEAKS ON ABOVEGROUND PIPES, SERVICE RISERS, AND METER SETS.  "	C.J. BARRINGTON	9044437368	2/11/2004	2/26/2004		
2003	20030206	TECO PEOPLES GAS LP OPERATIONS	31358	445 KATHLEEN ROAD	LAKELAND	POLK	FL	33815	P.O. BOX 2562	TAMPA		FL	-3605	 FL	11	0	1	98	95	44	0	0	0	0	249	499	0	258	504	4332	0	0	0	0	0	5593	0	37	44	29	0	0	110	0	0	0	0	0	0	0	0	0	0	0	0	0	0	0	0	39	3	2	0	44	0	0	0	0	0	0	0	0	82	13	0	0	0	95	0	0	0	0	0	0	0	0	0	0	0	0	0	0	0	0	0	0	0	0	0	0	119	96	32	2	0	249	100	0	706	552	1	2	0	1261	0	0	0	0	0	0	0	0	0	0	0	0	0	0	0	0	0	0	0	0	0	0	0	0	0	0	0	0	0	3509	823	0	0	0	4332	0	0	0	0	0	0	0	0	0	0	0	0	0	0	0	0	0	0	0	0	0	0	4215	1375	1	2	0	5593	21	7	2	5	10	13	1	0	0	0	12	9	27	0	0	"157=ABOVE GROUND LEAKS ON METER SETS, REGULATORS, VALUES AND RISERS.  14=BELL JOINT LEAKS.  0= ATOMSPHERIC LEAKS."	FRANK WALKUP	8634522252	2/11/2004	2/26/2004		
2003	20030207	PEOPLES GAS SYSTEM INC	15348	600 WEST ROBINSON STREET	ORLANDO	ORANGE	FL	32801	P.O. BOX 2562	TAMPA 		FL	33601-2562	FL	79	0	0	610	440	5	0	0	0	0	1134	3256	0	0	6579	27224	0	0	0	0	0	37059	0	317	256	116	0	0	689	0	0	0	0	0	0	0	0	0	0	0	0	0	0	0	0	4	0	1	0	5	0	0	0	0	0	0	0	0	412	28	0	0	0	440	0	0	0	0	0	0	0	0	0	0	0	0	0	0	0	0	0	0	0	0	0	0	729	288	116	1	0	1134	65	8894	431	90	76	5	0	9496	0	0	0	0	0	0	0	0	0	0	0	0	0	0	0	0	0	0	0	0	0	0	0	0	0	0	0	0	0	24131	3432	0	0	0	27563	0	0	0	0	0	0	0	0	0	0	0	0	0	0	0	0	0	0	0	0	0	8894	24562	3522	76	5	0	37059	10	7	8	21	21	48	3	22	20	47	4	10	0	0		UNACCOUNTED FOR GAS -2.09%  NUMBER OF BELL JOINTS REPAIRED-1  NUMBER OF MECHANICAL JOINTS REPAIRED-3  NUMBER OF ABOVE GROUND LEAKS-516  NUMBER OF ATMOSPHERIC CORROSION LEAKS-23	ANGELA PRESTON	4074206609	2/11/2004	2/27/2004		
2003	20030208	DOUGLAS PIPELINE CO	31442	400 SOUTHPOINTE BLVD	CANONSBURG	WASHINGTON	PA	15317				PA	-5318	SC	0	0	0	4	0	0	0	0	0	0	4	0	0	0	0	0	0	0	0	0	0	0	0	0	0	4	0	0	4	0	0	0	0	0	0	0	0	0	0	0	0	0	0	0	0	0	0	0	0	0	0	0	0	0	0	0	0	0	0	0	0	0	0	0	0	0	0	0	0	0	0	0	0	0	0	0	0	0	0	0	0	0	0	0	0	0	0	0	4	0	0	4	19000	0	0	0	0	0	0	0	0	0	0	0	0	0	0	0	0	0	0	0	0	0	0	0	0	0	0	0	0	0	0	0	0	0	0	0	0	0	0	0	0	0	0	0	0	0	0	0	0	0	0	0	0	0	0	0	0	0	0	0	0	0	0	0	0	0	0	0	0	0	0	0	0	0	0	0	0	0	0	0	0	0	0	0	0	0	"THIS PIPELINE IS OWNED BY KIMBERLY-CLARK AND OPERATED BY DOUGLAS PIPELINE COMPANY IN THE COUNTY OF AIKEN, SOUTH CAROLINA.    THE KIMBERLY-CLARK CORPORATION IS LOCATED AT 246 OLD JACKSON HIGHWAY IN BEECH ISLAND, SOUTH CAROLINA 29641."	ROBERT J. URBANSKI	8642609930	2/18/2004	2/27/2004		
2003	20030209	DOUGLAS PIPELINE CO	31442	400 SOUTHPOINTE BLVD	CANONSBURG	WASHINGTON	PA	15317				PA	-5318	SC	0	0	0	2	0	0	0	0	0	0	2	0	0	0	0	0	0	0	0	0	0	0	0	0	0	2	0	0	2	0	0	0	0	0	0	0	0	0	0	0	0	0	0	0	0	0	0	0	0	0	0	0	0	0	0	0	0	0	0	0	0	0	0	0	0	0	0	0	0	0	0	0	0	0	0	0	0	0	0	0	0	0	0	0	0	0	0	0	2	0	0	2	11400	0	0	0	0	0	0	0	0	0	0	0	0	0	0	0	0	0	0	0	0	0	0	0	0	0	0	0	0	0	0	0	0	0	0	0	0	0	0	0	0	0	0	0	0	0	0	0	0	0	0	0	0	0	0	0	0	0	0	0	0	0	0	0	0	0	0	0	0	0	0	0	0	0	0	0	0	0	0	0	0	0	0	0	0	0	"THE PIPELINE IS OWNED BY HONEYWELL NYLON INC. (FOMERLY BASF) AND OPERATED BY DOUGLAS PIPELINE COMPANY IN THE COUNTY OF ANDERSON SOUTH CAROLINA. THE HONEYWELL FACILITY IS LOCATED AT 441 MASTERS DRIVE IN ANDERSON, SC 29626."	ROBERT J. URBANSKI	8642609930	2/18/2004	2/27/2004		
2003	20030210	DOUGLAS PIPELINE CO	31442	400 SOUTHPOINTE BLVD	CANONSBURG	WASHINGTON	PA	15317				PA	-5318	 MS	0	0	0	1	0	0	0	0	0	0	1	0	0	0	1	0	0	0	0	0	0	1	0	0	0	1	0	0	1	0	0	0	0	0	0	0	0	0	0	0	0	0	0	0	0	0	0	0	0	0	0	0	0	0	0	0	0	0	0	0	0	0	0	0	0	0	0	0	0	0	0	0	0	0	0	0	0	0	0	0	0	0	0	0	0	0	0	0	1	0	0	1	2700	0	0	0	1	0	0	1	0	0	0	0	0	0	0	0	0	0	0	0	0	0	0	0	0	0	0	0	0	0	0	0	0	0	0	0	0	0	0	0	0	0	0	0	0	0	0	0	0	0	0	0	0	0	0	0	0	0	0	0	0	0	0	0	0	0	0	1	0	0	1	0	0	0	0	0	0	0	0	0	0	0	0	0	0	0	"THIS PIPELINE IS OWNED BY KIMBERLY-CLARK AND OPERATED BY DOUGLAS PIPELINE COMPANY IN THE COUNTY OF ALCORN, MISSISSIPPI. THE KIMBERLY-CLARK FACILITY IS LOCATED AT 3461 COUNTY ROAD 100, CORINTH, MISSISSIPPI 38834."	ROBERT J. URBANSKI	8642609930	2/18/2004	2/27/2004		
2003	20030211	DOUGLAS PIPELINE CO	31442	400 SOUTHPOINTE BLVD	CANONSBURG	WASHINGTON	PA	15317				PA	-5318	SC	0	0	0	4	0	0	0	0	0	0	4	0	0	0	1	0	0	0	0	0	0	1	0	0	0	4	0	0	4	0	0	0	0	0	0	0	0	0	0	0	0	0	0	0	0	0	0	0	0	0	0	0	0	0	0	0	0	0	0	0	0	0	0	0	0	0	0	0	0	0	0	0	0	0	0	0	0	0	0	0	0	0	0	0	0	0	0	0	4	0	0	4	2100	0	0	0	0	1	0	1	0	0	0	0	0	0	0	0	0	0	0	0	0	0	0	0	0	0	0	0	0	0	0	0	0	0	0	0	0	0	0	0	0	0	0	0	0	0	0	0	0	0	0	0	0	0	0	0	0	0	0	0	0	0	0	0	0	0	0	0	1	0	1	0	0	0	0	0	0	0	0	0	0	0	0	0	0	0	"THE PIPELINE IS OWNED BY KIMBERLY-CLARK CORPORATION. THEIR ADDRESS IS 13252 SOUTH YALE PLACE, PO BOX 3000, JENKS, OK 74037.  IT IS OPERATED ON A CONTRACT BASIS BY DOUGLAS PIPELINE COMPANY.    THE PIPELINE IS 4 MILES LONG.  THE ONLY CUSTOMER OR SERVICE IS KIMBERLY-CLARK, JENKS,OK."	ROBERT J. URBANSKI	8642609930	2/18/2004	2/27/2004		
2003	20030212	WATERTOWN MUNICIPAL GAS DEPT	22231	901 FOURTH AVE S.W.	WATERTOWN	CODINGTON	SD	57201						SD	0	0	0	182	31	0	0	0	0	0	213	0	0	0	7453	1723	0	0	0	0	0	9176	0	90	76	13	3	0	182	0	0	0	0	0	0	0	0	0	0	0	0	0	0	0	0	0	0	0	0	0	0	0	0	0	0	0	0	0	29	2	0	0	0	31	0	0	0	0	0	0	0	0	0	0	0	0	0	0	0	0	0	0	0	0	0	0	119	78	13	3	0	213	100	0	4804	2639	7	3	0	7453	0	0	0	0	0	0	0	0	0	0	0	0	0	0	0	0	0	0	0	0	0	0	0	0	0	0	0	0	0	1701	22	0	0	0	1723	0	0	0	0	0	0	0	0	0	0	0	0	0	0	0	0	0	0	0	0	0	0	6505	2661	7	3	0	9176	0	4	0	0	0	1	0	3	0	0	0	7	0	0	2.4		"RICHARD SCHMIDT, GAS SUPERINTENDENT"	6058826233	2/13/2004	2/27/2004		
2003	20030213	"FAIRHOPE GAS SYSTEM, CITY OF"	5040	555 SOUTH SECITION STREET	FAIRHOPE		AL	-6535						 AL	0	0	0	282	161	9	0	0	0	0	452	1245	0	0	3343	4263	0	0	0	0	0	8851	0	144	51	92	0	0	287	0	0	0	0	0	0	0	0	0	0	0	0	0	0	0	0	0	9	0	0	9	0	0	0	0	0	0	0	0	152	4	0	0	0	156	0	0	0	0	0	0	0	0	0	0	0	0	0	0	0	0	0	0	0	0	0	0	296	55	101	0	0	452	200	0	4588	0	0	0	0	4588	0	0	0	0	0	0	0	0	0	0	0	0	0	0	0	0	0	0	0	0	0	0	0	0	0	0	0	0	0	4263	0	0	0	0	4263	0	0	0	0	0	0	0	0	0	0	0	0	0	0	0	0	0	0	0	0	0	0	8851	0	0	0	0	8851	0	0	0	0	11	24	0	0	5	34	0	0	0	0	4		STEVE SEAY	3349288003	2/13/2004	2/27/2004		
2003	20030214	ELBERTON NATURAL GAS SYSTEM	4310	234 N MCINTOSH ST	ELBERTON	ELBERT	GA	30635						GA	0	0	20	69	78	0	0	0	0	0	167	0	0	269	2708	1799	0	0	0	0	0	4776	0	50	7	32	0	0	89	0	0	0	0	0	0	0	0	0	0	0	0	0	0	0	0	0	0	0	0	0	0	5	0	0	0	0	5	0	73	0	0	0	0	73	0	0	0	0	0	0	0	0	0	0	0	0	0	0	0	0	0	0	0	0	0	0	128	7	32	0	0	167	100	0	2958	17	2	0	0	2977	0	0	0	0	0	0	0	0	0	0	0	0	0	0	0	0	0	0	0	0	0	0	139	0	0	0	0	139	0	1659	0	1	0	0	1660	0	0	0	0	0	0	0	0	0	0	0	0	0	0	0	0	0	0	0	0	0	0	4756	17	3	0	0	4776	2	0	0	0	0	0	0	0	0	0	0	5	0	0	0		JAMES A. ADAMS - SUPERINTENDENT	7032133172	2/13/2004	2/27/2004		
2003	20030215	"AUSTELL NATURAL GAS SYSTEM, CITY OF"	909	5997 HUTCHESON DRIVE	AUSTELL	COBB	GA	30106						GA	0	0	0	442	559	0	0	0	0	0	1001	0	0	0	14176	36683	0	0	0	0	0	50859	0	274	88	75	4	1	442	0	0	0	0	0	0	0	0	0	0	0	0	0	0	0	0	0	0	0	0	0	0	0	0	0	0	0	0	0	362	142	55	0	0	559	0	0	0	0	0	0	0	0	0	0	0	0	0	0	0	0	0	0	0	0	0	0	636	230	130	4	1	1001	100	0	14018	110	40	8	0	14176	0	0	0	0	0	0	0	0	0	0	0	0	0	0	0	0	0	0	0	0	0	0	0	0	0	0	0	0	0	36593	86	4	0	0	36683	0	0	0	0	0	0	0	0	0	0	0	0	0	0	0	0	0	0	0	0	0	0	50611	196	44	8	0	50859	15	51	0	7	10	75	0	5	0	41	43	253	15	0	1.25		MIKE MELTON	7709481841	2/13/2004	2/27/2004		
2003	20030216	BAY CITY MUNICIPAL GAS SYSTEM	1184	1100 6TH ST BOX 1603	BAY CITY	MATAGORDA	TX	-748	P.O. BOX 1603	BAY CITY		TX	77414	TX	0	0	0	6	184	0	0	0	0	0	190	0	0	0	0	6697	0	0	0	0	0	6697	0	0	1	5	0	0	6	0	0	0	0	0	0	0	0	0	0	0	0	0	0	0	0	0	0	0	0	0	0	0	0	0	0	0	0	0	169	13	2	0	0	184	0	0	0	0	0	0	0	0	0	0	0	0	0	0	0	0	0	0	0	0	0	0	169	14	7	0	0	190	30	0	0	0	0	0	0	0	0	0	0	0	0	0	0	0	0	0	0	0	0	0	0	0	0	0	0	0	0	0	0	0	0	0	0	0	0	6021	676	0	0	0	6697	0	0	0	0	0	0	0	0	0	0	0	0	0	0	0	0	0	0	0	0	0	0	6021	676	0	0	0	6697	0	0	0	0	8	14	0	0	0	0	2	77	9	0	7	"6.45   MILES OF SERVICE WERE SURVEYED VIA FI UNIT  57.08 MILES OF MAIN WERE SURVEYED VIA FI UNIT    3 CLASS #1, 0 CLASS #2 PLUS 76 CLASS #3 LEAKS WERE FOUND ON METER LOOPS AND THREADING FITTINS. ALL BUT 9 CLASS #3 HAVE BEEN REPAIRED BY YEARS END."	JANIE BENAVIDEZ  (DISPATCH CLERK)	9792452311	2/13/2004	2/27/2004		
2003	20030217	"BOERNE UTILITY, CITY OF"	1592	402 E BLANCO PO BOX 1677	BOERNE	KENDALL	TX	-807						TX	0	0	0	28	11	0	0	0	0	0	39	0	0	0	1074	212	0	0	0	0	0	1286	0	21	3	4	0	0	28	0	0	0	0	0	0	0	0	0	0	0	0	0	0	0	0	0	0	0	0	0	0	0	0	0	0	0	0	0	6	0	5	0	0	11	0	0	0	0	0	0	0	0	0	0	0	0	0	0	0	0	0	0	0	0	0	0	27	3	9	0	0	39	80	0	200	874	0	0	0	1074	0	0	0	0	0	0	0	0	0	0	0	0	0	0	0	0	0	0	0	0	0	0	0	0	0	0	0	0	0	197	15	0	0	0	212	0	0	0	0	0	0	0	0	0	0	0	0	0	0	0	0	0	0	0	0	0	0	397	889	0	0	0	1286	0	0	0	0	1	1	0	0	0	0	1	54	0	0	0	UNACCOUNTED FOR GAS -3%	HOLLY CASILLAS	8302499511	2/13/2004	2/27/2004		
2003	20030218	MARSHALL COUNTY GAS DISTRICT	12180	1243 GUNTER AVE	GUNTERSVILLE	MARSHALL	AL	-5979						 AL	0	0	0	222	515	32	0	0	0	0	769	5153	0	0	4888	12784	0	0	0	0	0	22825	0	0	38	104	85	0	227	0	0	0	0	0	0	0	0	0	0	0	0	0	0	0	0	15	17	0	0	32	0	0	0	0	0	0	0	0	477	23	10	0	0	510	0	0	0	0	0	0	0	0	0	0	0	0	0	0	0	0	0	0	0	0	0	0	477	76	131	85	0	769	300	9556	184	2	0	0	0	9742	0	0	0	0	0	0	0	0	0	0	0	0	0	0	0	0	0	0	0	0	0	0	0	0	0	0	0	0	12218	862	3	0	0	0	13083	0	0	0	0	0	0	0	0	0	0	0	0	0	0	0	0	0	0	0	0	0	21774	1046	5	0	0	0	22825	4	15	2	3	0	0	0	0	8	7	0	0	57	0	2	TOTAL OF ABOVE:  GRADE 1--5  GRADE 2--58  GRADE 3--33  _______________    TOTAL        96	DAVID BROWN	2565825641	2/13/2004	2/27/2004		
2003	20030219	IBERVILLE PARISH NATURAL GAS SYSTEM	8010	59805 BAYOU ROAD	PLAQUEMINE		LA	-83						 LA	0	0	0	114	63	0	0	0	0	0	177	0	0	0	2383	1047	0	0	0	0	0	3430	0	99	15	0	0	0	114	0	0	0	0	0	0	0	0	0	0	0	0	0	0	0	0	0	0	0	0	0	0	0	0	0	0	0	0	0	46	17	0	0	0	63	0	0	0	0	0	0	0	0	0	0	0	0	0	0	0	0	0	0	0	0	0	0	145	32	0	0	0	177	112	0	2366	16	1	0	0	2383	0	0	0	0	0	0	0	0	0	0	0	0	0	0	0	0	0	0	0	0	0	0	0	0	0	0	0	0	0	1036	11	0	0	0	1047	0	0	0	0	0	0	0	0	0	0	0	0	0	0	0	0	0	0	0	0	0	0	3402	27	1	0	0	3430	0	3	0	0	3	14	0	1	0	0	1	155	113	0	0	UNACCOUTED FOR GAS -2%	BRIAN BERTHELOT	2256875152	2/13/2004	2/27/2004		
2003	20030220	WEST YELLOWSTONE GAS	30875	145 N GEYSER ST BOX 582	WEST YELLOWSTONE	GALLITAN	MT	59758	P O BOX 2229	GREAT FALLS	CASCADE	MT	59403	 MT	0	0	0	0	14	0	0	0	0	0	14	0	0	0	0	620	0	0	0	0	0	620	0	0	0	0	0	0	0	0	0	0	0	0	0	0	0	0	0	0	0	0	0	0	0	0	0	0	0	0	0	0	0	0	0	0	0	0	7	4	3	0	0	14	0	0	0	0	0	0	0	0	0	0	0	0	0	0	0	0	0	0	0	0	0	0	7	4	3	0	0	14	51	0	0	0	0	0	0	0	0	0	0	0	0	0	0	0	0	0	0	0	0	0	0	0	0	0	0	0	0	0	0	0	0	0	0	0	0	608	12	0	0	0	620	0	0	0	0	0	0	0	0	0	0	0	0	0	0	0	0	0	0	0	0	0	0	608	12	0	0	0	620	0	0	0	0	0	0	0	0	0	0	0	0	0	0	2.5		EVAN MATHEWS	4066464437	2/13/2004	2/27/2004		
2003	20030221	AURORA GAS CO	885	7035 BLACK RIVER ROAD	ONAWAY	CHEBOYGAN	MI	49765						MI	0	0	0	17	192	0	0	0	0	0	209	0	0	0	0	2747	0	0	0	0	0	2747	0	0	17	0	0	0	17	0	0	0	0	0	0	0	0	0	0	0	0	0	0	0	0	0	0	0	0	0	0	0	0	0	0	0	0	0	117	75	0	0	0	192	0	0	0	0	0	0	0	0	0	0	0	0	0	0	0	0	0	0	0	0	0	0	117	92	0	0	0	209	0	0	0	0	0	0	0	0	0	0	0	0	0	0	0	0	0	0	0	0	0	0	0	0	0	0	0	0	0	0	2744	2	1	0	0	2747	0	0	0	0	0	0	0	0	0	0	0	0	0	0	0	0	0	0	0	0	0	0	0	0	0	0	0	0	0	2744	2	1	0	0	2747	0	0	0	0	1	14	0	0	0	0	0	0	0	0	0		SUSAN NELSON- OFFICE MANAGER	5177336625	2/17/2004	2/27/2004		
2003	20030222	AMERIGAS PROPANE	30740	47 HACKNEY	COLEVILLE	MONO	CA	96107	47 HACKNEY	COLEVILLE	MONO	CA	96107	CA	0	0	0	2	0	0	0	0	0	0	2	0	0	0	125	10	0	0	0	0	0	135	0	2	0	0	0	0	2	0	0	0	0	0	0	0	0	0	0	0	0	0	0	0	0	0	0	0	0	0	0	0	0	0	0	0	0	0	0	0	0	0	0	0	0	0	0	0	0	0	0	0	0	0	0	0	0	0	0	0	0	0	0	0	0	0	2	0	0	0	0	2	0	0	125	0	0	0	0	125	0	0	0	0	0	0	0	0	0	0	0	0	0	0	0	0	0	0	0	0	0	0	0	0	0	0	0	0	0	10	0	0	0	0	10	0	0	0	0	0	0	0	0	0	0	0	0	0	0	0	0	0	0	0	0	0	0	135	0	0	0	0	135	0	0	0	1	0	0	0	0	0	0	0	0	0	0	0		LINDA WILKINS	5304952324	2/17/2004	2/27/2004		
2003	20030223	"VIDALIA GAS DEPT, CITY OF"	21240	P O BOX 2010	VIDALIA	CONCORDIA	LA	-1380						 LA	0	0	0	29	10	0	0	0	0	0	39	0	0	0	1372	558	0	0	0	0	0	1930	0	21	8	0	0	0	29	0	0	0	0	0	0	0	0	0	0	0	0	0	0	0	0	0	0	0	0	0	0	0	0	0	0	0	0	0	6	2	2	0	0	10	0	0	0	0	0	0	0	0	0	0	0	0	0	0	0	0	0	0	0	0	0	0	27	10	2	0	0	39	10	0	1359	9	0	0	0	1368	0	0	0	0	0	0	0	0	0	0	0	0	0	0	0	0	0	0	0	0	0	0	0	0	0	0	0	0	0	558	4	0	0	0	562	0	0	0	0	0	0	0	0	0	0	0	0	0	0	0	0	0	0	0	0	0	0	1917	13	0	0	0	1930	0	0	0	0	1	8	0	0	0	0	0	2	2	0	6		MARK MORACE	3183366257	2/17/2004	2/27/2004		
2003	20030224	NORTH EAST HEAT & LIGHT CO	13620	10700 WEST MAIN RD	NORTH EAST	ERIE	PA	16428						PA	14	4	0	0	33	2	0	0	0	0	53	1083	0	0	0	1280	0	0	0	0	0	2363	0	10	6	2	0	0	18	0	0	0	0	0	0	0	0	0	0	0	0	0	0	0	2	0	0	0	0	2	0	0	0	0	0	0	0	0	18	14	1	0	0	33	0	0	0	0	0	0	0	0	0	0	0	0	0	0	0	0	0	0	0	0	0	0	30	20	3	0	0	53	94	0	82	990	10	1	0	1083	0	0	0	0	0	0	0	0	0	0	0	0	0	0	0	0	0	0	0	0	0	0	0	0	0	0	0	0	0	67	1209	4	0	0	1280	0	0	0	0	0	0	0	0	0	0	0	0	0	0	0	0	0	0	0	0	0	0	149	2199	14	1	0	2363	12	7	1	3	0	0	0	0	0	0	0	0	3	0	0		MARK NEWCOME	8147254302	2/17/2004	2/27/2004		
2003	20030225	"PRAIRIE VIEW GAS SYSTEM (AKA WALLER, CITY OF)"	15828	PO BOX 239 1118 FARR ST.	WALLER	WALLER	TX	77484						TX	0	0	0	1	7	0	0	0	0	0	8	0	0	0	82	246	0	0	0	0	0	328	0	1	0	0	0	0	1	0	0	0	0	0	0	0	0	0	0	0	0	0	0	0	0	0	0	0	0	0	0	0	0	0	0	0	0	0	7	0	0	0	0	7	0	0	0	0	0	0	0	0	0	0	0	0	0	0	0	0	0	0	0	0	0	0	8	0	0	0	0	8	25	0	82	0	0	0	0	82	0	0	0	0	0	0	0	0	0	0	0	0	0	0	0	0	0	0	0	0	0	0	0	0	0	0	0	0	0	245	1	0	0	0	246	0	0	0	0	0	0	0	0	0	0	0	0	0	0	0	0	0	0	0	0	0	0	327	1	0	0	0	328	0	0	0	0	0	1	0	0	0	0	0	0	0	0	7.5		GENE SCHMIDT - SUPT OF PUBLIC WORKS	9363723880	2/17/2004	2/27/2004		
2003	20030226	"WALLER, CITY OF"	22084	"PO BOX 239, 1118 FARR ST"	WALLER	WALLER	TX	77484						TX	0	0	0	2	16	0	0	0	0	0	18	0	0	0	73	563	0	0	0	0	0	636	0	2	0	0	0	0	2	0	0	0	0	0	0	0	0	0	0	0	0	0	0	0	0	0	0	0	0	0	0	0	0	0	0	0	0	0	11	3	2	0	0	16	0	0	0	0	0	0	0	0	0	0	0	0	0	0	0	0	0	0	0	0	0	0	13	3	2	0	0	18	15	0	73	0	0	0	0	73	0	0	0	0	0	0	0	0	0	0	0	0	0	0	0	0	0	0	0	0	0	0	0	0	0	0	0	0	0	535	28	0	0	0	563	0	0	0	0	0	0	0	0	0	0	0	0	0	0	0	0	0	0	0	0	0	0	608	28	0	0	0	636	2	0	0	0	1	0	0	0	0	0	0	0	0	0	2		GENE SCHMIDT - SUPT. OF PUBLIC WORKS	9363723880	2/17/2004	2/27/2004		
2003	20030227	"MARIETTA, CITY OF"	25109	101 MAIN ST  P.O. BOX 247	MARIETTA	CASS	TX	75566						TX	0	0	0	64	6	0	0	0	0	0	70	0	0	0	398	79	0	0	0	0	0	477	0	40	22	2	0	0	64	0	0	0	0	0	0	0	0	0	0	0	0	0	0	0	0	0	0	0	0	0	0	5	0	0	0	0	5	0	1	0	0	0	0	1	0	0	0	0	0	0	0	0	0	0	0	0	0	0	0	0	0	0	0	0	0	0	46	22	2	0	0	70	38	0	391	3	0	0	0	394	0	0	0	0	0	0	0	0	0	0	0	0	0	0	0	0	0	0	0	0	0	0	31	0	0	0	0	31	0	47	1	0	0	0	48	0	0	0	0	0	0	0	0	0	0	0	0	0	0	0	0	0	0	0	0	0	0	469	4	0	0	0	473	0	0	0	0	2	4	0	0	0	0	0	2	0	0	8		BOBBY CLIMER	9038355596	2/17/2004	2/27/2004		
2003	20030228	OHIO GAS CO	14130	"715 E WILSON ST, BOX 528"	BRYAN	WILLIAMS	OH	43506	PO BOX 528	BRYAN	WILLIAMS	OH	43506	OH	3	0	62	765	271	0	0	0	0	0	1101	12	0	2119	21799	20899	0	0	0	0	0	44829	0	246	384	181	19	0	830	0	0	0	0	0	0	0	0	0	0	0	0	0	0	0	0	0	0	0	0	0	0	0	0	0	0	0	0	0	163	108	0	0	0	271	0	0	0	0	0	0	0	0	0	0	0	0	0	0	0	0	0	0	0	0	0	0	409	492	181	19	0	1101	118	0	23125	756	48	1	0	23930	0	0	0	0	0	0	0	0	0	0	0	0	0	0	0	0	0	0	0	0	0	0	0	0	0	0	0	0	0	20539	336	24	0	0	20899	0	0	0	0	0	0	0	0	0	0	0	0	0	0	0	0	0	0	0	0	0	0	43664	1092	72	1	0	44829	2	6	1	1	10	85	1	3	0	0	8	271	15	0	0	"*PART C- SERVICES, OTHER INCLUDES 254 ABOVEGROUND METER SET ASSEMBLY FITTING LEAKS    **PART C- KNOWN SYSTEM LEAKS SCHEDULED FOR REPAIR                  3 BELOWGROUND LEAKS SCHEDULED FOR REPAIR                  12 ABOVEGROUND METER SET ASSEMBLY FITTING LEAKS SCHEDULED FOR REPAIR"	ROBERT D. SPERLING	4196302241	2/17/2004	2/27/2004		
2003	20030229	POWELL CLINCH UTIL DIST	15826	203 FIRST STREET	LAKE CITY	ANDERSON	TN	37769						TN	0	0	0	192	371	0	0	0	0	0	563	0	0	0	2238	13165	0	0	0	0	0	15403	0	42	62	65	23	0	192	0	0	0	0	0	0	0	0	0	0	0	0	0	0	0	0	0	0	0	0	0	0	0	0	0	0	0	0	0	328	36	7	0	0	371	0	0	0	0	0	0	0	0	0	0	0	0	0	0	0	0	0	0	0	0	0	0	370	98	72	23	0	563	162	0	2181	55	2	0	0	2238	0	0	0	0	0	0	0	0	0	0	0	0	0	0	0	0	0	0	0	0	0	0	0	0	0	0	0	0	0	13053	110	2	0	0	13165	0	0	0	0	0	0	0	0	0	0	0	0	0	0	0	0	0	0	0	0	0	0	15234	165	4	0	0	15403	1	3	0	0	33	166	4	5	5	9	1	3	62	0	2.3	SURVEY LEAKS    *GRADE 3-46  GRADE 2-16  ____________                   62	RICHARD MCINTOSH - ASSISTANT MANAGER	8654622822	2/17/2004	2/27/2004		
2003	20030230	"SAFFORD UTILITIES DIV, CITY OF"	18028	405 W DISCOVERY PARK BLVD	SAFFORD	GRAHAM	AZ	85546						 AZ	0	0	0	23	44	0	0	0	0	0	67	0	0	0	1799	1913	0	0	0	0	0	3712	0	21	2	0	0	0	23	0	0	0	0	0	0	0	0	0	0	0	0	0	0	0	0	0	0	0	0	0	0	0	0	0	0	0	0	0	32	11	1	0	0	44	0	0	0	0	0	0	0	0	0	0	0	0	0	0	0	0	0	0	0	0	0	0	53	13	1	0	0	67	100	0	1588	206	5	0	0	1799	0	0	0	0	0	0	0	0	0	0	0	0	0	0	0	0	0	0	0	0	0	0	0	0	0	0	0	0	0	1905	8	0	0	0	1913	0	0	0	0	0	0	0	0	0	0	0	0	0	0	0	0	0	0	0	0	0	0	3493	214	5	0	0	3712	3	14	0	0	0	0	1	4	0	0	0	0	0	0	2.51		MICHAEL R SQUIRE	9283483143	2/13/2004	3/5/2004		
2003	20030231	BLYTHE ENERGY LLC 	31741	15560 WEST HOBSONWAY	BLYTHE 	RIVERSIDE	CA	92225						 AK	0	0	0	12	0	0	0	0	0	0	12	0	0	0	1	0	0	0	0	0	0	1	0	0	0	0	0	12	12	0	0	0	0	0	0	0	0	0	0	0	0	0	0	0	0	0	0	0	0	0	0	0	0	0	0	0	0	0	0	0	0	0	0	0	0	0	0	0	0	0	0	0	0	0	0	0	0	0	0	0	0	0	0	0	0	0	0	0	0	0	12	12	1000	0	0	0	0	0	1	1	0	0	0	0	0	0	0	0	0	0	0	0	0	0	0	0	0	0	0	0	0	0	0	0	0	0	0	0	0	0	0	0	0	0	0	0	0	0	0	0	0	0	0	0	0	0	0	0	0	0	0	0	0	0	0	0	0	0	0	0	0	1	1	0	0	0	0	0	0	0	0	0	0	0	0	0	0	0		PHIL LANGWORTHY	7609229950	2/18/2004	3/1/2004		
2003	20030232	ARKANSAS OKLAHOMA GAS CORP	621	115 NORTH 12TH ST	FORT SMITH	SEBASTIAN	AR	72901	115 NORTH 12TH ST	FORT SMITH	SEBASTIAN	AR	72901	AR OK	41	0	294	549	1065	0	0	0	0	0	1949	6941	0	13524	21339	28437	0	0	0	0	0	70241	0	637	159	77	11	0	884	0	0	0	0	0	0	0	0	0	0	0	0	0	0	0	0	0	0	0	0	0	0	0	0	0	0	0	0	0	785	245	35	0	0	1065	0	0	0	0	0	0	0	0	0	0	0	0	0	0	0	0	0	0	0	0	0	0	1422	404	112	11	0	1949	35	0	29218	11514	672	400	0	41804	0	0	0	0	0	0	0	0	0	0	0	0	0	0	0	0	0	0	0	0	0	0	0	0	0	0	0	0	0	24860	3541	33	3	0	28437	0	0	0	0	0	0	0	0	0	0	0	0	0	0	0	0	0	0	0	0	0	0	54078	15055	705	403	0	70241	455	143	11	4	215	7	14	7	3	1	0	0	7	0	2.82		"FLOYD HURST, ASST VP - ACCOUNTING"	4797833181	2/18/2004	2/27/2004		
2003	20030233	"WAYNESBORO GAS DEPT, CITY OF"	22315	122 PUBLIC SQUARE EAST	WAYNESBORO	WAYNE	TN	38485						TN	0	0	0	21	2	0	0	0	0	0	23	0	0	0	935	19	0	0	0	0	0	954	0	15	6	0	0	0	21	0	0	0	0	0	0	0	0	0	0	0	0	0	0	0	0	0	0	0	0	0	0	0	0	0	0	0	0	0	2	0	0	0	0	2	0	0	0	0	0	0	0	0	0	0	0	0	0	0	0	0	0	0	0	0	0	0	17	6	0	0	0	23	0	0	925	10	0	0	0	935	0	0	0	0	0	0	0	0	0	0	0	0	0	0	0	0	0	0	0	0	0	0	0	0	0	0	0	0	0	19	0	0	0	0	19	0	0	0	0	0	0	0	0	0	0	0	0	0	0	0	0	0	0	0	0	0	0	944	10	0	0	0	954	0	3	0	0	0	0	0	0	0	0	0	0	6	0	5		DARLENE SKELTON	9317225458	2/18/2004	2/27/2004		
2003	20030234	"FRIARS POINT MUNICIPLE GAS, TOWN OF"	5620	P O BOX 185 700 SECOND ST	FRIARS POINT		MS	38631						 MS	0	0	0	23	0	0	0	0	0	0	23	0	0	0	490	0	0	0	0	0	0	490	0	13	10	0	0	0	23	0	0	0	0	0	0	0	0	0	0	0	0	0	0	0	0	0	0	0	0	0	0	0	0	0	0	0	0	0	0	0	0	0	0	0	0	0	0	0	0	0	0	0	0	0	0	0	0	0	0	0	0	0	0	0	0	0	13	10	0	0	0	23	0	0	450	0	0	0	0	450	0	0	0	0	0	0	0	0	0	0	0	0	0	0	0	0	0	0	0	0	0	0	0	0	0	0	0	0	0	0	0	0	0	0	0	0	40	0	0	0	0	40	0	0	0	0	0	0	0	0	0	0	0	0	0	0	0	490	0	0	0	0	490	0	0	0	0	0	0	0	0	0	0	0	0	0	0	17.69		"EDWARD T. DAVIS,P.E."	6628934041	2/18/2004	2/27/2004		
2003	20030235	ROCK RAPIDS MUNC UTIL	17583	310 S. THIRD AVE	ROCK RAPIDS	LYON	IA	51246						IA	0	0	0	19	9	0	0	0	0	0	28	0	0	0	818	387	0	0	0	0	0	1205	0	11	7	1	0	0	19	0	0	0	0	0	0	0	0	0	0	0	0	0	0	0	0	0	0	0	0	0	0	0	0	0	0	0	0	0	5	4	0	0	0	9	0	0	0	0	0	0	0	0	0	0	0	0	0	0	0	0	0	0	0	0	0	0	16	11	1	0	0	28	100	0	792	24	2	0	0	818	0	0	0	0	0	0	0	0	0	0	0	0	0	0	0	0	0	0	0	0	0	0	0	0	0	0	0	0	0	375	12	0	0	0	387	0	0	0	0	0	0	0	0	0	0	0	0	0	0	0	0	0	0	0	0	0	0	1167	36	2	0	0	1205	0	0	0	0	0	0	0	0	0	0	0	1	0	0	1.4		THOMAS L. TILLE	7124722511	2/18/2004	2/27/2004		
2003	20030236	TISHOMINGO GAS SYSTEM	19475	P.O. BOX 70 1281 MAIN ST.	TISHOMINGO	TISHOMINGO	MS	38873						MS	0	0	0	25	15	0	0	0	0	0	40	0	0	0	246	192	0	0	0	0	0	438	0	6	19	0	0	0	25	0	0	0	0	0	0	0	0	0	0	0	0	0	0	0	0	0	0	0	0	0	0	0	0	0	0	0	0	0	12	3	0	0	0	15	0	0	0	0	0	0	0	0	0	0	0	0	0	0	0	0	0	0	0	0	0	0	18	22	0	0	0	40	0	0	237	9	0	0	0	246	0	0	0	0	0	0	0	0	0	0	0	0	0	0	0	0	0	0	0	0	0	0	0	0	0	0	0	0	0	192	0	0	0	0	192	0	0	0	0	0	0	0	0	0	0	0	0	0	0	0	0	0	0	0	0	0	0	429	9	0	0	0	438	1	1	1	5	0	0	0	0	1	1	0	0	0	0	0		PAULA RUSHING	6624386402	2/18/2004	2/27/2004		
2003	20030237	KINGS MOUNTAIN NATURAL GAS SYSTEM	10270	1013 N PIEDMONT AVE	KING MOUNTAIN	CLEVELAND	NC	28086						 NC	0	0	0	62	52	0	0	0	0	0	114	0	0	0	1746	2190	0	0	0	0	0	3936	0	41	10	11	0	0	62	0	0	0	0	0	0	0	0	0	0	0	0	0	0	0	0	0	0	0	0	0	0	0	0	0	0	0	0	0	34	17	1	0	0	52	0	0	0	0	0	0	0	0	0	0	0	0	0	0	0	0	0	0	0	0	0	0	75	27	12	0	0	114	100	0	1713	25	6	2	0	1746	0	0	0	0	0	0	0	0	0	0	0	0	0	0	0	0	0	0	0	0	0	0	0	0	0	0	0	0	0	2133	57	0	0	0	2190	0	0	0	0	0	0	0	0	0	0	0	0	0	0	0	0	0	0	0	0	0	0	3846	82	6	2	0	3936	2	8	0	0	5	12	0	0	0	0	0	0	0	0	0		MIKE NICHOLSON	7047344521	2/18/2004	2/27/2004		
2003	20030238	SUBURBAN PROPANE	18684	1491 N E 130TH STREET	MIAMI	DADE	FL	33161	240 ROUTE 10 WEST	WHIPPANY		NJ	7981	 FL	0	0	0	16	3	0	0	0	0	0	19	0	0	0	1912	0	0	0	0	0	0	1912	0	16	0	0	0	0	16	0	0	0	0	0	0	0	0	0	0	0	0	0	0	0	0	0	0	0	0	0	0	0	0	0	0	0	0	0	3	0	0	0	0	3	0	0	0	0	0	0	0	0	0	0	0	0	0	0	0	0	0	0	0	0	0	0	19	0	0	0	0	19	18	0	1912	0	0	0	0	1912	0	0	0	0	0	0	0	0	0	0	0	0	0	0	0	0	0	0	0	0	0	0	0	0	0	0	0	0	0	0	0	0	0	0	0	0	0	0	0	0	0	0	0	0	0	0	0	0	0	0	0	0	0	0	0	0	0	1912	0	0	0	0	1912	0	15	0	0	0	3	0	0	0	0	0	0	0	0	4		SULLIVAN C PALERMO	3058918393	2/18/2004	2/27/2004		
2003	20030239	"ATHENS GAS DEPT, CITY OF"	766	1806 WILKINSON ST	ATHENS	LIMESTONE	AL	35611						AL TN	0	0	0	41	289	0	0	0	0	0	330	0	0	0	8	6066	0	0	0	0	0	6074	0	1	16	24	0	0	41	0	0	0	0	0	0	0	0	0	0	0	0	0	0	0	0	0	0	0	0	0	0	198	70	21	0	0	289	0	0	0	0	0	0	0	0	0	0	0	0	0	0	0	0	0	0	0	0	0	0	0	0	0	0	0	0	0	199	86	45	0	0	330	150	0	0	4	4	0	0	8	0	0	0	0	0	0	0	0	0	0	0	0	0	0	0	0	0	0	0	0	0	0	5916	122	28	0	0	6066	0	0	0	0	0	0	0	0	0	0	0	0	0	0	0	0	0	0	0	0	0	0	0	0	0	0	0	0	0	5916	126	32	0	0	6074	0	0	0	0	9	23	0	0	0	1	0	0	0	0	0.75		STEVEN W. CARTER	2562321440	2/18/2004	2/27/2004		
2003	20030240	WEDOWEE UTILITIES GAS BOARD	22322	P O BOX 935 11 WEST BROAD	WEDOWEE	RANDOLPH	AL	36278						 AL	0	0	0	19	40	0	0	0	0	0	59	0	0	0	120	546	0	0	0	0	0	666	0	6	13	0	0	0	19	0	0	0	0	0	0	0	0	0	0	0	0	0	0	0	0	0	0	0	0	0	0	0	0	0	0	0	0	0	16	24	0	0	0	40	0	0	0	0	0	0	0	0	0	0	0	0	0	0	0	0	0	0	0	0	0	0	22	37	0	0	0	59	0	0	120	0	0	0	0	120	0	0	0	0	0	0	0	0	0	0	0	0	0	0	0	0	0	0	0	0	0	0	0	0	0	0	0	0	0	532	13	1	0	0	546	0	0	0	0	0	0	0	0	0	0	0	0	0	0	0	0	0	0	0	0	0	0	652	13	1	0	0	666	0	0	0	0	0	0	0	0	0	0	0	22	0	0	2		PHILLIP THOMPSON	2563574716	2/18/2004	2/27/2004		
2003	20030241	D & L INC	30518	"P.O BOX 877,2617 HWY 49 S"	COLLINS	COVINGTON	MS	39428						MS	0	0	0	0	1	0	0	0	0	0	1	0	0	0	0	1	0	0	0	0	0	1	0	0	0	0	0	0	0	0	0	0	0	0	0	0	0	0	0	0	0	0	0	0	0	0	0	0	0	0	0	0	0	0	0	0	0	0	0	1	0	0	0	1	0	0	0	0	0	0	0	0	0	0	0	0	0	0	0	0	0	0	0	0	0	0	0	1	0	0	0	1	3000	0	0	0	0	0	0	0	0	0	0	0	0	0	0	0	0	0	0	0	0	0	0	0	0	0	0	0	0	0	0	0	0	0	0	0	0	0	0	1	0	0	1	0	0	0	0	0	0	0	0	0	0	0	0	0	0	0	0	0	0	0	0	0	0	0	0	1	0	0	1	0	0	0	0	0	0	0	0	0	0	0	0	0	0	0		THOMAS HALL - OFFICE MANAGER	6017658255	2/18/2004	2/27/2004		
2003	20030242	"STONINGTON, VILLAGE OF"	18656	416 N. MAIN ST PO BOX 290	STONINGTON	CHRISTIAN	IL	62567	416 N. MAIN ST PO BOX 290	STONINGTON	CHRISTIAN	IL	62567	 IL	0	0	0	9	4	0	0	0	0	0	13	0	0	0	495	15	0	0	0	0	0	510	0	5	4	0	0	0	9	0	0	0	0	0	0	0	0	0	0	0	0	0	0	0	0	0	0	0	0	0	0	1	3	0	0	0	4	0	0	0	0	0	0	0	0	0	0	0	0	0	0	0	0	0	0	0	0	0	0	0	0	0	0	0	0	0	6	7	0	0	0	13	0	0	489	4	0	0	0	493	0	0	0	0	0	0	0	0	0	0	0	0	0	0	0	0	0	0	0	0	0	0	0	0	0	0	0	0	0	15	2	0	0	0	17	0	0	0	0	0	0	0	0	0	0	0	0	0	0	0	0	0	0	0	0	0	0	504	6	0	0	0	510	0	0	0	0	0	0	0	0	0	0	0	0	0	0	0		KATHY SIDES	2173253621	2/18/2004	2/27/2004		
2003	20030243	WHEELER BASIN NATURAL GAS CO	31157	3960 COUNTY ROAD 434	MOULTON	LAWRENCE	AL	35650	3960 COUNTY ROAD 434	MOULTON	LAWRENCE	AL	35650	AL	0	0	0	23	141	0	0	0	0	0	164	0	0	0	40	3196	0	0	0	0	0	3236	0	0	5	18	0	0	23	0	0	0	0	0	0	0	0	0	0	0	0	0	0	0	0	0	0	0	0	0	0	0	0	0	0	0	0	0	78	44	19	0	0	141	0	0	0	0	0	0	0	0	0	0	0	0	0	0	0	0	0	0	0	0	0	0	78	49	37	0	0	164	192	0	38	2	0	0	0	40	0	0	0	0	0	0	0	0	0	0	0	0	0	0	0	0	0	0	0	0	0	0	0	0	0	0	0	0	0	3189	7	0	0	0	3196	0	0	0	0	0	0	0	0	0	0	0	0	0	0	0	0	0	0	0	0	0	0	3227	9	0	0	0	3236	0	0	0	0	3	19	2	0	0	0	0	0	0	0	2.43		GUS MAGRINI	2569749023	2/18/2004	2/27/2004		
2003	20030244	FORT PIERCE UTILITIES AUTH - GAS DEPT	5460	715 SOUTH 25TH STREET 	FORT PIERCE NORTHWEST	ST LUCIE	FL	34950	P O BOX 3191	FORT PIERCE NORTHWEST	ST LUCIE	FL	34948-3191	 FL	0	0	0	119	43	0	0	0	0	0	162	0	0	0	2402	2524	0	0	0	0	0	4926	0	94	16	9	0	0	119	0	0	0	0	0	0	0	0	0	0	0	0	0	0	0	0	0	0	0	0	0	0	0	0	0	0	0	0	0	21	22	0	0	0	43	0	0	0	0	0	0	0	0	0	0	0	0	0	0	0	0	0	0	0	0	0	0	115	38	9	0	0	162	96	0	2347	51	2	2	0	2402	0	0	0	0	0	0	0	0	0	0	0	0	0	0	0	0	0	0	0	0	0	0	0	0	0	0	0	0	0	2485	38	1	0	0	2524	0	0	0	0	0	0	0	0	0	0	0	0	0	0	0	0	0	0	0	0	0	0	4832	89	3	2	0	4926	5	20	0	1	2	25	0	0	0	0	0	34	0	0	4.3		PETER HELMICH	7724661600	2/18/2004	2/27/2004		
2003	20030245	METCALFE MUNICIPAL GAS	12383	315 MLK DR.	METCALFE	WASHINGTON	MS	38760	315 MLK DR. 	METCALFE	WASHINGTON	MS	38760	MS	0	0	0	0	10	0	0	0	0	0	10	0	0	0	0	477	0	0	0	0	0	477	0	0	0	0	0	0	0	0	0	0	0	0	0	0	0	0	0	0	0	0	0	0	0	0	0	0	0	0	0	0	0	0	0	0	0	0	10	0	0	0	0	10	0	0	0	0	0	0	0	0	0	0	0	0	0	0	0	0	0	0	0	0	0	0	10	0	0	0	0	10	0	0	0	0	0	0	0	0	0	0	0	0	0	0	0	0	0	0	0	0	0	0	0	0	0	0	0	0	0	0	0	0	0	0	0	0	0	476	1	0	0	0	477	0	0	0	0	0	0	0	0	0	0	0	0	0	0	0	0	0	0	0	0	0	0	476	1	0	0	0	477	0	1	0	0	0	0	0	0	0	0	0	0	1	1	0.13		TOWN OF METCALFE NATURAL GAS SYSTEM	6623350212	2/18/2004	2/27/2004		
2003	20030246	"LAKE CITY, CITY OF"	11113	150 N ALACHUA PO BOX 1687	LAKE CITY	COLUMBIA	FL	32055						FL	0	0	0	154	20	0	0	0	0	0	174	0	0	0	4063	403	0	0	0	0	0	4466	0	22	96	36	0	0	154	0	0	0	0	0	0	0	0	0	0	0	0	0	0	0	0	0	0	0	0	0	0	0	0	0	0	0	0	0	8	7	5	0	0	20	0	0	0	0	0	0	0	0	0	0	0	0	0	0	0	0	0	0	0	0	0	0	30	103	41	0	0	174	0	0	4016	47	0	0	0	4063	0	0	0	0	0	0	0	0	0	0	0	0	0	0	0	0	0	0	0	0	0	0	0	0	0	0	0	0	0	390	13	0	0	0	403	0	0	0	0	0	0	0	0	0	0	0	0	0	0	0	0	0	0	0	0	0	0	4406	60	0	0	0	4466	0	1	0	5	0	0	0	47	0	36	2	2	2	0		UNACCOUNTED  FOR GAS -6%	DEIDRE HOUK	3867585404	2/18/2004	2/27/2004		
2003	20030247	HARTLEY MUNICIPAL UTILITIES	986	11 S. CENTRAL AVE.	HARTLEY	O'BRIAN	IA	51346						IA	0	0	0	10	4	0	0	0	0	0	14	0	0	0	702	66	0	0	0	0	0	768	0	8	2	0	0	0	10	0	0	0	0	0	0	0	0	0	0	0	0	0	0	0	0	0	0	0	0	0	0	0	0	0	0	0	0	0	2	2	0	0	0	4	0	0	0	0	0	0	0	0	0	0	0	0	0	0	0	0	0	0	0	0	0	0	10	4	0	0	0	14	100	0	702	0	0	0	0	702	0	0	0	0	0	0	0	0	0	0	0	0	0	0	0	0	0	0	0	0	0	0	7	0	0	0	0	7	0	59	0	0	0	0	59	0	0	0	0	0	0	0	0	0	0	0	0	0	0	0	0	0	0	0	0	0	0	768	0	0	0	0	768	0	0	0	0	0	0	0	0	0	0	0	0	0	0	0		DAN SHEPHERD - GAS MANAGER	7129282240	2/18/2004	2/27/2004		
2003	20030248	SIOUX CENTER MUNICIPAL GAS UTILITY	18336	335 1ST AVENUE NW	SIOUX CENTER	SIOUX	IA	51250						IA	0	0	0	32	21	0	0	0	0	0	53	0	0	0	1589	320	0	0	0	0	0	1909	0	26	5	1	0	0	32	0	0	0	0	0	0	0	0	0	0	0	0	0	0	0	0	0	0	0	0	0	0	0	0	0	0	0	0	0	9	1	11	0	0	21	0	0	0	0	0	0	0	0	0	0	0	0	0	0	0	0	0	0	0	0	0	0	35	6	12	0	0	53	80	0	1570	16	3	0	0	1589	0	0	0	0	0	0	0	0	0	0	0	0	0	0	0	0	0	0	0	0	0	0	0	0	0	0	0	0	0	313	4	1	2	0	320	0	0	0	0	0	0	0	0	0	0	0	0	0	0	0	0	0	0	0	0	0	0	1883	20	4	2	0	1909	0	0	0	0	0	0	0	0	1	0	0	0	11	0	0		HARLAN KRUID	7127220761	2/18/2004	2/27/2004		
2003	20030249	GOLDSBORO HOUSING AUTH	6439	1729 EDGERTON STREET	GOLDSBORO	WAYNE	NC	27530	1729 EDGERTON STREET	GOLDSBORO	WAYNE	NC	27530	NC	0	0	0	4	1	0	0	0	0	0	5	0	0	0	124	86	0	0	0	0	0	210	0	2	1	0	0	0	3	0	0	0	0	0	0	0	0	0	0	0	0	0	0	0	0	0	0	0	0	0	0	0	0	0	0	0	0	0	1	1	0	0	0	2	0	0	0	0	0	0	0	0	0	0	0	0	0	0	0	0	0	0	0	0	0	0	3	2	0	0	0	5	20	0	124	0	0	0	0	124	0	0	0	0	0	0	0	0	0	0	0	0	0	0	0	0	0	0	0	0	0	0	0	0	0	0	0	0	0	86	0	0	0	0	86	0	0	0	0	0	0	0	0	0	0	0	0	0	0	0	0	0	0	0	0	0	0	210	0	0	0	0	210	0	0	0	0	0	0	0	0	0	0	0	0	172	0	0	LEAK SURVEY COMPLETED DURING 2003 IDENTIFIED LEAKS (VERY MINOR) AT SOME NEWLY INSTSALLED REGULATORS AT METERS. THESE LEAKS ARE SYSTEMATICLY BEING REPAIRED BY REGULATOR REPLACEMENT.	STEPHEN K. JORDAN	9197354080	2/18/2004	2/27/2004		
2003	20030250	"PATTERSON GAS DEPT, CITY OF"	15161	1314 MAIN ST PO BOX 367	PATTERSON 		LA	70392						 LA	0	0	0	16	18	0	0	0	0	0	34	0	0	0	1296	1701	0	0	0	0	0	2997	0	13	3	0	0	0	16	0	0	0	0	0	0	0	0	0	0	0	0	0	0	0	0	0	0	0	0	0	0	0	0	0	0	0	0	0	15	3	0	0	0	18	0	0	0	0	0	0	0	0	0	0	0	0	0	0	0	0	0	0	0	0	0	0	28	6	0	0	0	34	30	0	1276	20	0	0	0	1296	0	0	0	0	0	0	0	0	0	0	0	0	0	0	0	0	0	0	0	0	0	0	0	0	0	0	0	0	0	1681	20	0	0	0	1701	0	0	0	0	0	0	0	0	0	0	0	0	0	0	0	0	0	0	0	0	0	0	2957	40	0	0	0	2997	0	8	5	16	0	0	0	0	0	0	0	0	29	0	0		LESTER AUCOIN	9853955205	2/18/2004	2/27/2004		
2003	20030251	"QUINCY MUNICIPAL GAS SYSTEM, CITY OF"	16010	423 WEST WASHINGTON ST.	QUINCY	GADSDEN	FL	32351						FL	0	0	0	73	0	0	0	0	0	0	73	0	0	0	2483	0	0	0	0	0	0	2483	0	56	16	1	0	0	73	0	0	0	0	0	0	0	0	0	0	0	0	0	0	0	0	0	0	0	0	0	0	0	0	0	0	0	0	0	0	0	0	0	0	0	0	0	0	0	0	0	0	0	0	0	0	0	0	0	0	0	0	0	0	0	0	0	56	16	1	0	0	73	75	0	2463	19	1	0	0	2483	0	0	0	0	0	0	0	0	0	0	0	0	0	0	0	0	0	0	0	0	0	0	0	0	0	0	0	0	0	0	0	0	0	0	0	0	0	0	0	0	0	0	0	0	0	0	0	0	0	0	0	0	0	0	0	0	0	2463	19	1	0	0	2483	0	0	0	2	0	0	0	0	0	0	5	33	0	0	0		"MIKE WADE, ASSISTANT DIRECTOR OF GAS/WATER/SEWER"	8506277681	2/18/2004	2/27/2004		
2003	20030252	"IOTA GAS DEPT, TOWN OF"	8230	116 DUSON AVE	ITOA	ACADIA PARISH	LA	70543	P O DRAWER 890	IOTA		LA	70543	 LA	0	0	0	20	6	0	0	0	0	0	26	0	0	0	556	65	0	0	0	0	0	621	0	10	10	0	0	0	20	0	0	0	0	0	0	0	0	0	0	0	0	0	0	0	0	0	0	0	0	0	0	1	0	0	0	0	1	0	5	0	0	0	0	5	0	0	0	0	0	0	0	0	0	0	0	0	0	0	0	0	0	0	0	0	0	0	16	10	0	0	0	26	47	0	556	0	0	0	0	556	0	0	0	0	0	0	0	0	0	0	0	0	0	0	0	0	0	0	0	0	0	0	5	0	0	0	0	5	0	60	0	0	0	0	60	0	0	0	0	0	0	0	0	0	0	0	0	0	0	0	0	0	0	0	0	0	0	621	0	0	0	0	621	0	0	0	0	0	0	0	0	0	0	0	12	1	0	0.0005		GREG ARABIE	3377792597	2/18/2004	2/27/2004		
2003	20030253	"LONG BEACH GAS DEPT, CITY OF"	11712	2400 E. SPRING STREET	LONG BEACH	LOS ANGELES	CA	90806						CA	0	0	0	881	38	0	0	0	0	0	919	0	0	0	70948	20443	0	0	0	0	0	91391	0	218	486	89	44	44	881	0	0	0	0	0	0	0	0	0	0	0	0	0	0	0	0	0	0	0	0	0	0	0	0	0	0	0	0	0	37	1	0	0	0	38	0	0	0	0	0	0	0	0	0	0	0	0	0	0	0	0	0	0	0	0	0	0	255	487	89	44	44	919	70	0	59371	11415	152	10	0	70948	0	0	0	0	0	0	0	0	0	0	0	0	0	0	0	0	0	0	0	0	0	0	0	0	0	0	0	0	0	18856	1586	1	0	0	20443	0	0	0	0	0	0	0	0	0	0	0	0	0	0	0	0	0	0	0	0	0	0	78227	13001	153	10	0	91391	31	168	0	21	7	52	0	2	4	94	8	1784	0	0	0.1	"OF THE 1,784 LEAKS CLASSIFIED AS OTHER, 1,595 WERE AT THE METER SET ASSEMBLY.  THE MAJORITY OF THESE LEAKS WERE DISCOVERED DURING THE PRESSURE BETTERMENT PROJECTS DURING THE PAST YEAR. "	MIKE ZUKOSKI	5625702038	2/18/2004	2/27/2004		
2003	20030254	"DILLEY GAS SYSTEM, CITY OF"	3410	101 S. COMMERCE STREET	DILLEY	FRIO	TX	78017						TX	0	0	0	18	0	0	0	0	0	2	20	0	0	0	754	0	0	0	0	0	60	814	0	0	12	6	0	0	18	0	0	0	0	0	0	0	0	0	0	0	0	0	0	0	0	0	0	0	0	0	0	0	0	0	0	0	0	0	0	1	1	0	0	2	0	0	0	0	0	0	0	0	0	0	0	0	0	0	0	0	0	0	0	0	0	0	0	13	7	0	0	20	20	0	753	0	0	0	0	753	0	0	0	0	0	0	0	0	0	0	0	0	0	0	0	0	0	0	0	0	0	0	0	0	0	0	0	0	0	60	1	0	0	0	61	0	0	0	0	0	0	0	0	0	0	0	0	0	0	0	0	0	0	0	0	0	0	813	1	0	0	0	814	0	9	0	3	0	0	0	0	0	0	0	0	0	0	8.62		LUIS MARTINEZ	8309651624	2/26/2004	2/27/2004		
2003	20030255	TIPTON MUNICIPAL UTILITIES	19470	407 LYNN STREET	TIPTON	CEDAR	IA	52772						 IA	0	0	0	18	2	0	0	0	0	0	20	0	0	0	1234	165	0	0	0	0	0	1399	0	14	3	1	0	0	18	0	0	0	0	0	0	0	0	0	0	0	0	0	0	0	0	0	0	0	0	0	0	0	0	0	0	0	0	0	0	2	0	0	0	2	0	0	0	0	0	0	0	0	0	0	0	0	0	0	0	0	0	0	0	0	0	0	14	5	1	0	0	20	70	0	1182	52	0	0	0	1234	0	0	0	0	0	0	0	0	0	0	0	0	0	0	0	0	0	0	0	0	0	0	0	0	0	0	0	0	0	161	4	0	0	0	165	0	0	0	0	0	0	0	0	0	0	0	0	0	0	0	0	0	0	0	0	0	0	1343	56	0	0	0	1399	0	0	0	1	0	0	0	0	0	0	0	0	1	0	0		VIRGIL PENROD	5638866187	2/18/2004	2/27/2004		
2003	20030256	GAINESVILLE REGIONAL UTIL GAS DEPT	6030	3805 NW 97 BLVD	GAINESVILLE	ALACHUA	FL	32614						 FL	14	0	0	182	417	8	0	0	0	0	621	603	0	0	151	24161	0	0	680	1470	0	27065	0	78	69	49	0	0	196	0	0	0	0	0	0	0	0	0	0	0	0	0	0	0	0	7	1	0	0	8	0	0	0	0	0	0	0	0	273	123	21	0	0	417	0	0	0	0	0	0	0	0	0	0	0	0	0	0	0	0	0	0	0	0	0	0	351	199	71	0	0	621	0	0	596	134	17	7	0	754	0	0	0	0	0	0	0	0	680	0	0	0	0	680	0	0	0	0	0	0	0	0	0	0	0	0	0	0	0	24057	99	5	0	0	24161	0	0	0	0	0	0	0	1470	0	0	0	0	0	1470	0	0	0	0	0	0	0	1470	25333	233	22	7	0	27065	0	8	1	16	22	105	0	3	0	0	13	29	1	0		UNACCOUNTED FOR GAS -2.86%    1.  WE ARE IN THE PROCESS OF UPDATING OUR MAPPING SYSTEM FROM PAPER TO ARCINFO.  IMPROVE ACCURACY IS      EXPECTED.  2.  AN EXACT BREAKDOWN OF THE STEEL SERVICES IS CURRENTLY UNAVAILABLE.  I ESTIMATE THAT 80% ARE BARE.	ANTHONY D. HEWITT	3523346020	2/18/2004	3/1/2004		
2003	20030257	FORT COBB FUEL IRRIGATION AUTH	5405	PO BOX 183	EAKLY	CADDO	OK	73033	JCT 58 & 152 HWY	EAKLY	CADDO	OK	73033	 OK	0	0	0	30	589	0	0	0	0	0	619	0	0	0	712	1371	0	0	0	0	0	2083	0	27	3	0	0	0	30	0	0	0	0	0	0	0	0	0	0	0	0	0	0	0	0	0	0	0	0	0	0	445	54	0	0	0	499	0	76	14	0	0	0	90	0	0	0	0	0	0	0	0	0	0	0	0	0	0	0	0	0	0	0	0	0	0	548	71	0	0	0	619	100	0	707	5	0	0	0	712	0	0	0	0	0	0	0	0	0	0	0	0	0	0	0	0	0	0	0	0	0	0	570	29	0	0	0	599	0	195	577	0	0	0	772	0	0	0	0	0	0	0	0	0	0	0	0	0	0	0	0	0	0	0	0	0	0	1472	611	0	0	0	2083	0	0	0	0	4	12	0	0	3	4	0	0	0	0	8.4	"GAS PURCHASE 214,924 MMBTU  GAS SALES         196,846                               _______                                 1 8078"	SUE YEARWOOD	4057973303	2/18/2004	3/1/2004		
2003	20030258	"LONGFORD GAS SYSTEM, CITY OF"	11565	102 WEDA	LONGFORD	CLAY	KS	7458	102 WEDA	LONGFORD	CLAY	KS	7458	 KS	0	0	0	0	11	0	0	0	0	0	11	0	0	0	0	47	0	0	0	0	0	47	0	0	0	0	0	0	0	0	0	0	0	0	0	0	0	0	0	0	0	0	0	0	0	0	0	0	0	0	0	0	0	0	0	0	0	0	5	6	0	0	0	11	0	0	0	0	0	0	0	0	0	0	0	0	0	0	0	0	0	0	0	0	0	0	5	6	0	0	0	11	73	0	0	0	0	0	0	0	0	0	0	0	0	0	0	0	0	0	0	0	0	0	0	0	0	0	0	0	0	0	0	0	0	0	0	0	0	54	1	0	0	0	55	0	0	0	0	0	0	0	0	0	0	0	0	0	0	0	0	0	0	0	0	0	0	54	1	0	0	0	55	0	0	0	0	0	0	0	0	0	0	0	0	0	0	0	12-03-03  THREADED JOINTS IN TBS WERE LEAKING REPAIRED BY MIKE TILSON UCI & CHESTER M. SMITH	CHESTER M. SMITH	7853882124	2/18/2004	3/1/2004		
2003	20030259	"FAYETTE GAS BOARD, CITY OF"	5090	315 2ND AVE SE	FAYETTE	FAYETTE	AL	35555						 AL	0	0	0	39	67	0	0	0	0	0	106	0	0	0	159	2278	0	0	0	0	0	2437	0	21	17	1	0	0	39	0	0	0	0	0	0	0	0	0	0	0	0	0	0	0	0	0	0	0	0	0	0	0	0	0	0	0	0	0	44	23	0	0	0	67	0	0	0	0	0	0	0	0	0	0	0	0	0	0	0	0	0	0	0	0	0	0	65	40	1	0	0	106	150	0	128	24	7	0	0	159	0	0	0	0	0	0	0	0	0	0	0	0	0	0	0	0	0	0	0	0	0	0	0	0	0	0	0	0	0	2258	19	1	0	0	2278	0	0	0	0	0	0	0	0	0	0	0	0	0	0	0	0	0	0	0	0	0	0	2386	43	8	0	0	2437	0	0	0	0	0	0	0	0	0	1	0	21	0	0	2	*1 UNDERGROUND LEAK (REPAIRED) & 21 ABOVE GROUND LEAKS (REPAIRED)	JEANNIE FELTMAN	2059325269	2/18/2004	3/1/2004		
2003	20030260	"CLEARWATER GAS SYSTEM, CITY OF"	2488	400 NORTH MYRTLE AVE	CLEARWATER	PINELLAS	FL	33755						 FL	70	0	0	182	413	22	0	0	0	0	687	1337	0	0	1567	15373	0	0	0	0	0	18277	0	16	171	65	0	0	252	0	0	0	0	0	0	0	0	0	0	0	0	0	0	0	0	22	0	0	0	22	0	0	0	0	0	0	0	0	326	55	32	0	0	413	0	0	0	0	0	0	0	0	0	0	0	0	0	0	0	0	0	0	0	0	0	0	342	248	97	0	0	687	100	0	2757	135	12	0	0	2904	0	0	0	0	0	0	0	0	0	0	0	0	0	0	0	0	0	0	0	0	0	0	0	0	0	0	0	0	0	15207	98	68	0	0	15373	0	0	0	0	0	0	0	0	0	0	0	0	0	0	0	0	0	0	0	0	0	0	17964	233	80	0	0	18277	16	6	0	0	53	51	1	1	6	4	1	2	0	0	0		BRIAN LANGILLE	7275624903	2/18/2004	3/1/2004		
2003	20030261	ORANGE & ROCKLAND UTILITY INC	14330	ONE BLUE HILL PLAZA	PEARL RIVER	ROCKLAND	NY	10965						 NY	102	0	0	886	766	48	0	0	0	0	1802	9338	0	0	30252	71710	0	0	0	0	0	111300	0	487	233	195	52	21	988	0	0	0	0	0	0	0	0	0	0	0	0	0	0	0	0	27	17	4	0	48	0	0	0	0	0	0	0	0	624	113	29	0	0	766	0	0	0	0	0	0	0	0	0	0	0	0	0	0	0	0	0	0	0	0	0	0	1111	373	241	56	21	1802	74	0	32294	7232	62	0	2	39590	0	0	0	0	0	0	0	0	0	0	0	0	0	0	0	0	0	0	0	0	0	0	0	0	0	0	0	0	0	69434	2213	60	3	0	71710	0	0	0	0	0	0	0	0	0	0	0	0	0	0	0	0	0	0	0	0	0	0	101728	9445	122	3	2	111300	262	197	0	0	48	168	3	7	39	17	19	27	56	0	3.3		RICHARD MATHSEN/SR. COAST CONTROL ANALYST	8455572530	2/18/2004	3/1/2004		
2003	20030262	PALATKA GAS AUTH	15042	518 MAIN STREET	PALATKA	PUTNAM	FL	32177						 FL	0	0	0	73	28	0	0	0	0	0	101	0	0	0	2109	2291	0	0	0	0	0	4400	0	9	51	13	0	0	73	0	0	0	0	0	0	0	0	0	0	0	0	0	0	0	0	0	0	0	0	0	0	0	0	0	0	0	0	0	20	8	0	0	0	28	0	0	0	0	0	0	0	0	0	0	0	0	0	0	0	0	0	0	0	0	0	0	29	59	13	0	0	101	90	0	2076	33	0	0	0	2109	0	0	0	0	0	0	0	0	0	0	0	0	0	0	0	0	0	0	0	0	0	0	0	0	0	0	0	0	0	2273	18	0	0	0	2291	0	0	0	0	0	0	0	0	0	0	0	0	0	0	0	0	0	0	0	0	0	0	4349	51	0	0	0	4400	0	1	0	0	0	14	0	0	0	0	0	7	0	0	0	OTHER- 3 VALVES NEEDING GREASE                 3 REGULATORS VENTING                 1 THRED LEAK    CORROSION- 1 ABOVE GROUND	HARVEY C. DENO	3863281591	2/18/2004	3/1/2004		
2003	20030263	PONCA GAS DEPT	15742	115 3RD STREET	PONCA 	DIXON	NE	68770						 NE	0	0	0	1	6	0	0	0	0	0	7	0	0	0	3	372	0	0	0	0	0	375	0	0	1	0	0	0	1	0	0	0	0	0	0	0	0	0	0	0	0	0	0	0	0	0	0	0	0	0	0	0	0	0	0	0	0	0	6	0	0	0	0	6	0	0	0	0	0	0	0	0	0	0	0	0	0	0	0	0	0	0	0	0	0	0	6	1	0	0	0	7	0	0	3	0	0	0	0	3	0	0	0	0	0	0	0	0	0	0	0	0	0	0	0	0	0	0	0	0	0	0	0	0	0	0	0	0	0	372	0	0	0	0	372	0	0	0	0	0	0	0	0	0	0	0	0	0	0	0	0	0	0	0	0	0	0	375	0	0	0	0	375	0	0	0	0	0	0	0	0	0	0	0	0	0	0	0		LARRY KINNEAR	4027554165	2/18/2004	3/1/2004		
2003	20030264	HASTINGS UTILITIES	7135	1228 N DENVER	HASTINGS	ADAMS	NE	68902						 NE	0	0	1	143	13	0	0	0	0	0	157	0	5	5	7903	1172	0	0	0	0	0	9085	0	76	41	26	1	0	144	0	0	0	0	0	0	0	0	0	0	0	0	0	0	0	0	0	0	0	0	0	0	0	0	0	0	0	0	0	7	6	0	0	0	13	0	0	0	0	0	0	0	0	0	0	0	0	0	0	0	0	0	0	0	0	0	0	83	47	26	1	0	157	100	0	3517	4347	45	4	0	7913	0	0	0	0	0	0	0	0	0	0	0	0	0	0	0	0	0	0	0	0	0	0	0	0	0	0	0	0	0	1131	39	2	0	0	1172	0	0	0	0	0	0	0	0	0	0	0	0	0	0	0	0	0	0	0	0	0	0	4648	4386	47	4	0	9085	0	0	1	0	6	11	0	1	0	0	0	1	0	0	0		ED FIEHARTY/GAS SUPERVISOR	4024631371	2/18/2004	3/1/2004		
2003	20030265	"JAY, TOWN OF"	9160	P.O. BOX 66	JAY 	SANTA ROSA	FL	32565						 FL	0	0	0	12	20	0	0	0	0	0	32	0	0	0	293	192	0	0	0	0	0	485	0	9	3	0	0	0	12	0	0	0	0	0	0	0	0	0	0	0	0	0	0	0	0	0	0	0	0	0	0	0	0	0	0	0	0	0	18	2	0	0	0	20	0	0	0	0	0	0	0	0	0	0	0	0	0	0	0	0	0	0	0	0	0	0	27	5	0	0	0	32	0	0	288	3	0	0	0	291	0	0	0	0	0	0	0	0	0	0	0	0	0	0	0	0	0	0	0	0	0	0	0	0	0	0	0	0	0	190	4	0	0	0	194	0	0	0	0	0	0	0	0	0	0	0	0	0	0	0	0	0	0	0	0	0	0	478	7	0	0	0	485	0	0	0	0	1	3	0	0	0	0	0	0	0	0	0		RAYMOND MCDANIEL/FOREMAN	8506754556	2/18/2004	3/1/2004		
2003	20030266	GALLATIN NATURAL GAS SYSTEM	6040	239 HANCOCK STREET	GALLATIN 	SUMNER	TN	37066						 TN	0	0	0	303	1	0	0	0	0	0	304	0	0	0	9455	149	0	0	0	0	0	9604	0	209	52	42	0	0	303	0	0	0	0	0	0	0	0	0	0	0	0	0	0	0	0	0	0	0	0	0	0	0	0	0	0	0	0	0	1	0	0	0	0	1	0	0	0	0	0	0	0	0	0	0	0	0	0	0	0	0	0	0	0	0	0	0	210	52	42	0	0	304	1000	0	9399	50	4	2	0	9455	0	0	0	0	0	0	0	0	0	0	0	0	0	0	0	0	0	0	0	0	0	0	0	0	0	0	0	0	0	149	0	0	0	0	149	0	0	0	0	0	0	0	0	0	0	0	0	0	0	0	0	0	0	0	0	0	0	9548	50	4	2	0	9604	6	0	0	0	1	0	3	0	6	0	0	0	0	0	1.34		MARK PARKER/ASST.SUPT. OF PUBLIC UTILITIES	6154515922	2/18/2004	3/1/2004		
2003	20030267	"GUEYDAN MUNICIPAL PLANT, TOWN OF"	6840	600 MAIN STREET	GUEYDAN	VERMILION	LA	70542						 LA	0	0	0	14	0	0	0	0	0	0	14	0	0	734	0	0	0	0	0	0	0	734	0	0	0	0	0	0	0	0	0	0	0	0	0	0	0	0	0	0	0	0	0	0	0	0	0	0	0	0	0	0	0	0	0	0	0	0	10	4	0	0	0	14	0	0	0	0	0	0	0	0	0	0	0	0	0	0	0	0	0	0	0	0	0	0	10	4	0	0	0	14	75	0	0	0	0	0	0	0	0	0	0	0	0	0	0	0	0	0	0	0	0	0	0	0	0	0	0	0	0	0	0	0	0	0	0	0	0	727	7	0	0	0	734	0	0	0	0	0	0	0	0	0	0	0	0	0	0	0	0	0	0	0	0	0	0	727	7	0	0	0	734	0	31	0	21	0	0	0	21	0	0	0	0	0	0	0		R HERBERT/CLERK	3375369415	2/18/2004	3/1/2004		
2003	20030269	BATH ELECTRIC GAS & WATER SYSTEMS	1168	7-11 SOUTH AVE PO BOX 310	BATH	STEUBEN	NY	14810						 NY	17	0	0	5	14	0	0	0	0	0	36	1020	0	0	39	758	1	0	40	0	0	1858	0	1	13	8	0	0	22	0	0	0	0	0	0	0	0	0	0	0	0	0	0	0	0	0	0	0	0	0	0	0	3	0	0	0	3	0	2	8	1	0	0	11	0	0	0	0	0	0	0	0	0	0	0	0	0	0	0	0	0	0	0	0	0	0	3	24	9	0	0	36	72	0	348	702	6	3	0	1059	0	0	0	0	0	0	0	0	40	0	0	0	0	40	0	0	1	0	0	0	1	0	0	84	1	0	0	85	0	257	413	3	0	0	673	0	0	0	0	0	0	0	0	0	0	0	0	0	0	0	0	0	0	0	0	0	0	645	1200	10	3	0	1858	22	11	0	0	0	0	0	0	0	0	0	0	13	0	4.46	NONE	"PAUL G. WEBSTER, ACCOUNTING SUPERVISOR"	6077763072	2/18/2004	3/1/2004		
2003	20030270	"PEARSALL GAS DEPT, CITY OF"	15189	213 S. OAK 	PEARSALL 	FRIO	TX	78061						 TX	0	0	7	6	8	0	0	0	0	29	50	0	0	244	443	244	0	0	0	0	1251	2182	0	4	6	3	0	0	13	0	0	0	0	0	0	0	0	0	0	0	0	0	0	0	0	0	0	0	0	0	0	2	5	1	0	0	8	0	17	11	1	0	0	29	0	0	0	0	0	0	0	0	0	0	0	0	0	0	0	0	0	0	0	0	0	0	23	22	5	0	0	50	10	650	14	0	0	0	0	664	0	0	0	0	0	0	0	0	0	0	0	0	0	0	0	0	0	0	0	0	0	264	20	0	0	0	0	284	1234	0	0	0	0	0	1234	0	0	0	0	0	0	0	0	0	0	0	0	0	0	0	0	0	0	0	0	0	2148	34	0	0	0	0	2182	6	2	0	0	0	0	0	0	0	0	2	0	16	0	26		CONRAD BANDA-ASSISTANT SUPT. UTILITIES	8303343676	2/18/2004	3/1/2004		
2003	20030271	"SHUQUALAK GAS DEPT, CITY OF"	18300	204 PINE STREET	SHUQUALAK	NOXUBEE	MS							 MS	0	0	0	17	4	0	0	0	0	0	21	0	0	0	195	0	0	0	0	0	0	195	0	11	6	0	0	0	17	0	0	0	0	0	0	0	0	0	0	0	0	0	0	0	0	0	0	0	0	0	0	0	4	0	0	0	4	0	0	0	0	0	0	0	0	0	0	0	0	0	0	0	0	0	0	0	0	0	0	0	0	0	0	0	0	0	11	10	0	0	0	21	0	0	194	1	0	0	0	195	0	0	0	0	0	0	0	0	0	0	0	0	0	0	0	0	0	0	0	0	0	0	0	0	0	0	0	0	0	0	0	0	0	0	0	0	0	0	0	0	0	0	0	0	0	0	0	0	0	0	0	0	0	0	0	0	0	194	1	0	0	0	195	0	5	0	0	0	0	0	0	0	0	0	0	1	0	11	"LEAK SURVEY CONDUCTED ON 12/10/03 BY HENRY CARLOCK OF CATHODIC SERVICES, INC., CLINTON, MS. SURVEY RAN USING SOUTHERN CROSS MODEL 400 IONIZATION FLAME PACK. THE J&W SNIFFER WAS USED TO PINPOINT AND GRADE TWO ( 2 )  LEAKS FOUND."	BOBBY J. WEAVER	6627934675	2/18/2004	3/1/2004		
2003	20030272	BURNSVILLE GAS CO	1922	359 HWY 72 E PO BOX 285	BURNSVILLE	TISHOMINGO	MS	38833						 MS	0	0	0	11	20	0	0	0	0	0	31	0	0	0	1	276	0	0	0	0	0	277	0	0	11	0	0	0	11	0	0	0	0	0	0	0	0	0	0	0	0	0	0	0	0	0	0	0	0	0	0	0	0	0	0	0	0	0	7	13	0	0	0	20	0	0	0	0	0	0	0	0	0	0	0	0	0	0	0	0	0	0	0	0	0	0	7	24	0	0	0	31	100	0	0	0	0	0	0	0	0	0	0	0	0	0	0	0	0	0	0	0	0	0	0	0	0	0	0	0	0	0	0	0	0	0	0	0	0	274	3	0	0	0	277	0	0	0	0	0	0	0	0	0	0	0	0	0	0	0	0	0	0	0	0	0	0	274	3	0	0	0	277	0	0	0	0	0	0	0	0	0	0	0	0	0	0	0.0009		MIKE HORTON/PRESIDENT	6622827454	2/19/2004	3/1/2004		
2003	20030273	CITY OF BOONEVILLE MUNICIPAL GAS	1624	200 N COLLEGE ST 	BOONEVILLE	PRENTISS	MS	38829						 MS	0	0	0	94	200	0	0	0	0	0	294	0	0	0	2090	3943	0	0	0	0	0	6033	0	60	19	15	0	0	94	0	0	0	0	0	0	0	0	0	0	0	0	0	0	0	0	0	0	0	0	0	0	0	0	0	0	0	0	0	161	38	1	0	0	200	0	0	0	0	0	0	0	0	0	0	0	0	0	0	0	0	0	0	0	0	0	0	221	57	16	0	0	294	0	0	2059	31	0	0	0	2090	0	0	0	0	0	0	0	0	0	0	0	0	0	0	0	0	0	0	0	0	0	0	0	0	0	0	0	0	0	3753	190	0	0	0	3943	0	0	0	0	0	0	0	0	0	0	0	0	0	0	0	0	0	0	0	0	0	0	5812	221	0	0	0	6033	1	2	0	1	0	79	0	9	0	17	0	17	0	0	3.138		TRENT JOHNSON	6627286259	2/19/2004	3/1/2004		
2003	20030274	DUNN HOUSING AUTH	3607	601 E CANARY ST 	DUNN	HARNETT	NC	28335						 NC	0	0	0	2	0	0	0	0	0	0	2	0	0	0	125	1	0	0	0	0	0	126	0	2	0	0	0	0	2	0	0	0	0	0	0	0	0	0	0	0	0	0	0	0	0	0	0	0	0	0	0	0	0	0	0	0	0	0	90	0	0	0	0	90	0	0	0	0	0	0	0	0	0	0	0	0	0	0	0	0	0	0	0	0	0	0	2	0	0	0	0	2	10	0	125	0	0	0	0	125	0	0	0	0	0	0	0	0	0	0	0	0	0	0	0	0	0	0	0	0	0	0	0	0	0	0	0	0	0	1	0	0	0	0	1	0	0	0	0	0	0	0	0	0	0	0	0	0	0	0	0	0	0	0	0	0	0	126	0	0	0	0	126	0	0	0	0	0	0	0	0	0	0	0	0	0	0	1		DARRELL L. BLEDSOE	9108925076	2/19/2004	3/1/2004		
2003	20030275	COMFURT GAS INC	2636	BOX 4947 / 102 LINDERMAN	BUENA VISTA	CHAFFEE	CO	81211						 CO	0	0	0	32	19	0	0	0	0	0	51	0	0	0	1189	608	0	0	0	0	0	1797	0	30	2	0	0	0	32	0	0	0	0	0	0	0	0	0	0	0	0	0	0	0	0	0	0	0	0	0	0	0	0	0	0	0	0	0	15	4	0	0	0	19	0	0	0	0	0	0	0	0	0	0	0	0	0	0	0	0	0	0	0	0	0	0	45	6	0	0	0	51	70	0	1189	0	0	0	0	1189	0	0	0	0	0	0	0	0	0	0	0	0	0	0	0	0	0	0	0	0	0	0	0	0	0	0	0	0	0	602	6	0	0	0	608	0	0	0	0	0	0	0	0	0	0	0	0	0	0	0	0	0	0	0	0	0	0	1791	6	0	0	0	1797	0	0	0	0	0	0	0	1	0	0	1	12	1	0	1.36		RANDY A. CRANE	7193950212	2/19/2004	3/1/2004		
2003	20030276	"LITTLE RIVER MUNICIPAL SYSTEM, CITY OF"	11560	125 MAIN ST / PO BOX 126	LITTLE RIVER	RICE	KS	67457					67457	 KS	0	0	0	3	1	0	0	0	0	0	4	0	0	0	263	44	0	0	0	0	0	307	0	2	1	0	0	0	3	0	0	0	0	0	0	0	0	0	0	0	0	0	0	0	0	0	0	0	0	0	0	0	0	0	0	0	0	0	1	0	0	0	0	1	0	0	0	0	0	0	0	0	0	0	0	0	0	0	0	0	0	0	0	0	0	0	3	1	0	0	0	4	0	0	0	263	0	0	0	263	0	0	0	0	0	0	0	0	0	0	0	0	0	0	0	0	0	0	0	0	0	0	0	0	0	0	0	0	0	0	44	0	0	0	44	0	0	0	0	0	0	0	0	0	0	0	0	0	0	0	0	0	0	0	0	0	0	0	307	0	0	0	307	0	0	0	0	0	0	0	1	0	1	0	0	0	0	2		SUE PETERS	6208976260	2/19/2004	2/27/2004		
2003	20030277	FLAT ROCK GAS DEPT	5220	PO BOX 81	FLAT ROCK	CRAWFORD	IL	62427					64627	 IL	0	0	0	6	8	0	0	0	0	0	14	0	0	0	51	211	0	0	0	0	0	262	0	0	6	0	0	0	6	0	0	0	0	0	0	0	0	0	0	0	0	0	0	0	0	0	0	0	0	0	0	0	0	0	0	0	0	0	0	0	0	0	0	0	0	0	0	0	0	0	0	0	8	0	0	0	0	8	0	0	0	0	0	0	0	0	8	6	0	0	0	14	50	0	51	0	0	0	0	51	0	0	0	0	0	0	0	0	0	0	0	0	0	0	0	0	0	0	0	0	0	0	0	0	0	0	0	0	0	0	0	0	0	0	0	0	0	0	0	0	0	0	0	0	0	0	0	0	0	0	211	0	0	0	0	211	0	262	0	0	0	0	262	0	0	0	4	0	0	0	0	0	0	0	0	0	0	4		RONALD BRANNON	6185843332	2/19/2004	2/27/2004		
2003	20030278	BARLOW NATURAL GAS SYSTEM	1128	"PO BOX 590, 311 COURT ST."	WICKLIFFE	BALLARD	KY	42807						 KY	0	0	0	19	3	0	0	0	0	0	22	0	0	0	199	190	0	0	0	0	0	389	0	5	14	0	0	0	19	0	0	0	0	0	0	0	0	0	0	0	0	0	0	0	0	0	0	0	0	0	0	0	0	0	0	0	0	0	3	0	0	0	0	3	0	0	0	0	0	0	0	0	0	0	0	0	0	0	0	0	0	0	0	0	0	0	8	14	0	0	0	22	0	0	197	2	0	0	0	199	0	0	0	0	0	0	0	0	0	0	0	0	0	0	0	0	0	0	0	0	0	0	0	0	0	0	0	0	0	189	1	0	0	0	190	0	0	0	0	0	0	0	0	0	0	0	0	0	0	0	0	0	0	0	0	0	0	386	3	0	0	0	389	0	0	0	0	0	0	0	0	0	0	0	0	0	0	1		ZANE T. DRAPER	2703353116	2/19/2004	2/27/2004		
2003	20030279	"ARLINGTON GAS SYSTEM, CITY OF"	648	"PO BOX 590, 311 COURT ST."	WICKLIFFE	BALLARD	KY	42087					42087	 KY	0	0	0	14	7	0	0	0	0	0	21	0	0	0	133	349	0	0	0	0	0	482	0	3	11	0	0	0	14	0	0	0	0	0	0	0	0	0	0	0	0	0	0	0	0	0	0	0	0	0	0	0	0	0	0	0	0	0	7	0	0	0	0	7	0	0	0	0	0	0	0	0	0	0	0	0	0	0	0	0	0	0	0	0	0	0	10	11	0	0	0	21	0	0	132	1	0	0	0	133	0	0	0	0	0	0	0	0	0	0	0	0	0	0	0	0	0	0	0	0	0	0	0	0	0	0	0	0	0	348	1	0	0	0	349	0	0	0	0	0	0	0	0	0	0	0	0	0	0	0	0	0	0	0	0	0	0	480	2	0	0	0	482	0	0	0	0	0	0	0	0	0	0	0	0	0	0	1		ZANE T. DRAPPER	2703353116	2/19/2004	2/27/2004		
2003	20030280	WICKLIFFE NATURAL GAS SYSTEM	22602	"PO BOX 590, 311 COURT ST."	WICKLIFFE	BALLARD	KY	42087					42087	 KY	0	0	0	18	6	0	0	0	0	0	24	0	0	0	338	290	0	0	0	0	0	628	0	8	10	0	0	0	18	0	0	0	0	0	0	0	0	0	0	0	0	0	0	0	0	0	0	0	0	0	0	0	0	0	0	0	0	0	6	0	0	0	0	6	0	0	0	0	0	0	0	0	0	0	0	0	0	0	0	0	0	0	0	0	0	0	14	10	0	0	0	24	0	0	335	3	0	0	0	338	0	0	0	0	0	0	0	0	0	0	0	0	0	0	0	0	0	0	0	0	0	0	0	0	0	0	0	0	0	289	1	0	0	0	290	0	0	0	0	0	0	0	0	0	0	0	0	0	0	0	0	0	0	0	0	0	0	624	4	0	0	0	628	0	0	0	0	1	0	0	0	0	0	0	0	0	0	2		ZANE T. DRAPER	2703353116	2/19/2004	2/27/2004		
2003	20030281	"CLINTON GAS SYSTEM, CITY OF"	2508	"PO BOX 590, 311 COURT ST."	WICKLIFFE 	BALLARD	KY	42087						 KY	0	0	0	21	5	0	0	0	0	0	26	0	0	0	437	436	0	0	0	0	0	873	0	8	13	0	0	0	21	0	0	0	0	0	0	0	0	0	0	0	0	0	0	0	0	0	0	0	0	0	0	0	0	0	0	0	0	0	5	0	0	0	0	5	0	0	0	0	0	0	0	0	0	0	0	0	0	0	0	0	0	0	0	0	0	0	13	13	0	0	0	26	100	0	430	7	0	0	0	437	0	0	0	0	0	0	0	0	0	0	0	0	0	0	0	0	0	0	0	0	0	0	0	0	0	0	0	0	0	435	1	0	0	0	436	0	0	0	0	0	0	0	0	0	0	0	0	0	0	0	0	0	0	0	0	0	0	865	8	0	0	0	873	0	0	0	0	1	0	0	0	0	0	0	0	0	0	0		ZANE T. DRAPER	2703353116	2/19/2004	2/27/2004		
2003	20030282	LA CENTER NATURAL GAS SYSTEM	11016	"P.O. BOX 590, 311 CORT ST"	WICKLIFFE	BALLARD	KY	42087					42087	 KS KY	0	0	0	11	0	0	0	0	0	0	11	0	0	0	369	170	0	0	0	0	0	539	0	7	4	0	0	0	11	0	0	0	0	0	0	0	0	0	0	0	0	0	0	0	0	0	0	0	0	0	0	0	0	0	0	0	0	0	0	0	0	0	0	0	0	0	0	0	0	0	0	0	0	0	0	0	0	0	0	0	0	0	0	0	0	0	7	4	0	0	0	11	100	0	0	366	3	0	0	369	0	0	0	0	0	0	0	0	0	0	0	0	0	0	0	0	0	0	0	0	0	0	0	0	0	0	0	0	0	0	169	1	0	0	170	0	0	0	0	0	0	0	0	0	0	0	0	0	0	0	0	0	0	0	0	0	0	0	535	4	0	0	539	0	0	0	0	2	1	0	0	0	0	0	0	0	0	1		ZANE T. DRAPER	2703353116	2/19/2004	2/27/2004		
2003	20030283	KEVIL NATURAL GAS SYSTEM	10210	"PO BOX 590, 311 COURT ST"	WICKLIFFE	BALLARD	KY	42087						 KY	0	0	0	7	4	0	0	0	0	0	11	0	0	0	154	307	0	0	0	0	0	461	0	7	0	0	0	0	7	0	0	0	0	0	0	0	0	0	0	0	0	0	0	0	0	0	0	0	0	0	0	0	0	0	0	0	0	0	4	0	0	0	0	4	0	0	0	0	0	0	0	0	0	0	0	0	0	0	0	0	0	0	0	0	0	0	11	0	0	0	0	11	100	0	153	1	0	0	0	154	0	0	0	0	0	0	0	0	0	0	0	0	0	0	0	0	0	0	0	0	0	0	0	0	0	0	0	0	0	305	2	0	0	0	307	0	0	0	0	0	0	0	0	0	0	0	0	0	0	0	0	0	0	0	0	0	0	458	3	0	0	0	461	0	0	0	0	1	0	0	0	0	0	0	0	0	0	1		ZANE T. DRAPER	2703353116	2/19/2004	2/27/2004		
2003	20030284	KROTZ SPRINGS GAS SYSTEM	10340	PO BOX 218	KROTZ SPRINGS		LA	70750						 LA	0	2	0	0	9	0	0	0	0	0	11	0	2	0	0	608	0	0	0	0	0	610	0	0	2	0	0	0	2	0	0	0	0	0	0	0	0	0	0	0	0	0	0	0	0	0	0	0	0	0	0	0	0	0	0	0	0	0	9	0	0	0	0	9	0	0	0	0	0	0	0	0	0	0	0	0	0	0	0	0	0	0	0	0	0	0	9	2	0	0	0	11	64	0	0	2	0	0	0	2	0	0	0	0	0	0	0	0	0	0	0	0	0	0	0	0	0	0	0	0	0	0	0	0	0	0	0	0	0	608	0	0	0	0	608	0	0	0	0	0	0	0	0	0	0	0	0	0	0	0	0	0	0	0	0	0	0	608	2	0	0	0	610	0	0	0	0	0	2	0	0	0	0	0	3	0	0	0		FLOYD E. MASON	3375663649	2/20/2004	2/27/2004		
2003	20030285	"CROSSVILLE GAS SYSTEM, VILLAGE OF"	2888											 AK	0	0	0	15	0	0	0	0	0	0	15	0	0	0	471	0	0	0	0	0	0	471	0	8	7	0	0	0	15	0	0	0	0	0	0	0	0	0	0	0	0	0	0	0	0	0	0	0	0	0	0	0	0	0	0	0	0	0	0	0	0	0	0	0	0	0	0	0	0	0	0	0	0	0	0	0	0	0	0	0	0	0	0	0	0	0	8	7	0	0	0	15	0	0	415	56	0	0	0	471	0	0	0	0	0	0	0	0	0	0	0	0	0	0	0	0	0	0	0	0	0	0	0	0	0	0	0	0	0	0	0	0	0	0	0	0	0	0	0	0	0	0	0	0	0	0	0	0	0	0	0	0	0	0	0	0	0	415	56	0	0	0	471	0	0	0	0	0	0	0	0	0	0	0	1	7	0	0		TIM MITCHELL	6189662237	2/19/2004	2/27/2004		
2003	20030286	VIRGINIA GAS DISTRIBUTION CO.	980	1096 OLD BERRY DRIVE	ABINGDON	WASHINGTON	VA	24230						 VA	0	0	0	1	24	0	0	0	0	0	25	0	0	0	0	299	0	0	0	0	0	299	0	0	1	0	0	0	1	0	0	0	0	0	0	0	0	0	0	0	0	0	0	0	0	0	0	0	0	0	0	0	0	0	0	0	0	0	11	3	10	0	0	24	0	0	0	0	0	0	0	0	0	0	0	0	0	0	0	0	0	0	0	0	0	0	11	4	10	0	0	25	75	0	0	0	0	0	0	0	0	0	0	0	0	0	0	0	0	0	0	0	0	0	0	0	0	0	0	0	0	0	0	0	0	0	0	0	0	280	16	3	0	0	299	0	0	0	0	0	0	0	0	0	0	0	0	0	0	0	0	0	0	0	0	0	0	280	16	3	0	0	299	0	0	0	0	0	1	0	0	0	1	0	6	0	0	1		BARRY BUCHANAN	2766195205	2/20/2004	2/27/2004		
2003	20030287	SHEEHAN GAS CO INC	18249	106 MAIN ST	BIRD ISLAND		MN	55310					55310	 MN	0	0	0	0	45	0	0	0	0	0	45	0	0	0	0	1072	0	0	0	0	0	1072	0	0	0	0	0	0	0	0	0	0	0	0	0	0	0	0	0	0	0	0	0	0	0	0	0	0	0	0	0	0	0	0	0	0	0	0	19	23	3	0	0	45	0	0	0	0	0	0	0	0	0	0	0	0	0	0	0	0	0	0	0	0	0	0	19	23	3	0	0	45	0	0	0	0	0	0	0	0	0	0	0	0	0	0	0	0	0	0	0	0	0	0	0	0	0	0	0	0	0	0	0	0	0	0	0	0	0	1072	0	0	0	0	1072	0	0	0	0	0	0	0	0	0	0	0	0	0	0	0	0	0	0	0	0	0	0	1072	0	0	0	0	1072	0	0	0	0	0	3	0	0	0	0	0	0	0	0	0		MICHAEL SHEEHAN	3203654400	2/23/2004	2/27/2004		
2003	20030288	"FORT MEADE, CITY OF"	5420	521 N.W. 4TH STREET	FORT MEADE	POLK	FL	33841						 FL	0	0	0	26	0	0	0	0	0	0	26	0	0	0	1163	275	0	0	0	0	0	1438	0	20	5	1	0	0	26	0	0	0	0	0	0	0	0	0	0	0	0	0	0	0	0	0	0	0	0	0	0	0	0	0	0	0	0	0	0	0	0	0	0	0	0	0	0	0	0	0	0	0	0	0	0	0	0	0	0	0	0	0	0	0	0	0	20	5	1	0	0	26	75	0	1163	1	0	0	0	1164	0	0	0	0	0	0	0	0	0	0	0	0	0	0	0	0	0	0	0	0	0	0	0	0	0	0	0	0	0	284	0	0	0	0	284	0	0	0	0	0	0	0	0	0	0	0	0	0	0	0	0	0	0	0	0	0	0	1447	1	0	0	0	1448	0	0	1	1	0	0	0	0	1	0	0	0	0	0	0		WINSTON RUSSELL	8632851119	2/23/2004	2/27/2004		
2003	20030289	LOUDON UTILITIES GAS DEPT	11776	2302 MAREMONT PARKWAY	LOUDON 	LOUDON	TN	37774						 TN TX	0	0	0	51	195	0	0	0	0	0	246	0	0	0	843	3159	0	0	0	0	0	4002	0	29	8	14	0	0	51	0	0	0	0	0	0	0	0	0	0	0	0	0	0	0	0	0	0	0	0	0	0	77	81	37	0	0	195	0	0	0	0	0	0	0	0	0	0	0	0	0	0	0	0	0	0	0	0	0	0	0	0	0	0	0	0	0	106	89	51	0	0	246	177	0	827	10	3	3	0	843	0	0	0	0	0	0	0	0	0	0	0	0	0	0	0	0	0	0	0	0	0	0	0	0	0	0	0	0	0	3138	20	1	0	0	3159	0	0	0	0	0	0	0	0	0	0	0	0	0	0	0	0	0	0	0	0	0	0	3965	30	4	3	0	4002	5	3	0	0	15	25	0	2	0	0	0	0	17	0		UNACCOUNTED FOR GAS AS A PERCENT OF TOTAL INPUT YEAR ENDING 6/30 IS -3.48%	BERYL KIRKLAND	8654582091	2/23/2004	2/27/2004		
2003	20030290	GII GAS CO	31537	"5321 S. SHERIDAN, STE. 32"	TULSA	TULSA	OK	74415						 OK	10	0	0	0	4	0	0	0	0	0	14	119	0	0	0	35	0	0	0	0	0	154	0	10	0	0	0	0	10	0	0	0	0	0	0	0	0	0	0	0	0	0	0	0	0	0	0	0	0	0	0	0	0	0	0	0	0	0	3	1	0	0	0	4	0	0	0	0	0	0	0	0	0	0	0	0	0	0	0	0	0	0	0	0	0	0	13	1	0	0	0	14	10	0	119	0	0	0	0	119	0	0	0	0	0	0	0	0	0	0	0	0	0	0	0	0	0	0	0	0	0	0	0	0	0	0	0	0	0	35	0	0	0	0	35	0	0	0	0	0	0	0	0	0	0	0	0	0	0	0	0	0	0	0	0	0	0	154	0	0	0	0	154	0	3	0	0	0	7	0	0	0	0	0	0	0	0	5		W M GRASS	9186108215	2/23/2004	2/27/2004		
2003	20030291	MONA TOWN	30509	21 EAST 100 NORTH	NEPHI	JUAB	UT	84648						 UT	0	0	0	19	18	0	0	0	0	0	37	0	0	0	0	380	0	0	0	0	0	380	0	0	0	19	0	0	19	0	0	0	0	0	0	0	0	0	0	0	0	0	0	0	0	0	0	0	0	0	0	0	0	0	0	0	0	0	18	0	0	0	0	18	0	0	0	0	0	0	0	0	0	0	0	0	0	0	0	0	0	0	0	0	0	0	18	0	19	0	0	37	101	0	0	0	0	0	0	0	0	0	0	0	0	0	0	0	0	0	0	0	0	0	0	0	0	0	0	0	0	0	0	0	0	0	0	0	0	378	2	0	0	0	380	0	0	0	0	0	0	0	0	0	0	0	0	0	0	0	0	0	0	0	0	0	0	378	2	0	0	0	380	0	0	0	0	2	4	0	0	0	0	0	0	0	0	0		KIM HALL	4356234914	2/23/2004	2/27/2004		
2003	20030292	NEPHI CITY	30510	21 EAST 100 NORTH	NEPHI	JUAB	UT	84648	56 NORTH 100 EAST	NEPHI	JUAB	UT	84648	 UT	0	0	0	7	73	0	0	0	0	0	80	0	0	0	0	1783	0	0	0	0	0	1783	0	0	0	7	0	0	7	0	0	0	0	0	0	0	0	0	0	0	0	0	0	0	0	0	0	0	0	0	0	0	0	0	0	0	0	0	67	6	0	0	0	73	0	0	0	0	0	0	0	0	0	0	0	0	0	0	0	0	0	0	0	0	0	0	67	6	7	0	0	80	72	0	0	0	0	0	0	0	0	0	0	0	0	0	0	0	0	0	0	0	0	0	0	0	0	0	0	0	0	0	0	0	0	0	0	0	0	1757	26	0	0	0	1783	0	0	0	0	0	0	0	0	0	0	0	0	0	0	0	0	0	0	0	0	0	0	1757	26	0	0	0	1783	0	0	0	0	1	12	0	0	0	0	0	0	0	0	0		KIM HALL	4356234914	2/23/2004	2/27/2004		
2003	20030293	LUMBERPORT - SHINNSTON GAS CO	11888											 AK	20	1	0	0	130	0	0	0	0	0	151	1339	9	30	10	3281	0	0	0	0	8	4677	0	8	6	7	0	0	21	0	0	0	0	0	0	0	0	0	0	0	0	0	0	0	0	0	0	0	0	0	0	0	0	0	0	0	0	0	61	54	15	0	0	130	0	0	0	0	0	0	0	0	0	0	0	0	0	0	0	0	0	0	0	0	0	0	69	60	22	0	0	151	33	0	1334	46	8	0	0	1388	0	0	0	0	0	0	0	0	0	0	0	0	0	0	0	0	0	0	0	0	0	0	0	0	0	0	0	0	0	3190	90	1	0	0	3281	0	0	0	0	0	0	0	0	7	1	0	0	0	8	0	0	0	0	0	0	0	0	4531	137	9	0	0	4677	9	5	0	4	12	12	0	0	0	0	4	28	30	0	3	PART B - SECTION 1 - NUMBER OF SERVICES                  SECTION 3 - NUMBER OS FERVICES AT END OF YEAR    OTHER - SERVICES THAT ARE COMBINED OF STEEL AND PE	DONALD D. HURST	3045844545	2/23/2004	2/27/2004		
2003	20030294	"CHESTER, CITY OF"	2308	141 CADE ST	CHESTER	TYLER	TX	75936						 TN TX	0	0	0	50	2	0	0	0	0	0	52	0	0	0	253	37	0	0	0	0	0	290	0	46	4	0	0	0	50	0	0	0	0	0	0	0	0	0	0	0	0	0	0	0	0	0	0	0	0	0	0	2	0	0	0	0	2	0	0	0	0	0	0	0	0	0	0	0	0	0	0	0	0	0	0	0	0	0	0	0	0	0	0	0	0	0	48	4	0	0	0	52	30	0	249	4	0	0	0	253	0	0	0	0	0	0	0	0	0	0	0	0	0	0	0	0	0	0	0	0	0	0	16	0	0	0	0	16	0	21	0	0	0	0	21	0	0	0	0	0	0	0	0	0	0	0	0	0	0	0	0	0	0	0	0	0	0	286	4	0	0	0	290	0	0	0	0	0	2	1	0	0	1	0	1	0	0	0		DALE CLAMON	9366962360	2/23/2004	2/27/2004		
2003	20030295	"POINTE COUPEE PARISH, GAS UTIL DIST # 1 OF"	6232	160 EAST MAIN STREET	NEW ROADS		LA	70760	160 EAST MAIN STREET	NEW ROADS		LA	70760	 LA	0	0	5	55	38	0	0	0	0	0	98	0	0	0	819	1447	0	0	0	0	0	2266	0	14	46	0	0	0	60	0	0	0	0	0	0	0	0	0	0	0	0	0	0	0	0	0	0	0	0	0	0	0	0	0	0	0	0	0	27	11	0	0	0	38	0	0	0	0	0	0	0	0	0	0	0	0	0	0	0	0	0	0	0	0	0	0	41	57	0	0	0	98	0	0	814	5	0	0	0	819	0	0	0	0	0	0	0	0	0	0	0	0	0	0	0	0	0	0	0	0	0	0	0	0	0	0	0	0	0	1446	1	0	0	0	1447	0	0	0	0	0	0	0	0	0	0	0	0	0	0	0	0	0	0	0	0	0	0	2260	6	0	0	0	2266	0	0	0	0	0	2	0	0	0	0	0	8	0	0	3		NORRIS SHUSTZ	2256385552	2/23/2004	2/27/2004		
2003	20030296	"POINTE COUPEE PARISH, GAS UTIL DIST # 2 OF"	6239	160 EAST MAIN STREET	NEW ROADS		LA	70760						 LA	0	0	0	120	63	0	0	0	0	0	183	0	0	0	1574	986	0	0	0	0	0	2560	0	77	44	0	0	0	121	0	0	0	0	0	0	0	0	0	0	0	0	0	0	0	0	0	0	0	0	0	0	1	0	0	0	0	1	0	59	2	0	0	0	61	0	0	0	0	0	0	0	0	0	0	0	0	0	0	0	0	0	0	0	0	0	0	137	46	0	0	0	183	0	0	1569	5	0	0	0	1574	0	0	0	0	0	0	0	0	0	0	0	0	0	0	0	0	0	0	0	0	0	0	45	0	0	0	0	45	0	941	0	0	0	0	941	0	0	0	0	0	0	0	0	0	0	0	0	0	0	0	0	0	0	0	0	0	0	2555	5	0	0	0	2560	0	1	0	0	0	2	0	0	0	0	0	5	0	0	0		NORRIS CHUSTZ	2256385552	2/23/2004	2/27/2004		
2003	20030297	CAMPORA PROPANE SERVICE	31792	1195 S. MAIN STREET	ANGELS CAMP	CALAVERAS	CA	95222	2537 S. MARIPOSA RD	STOCKTON		CA	95205	 CA	0	0	0	0	4	0	0	0	0	0	4	0	0	0	0	204	0	0	0	0	0	204	0	0	0	0	0	0	0	0	0	0	0	0	0	0	0	0	0	0	0	0	0	0	0	0	0	0	0	0	0	0	0	0	0	0	0	0	0	4	0	0	0	4	0	0	0	0	0	0	0	0	0	0	0	0	0	0	0	0	0	0	0	0	0	0	0	4	0	0	0	4	100	0	0	0	0	0	0	0	0	0	0	0	0	0	0	0	0	0	0	0	0	0	0	0	0	0	0	0	0	0	0	0	0	0	0	0	0	204	0	0	0	0	204	0	0	0	0	0	0	0	0	0	0	0	0	0	0	0	0	0	0	0	0	0	0	204	0	0	0	0	204	0	0	0	0	0	0	0	0	0	0	0	0	0	0	0		"D.C. LEIBY, LOCK SURVEY, CORROSION CENTER"	6618315972	2/23/2004	3/2/2004		
2003	20030298	FLORENCE UTILITY COMMISSION	30660	501 SPRING STREET	FLORENCE	FLORENCE	WI	54121						 WI	0	0	0	0	65	0	0	0	0	0	65	0	0	0	0	1260	0	0	0	0	0	1260	0	0	0	0	0	0	0	0	0	0	0	0	0	0	0	0	0	0	0	0	0	0	0	0	0	0	0	0	0	0	0	0	0	0	0	0	44	14	7	0	0	65	0	0	0	0	0	0	0	0	0	0	0	0	0	0	0	0	0	0	0	0	0	0	44	14	7	0	0	65	196	0	0	0	0	0	0	0	0	0	0	0	0	0	0	0	0	0	0	0	0	0	0	0	0	0	0	0	0	0	0	0	0	0	0	0	0	1260	0	0	0	0	1260	0	0	0	0	0	0	0	0	0	0	0	0	0	0	0	0	0	0	0	0	0	0	1260	0	0	0	0	1260	0	0	0	0	0	3	0	1	0	1	0	14	0	0	0.81	PART - 135.016 - IN ADDITION FOR W.D.O.T. LEAK SUREVEY REPORTS                                                         ELIMINATED/REPAIRED DURING YEAR        CAUSE                                      MAINS                           SERVICES  CORROSION  THIRD PARY  OUTISIDE FORCE  CONSTURCTION  DEFECT  MATERIAL DEFECT                                                                              3  OTHER                                                                                                  5  NUMBER OF KNOWN SYSTEM LEAKS AT   END OF YEAR SCHEDULED REPAIR                         __0__	GARRET TRUDELL	7155283330	2/23/2004	3/1/2004		
2003	20030299	WOODBINE MUNICIPLE NATURAL GAS SYSTEM	22833	517 WALKER STREET	WOODBINE	HARRISON	IA	51579						 IA	0	0	0	9	1	0	0	0	0	0	10	0	0	0	573	118	0	0	0	0	0	691	0	6	2	1	0	0	9	0	0	0	0	0	0	0	0	0	0	0	0	0	0	0	0	0	0	0	0	0	0	0	0	0	0	0	0	0	1	0	0	0	0	1	0	0	0	0	0	0	0	0	0	0	0	0	0	0	0	0	0	0	0	0	0	0	7	2	1	0	0	10	150	0	563	10	0	0	0	573	0	0	0	0	0	0	0	0	0	0	0	0	0	0	0	0	0	0	0	0	0	0	0	0	0	0	0	0	0	114	4	0	0	0	118	0	0	0	0	0	0	0	0	0	0	0	0	0	0	0	0	0	0	0	0	0	0	677	14	0	0	0	691	0	0	0	0	0	0	0	0	0	0	0	0	1	0	0		PAUL MARSHALL	7126472550	2/23/2004	2/27/2004		
2003	20030300	"SLAUGHTER MUNICIPAL GAS SYSTEM, TOWN OF"	18352	337 CHURCH STREET	SLAUGHTER	EAST FELICIANA	LA	70777						 LA	0	0	0	19	6	0	0	0	0	0	25	0	0	0	349	106	0	0	0	0	0	455	0	15	4	0	0	0	19	0	0	0	0	0	0	0	0	0	0	0	0	0	0	0	0	0	0	0	0	0	0	2	0	0	0	0	2	0	4	0	0	0	0	4	0	0	0	0	0	0	0	0	0	0	0	0	0	0	0	0	0	0	0	0	0	0	21	4	0	0	0	25	50	0	8	332	9	0	0	349	0	0	0	0	0	0	0	0	0	0	0	0	0	0	0	0	0	0	0	0	0	0	14	31	0	0	0	45	0	11	50	0	0	0	61	0	0	0	0	0	0	0	0	0	0	0	0	0	0	0	0	0	0	0	0	0	0	33	413	9	0	0	455	0	0	0	3	0	0	0	0	0	0	0	0	0	0	1.5		ELLIOTT CORCORAN	2256544278	2/23/2004	2/27/2004		
2003	20030301	CHOUTEAU PUBLIC WORKS AUTH	2356	111 N. MCCRACKEN	CHOUTEAU	MAYES	OK	74337						 OK OH	0	0	0	4	25	0	0	0	0	0	29	0	0	0	890	0	0	0	0	0	0	890	0	0	0	4	0	0	4	0	0	0	0	0	0	0	0	0	0	0	0	0	0	0	0	0	0	0	0	0	0	0	0	0	0	0	0	0	18	7	0	0	0	25	0	0	0	0	0	0	0	0	0	0	0	0	0	0	0	0	0	0	0	0	0	0	18	7	4	0	0	29	10	0	0	0	0	0	0	0	0	0	0	0	0	0	0	0	0	0	0	0	0	0	0	0	0	0	0	0	0	0	0	0	0	0	0	0	0	886	4	0	0	0	890	0	0	0	0	0	0	0	0	0	0	0	0	0	0	0	0	0	0	0	0	0	0	886	4	0	0	0	890	0	0	0	0	0	5	0	0	0	0	3	22	4	0	8		KEITH HARRIS	9184768925	2/23/2004	3/1/2004		
2003	20030302	HOLLY SPRINGS MUNICIPAL GAS	7325	PO BOX 520/1050 HGWY 4 E.	HOLLY SPRINGS	MARSHALL	MS	38635						 MS	0	0	0	12	55	34	0	0	0	0	101	0	0	0	58	2328	1	0	0	0	0	2387	0	2	3	7	0	0	12	0	0	0	0	0	0	0	0	0	0	0	0	0	0	0	11	21	2	0	0	34	0	0	0	0	0	0	0	0	40	15	0	0	0	55	0	0	0	0	0	0	0	0	0	0	0	0	0	0	0	0	0	0	0	0	0	0	53	39	9	0	0	101	80	0	48	10	0	0	0	58	0	0	0	0	0	0	0	0	0	0	0	0	0	0	0	0	0	1	0	0	1	0	0	0	0	0	0	0	0	2297	28	3	0	0	2328	0	0	0	0	0	0	0	0	0	0	0	0	0	0	0	0	0	0	0	0	0	0	2345	38	4	0	0	2387	1	3	0	0	0	0	1	5	0	5	0	5	0	0	2.27	"DID 1/5 RESIDENTIAL MAINS AND SERVICES.  ALSO ALL BUSINESSES, SHOCLLS AND CHURCHES."	JOE HERRING	6622524411	2/23/2004	3/1/2004		
2003	20030303	ROSSVILLE MUNICIPAL GAS SYSTEM	17690	120 EAST ATTICA STREET	ROSSVILLE	VERMILION	IL	60963					60963	 IL	0	0	0	7	2	0	0	0	0	0	9	0	0	0	581	24	0	0	0	0	0	605	0	5	2	0	0	0	7	0	0	0	0	0	0	0	0	0	0	0	0	0	0	0	0	0	0	0	0	0	0	0	0	0	0	0	0	0	2	0	0	0	0	2	0	0	0	0	0	0	0	0	0	0	0	0	0	0	0	0	0	0	0	0	0	0	7	2	0	0	0	9	0	0	581	0	0	0	0	581	0	0	0	0	0	0	0	0	0	0	0	0	0	0	0	0	0	0	0	0	0	0	0	0	0	0	0	0	0	24	0	0	0	0	24	0	0	0	0	0	0	0	0	0	0	0	0	0	0	0	0	0	0	0	0	0	0	605	0	0	0	0	605	0	0	0	0	0	0	0	0	0	0	0	0	0	0	1.46		DENISE MATTHEWS	2177486914	2/23/2004	3/1/2004		
2003	20030304	HARRIMAN UTILITIES BOARD	7090	300 ROANE ST P.O. BOX 434	HARRIMAN	ROANE	TN	37748						 TN	0	0	0	28	57	5	0	0	0	0	90	0	0	0	1984	1760	0	0	0	0	0	3744	0	20	4	4	0	0	28	0	0	0	0	0	0	0	0	0	0	0	0	0	0	0	0	4	1	0	0	5	0	41	15	1	0	0	57	0	0	0	0	0	0	0	0	0	0	0	0	0	0	0	0	0	0	0	0	0	0	0	0	0	0	0	0	0	61	23	6	0	0	90	150	0	1976	5	2	1	0	1984	0	0	0	0	0	0	0	0	0	0	0	0	0	0	0	0	0	0	0	0	0	0	1759	1	0	0	0	1760	0	0	0	0	0	0	0	0	0	0	0	0	0	0	0	0	0	0	0	0	0	0	0	0	0	0	0	0	0	3735	6	2	1	0	3744	6	10	3	10	0	7	2	0	6	26	1	79	6	0	3.79	"ON THE OTHER SERVICES:  THESE WERE LEAKS AT UNIONS, CUT-OFF, REGULATRS, CONNECTIONS."	STEVE COCHRAN	8658823242	2/23/2004	3/1/2004		
2003	20030305	GEARY UTILITIES AUTH	6270	115 S. BDWY	GEARY	BLAINE	OK	73040						 OK	0	0	5	15	6	0	0	0	0	0	26	0	0	0	700	0	0	0	0	0	0	700	0	0	20	0	0	0	20	0	0	0	0	0	0	0	0	0	0	0	0	0	0	0	0	0	0	0	0	0	0	0	6	0	0	0	6	0	0	0	0	0	0	0	0	0	0	0	0	0	0	0	0	0	0	0	0	0	0	0	0	0	0	0	0	0	0	26	0	0	0	26	0	0	700	0	0	0	0	700	0	0	0	0	0	0	0	0	0	0	0	0	0	0	0	0	0	0	0	0	0	0	0	0	0	0	0	0	0	0	0	0	0	0	0	0	0	0	0	0	0	0	0	0	0	0	0	0	0	0	0	0	0	0	0	0	0	700	0	0	0	0	700	0	0	0	0	0	0	0	0	0	0	0	0	0	0	0		MARY J. HAYS	9999999999	2/23/2004	3/1/2004		
2003	20030306	"WALNUT GROVE GAS SYSTEM, CITY OF"	22098	139 MAIN STREET	WALNUT GROVE	LEAKE	MS	39189						 MS	0	0	0	42	1	0	0	0	0	0	43	0	0	0	375	85	0	0	0	0	0	460	0	17	14	11	0	0	42	0	0	0	0	0	0	0	0	0	0	0	0	0	0	0	0	0	0	0	0	0	0	0	0	0	0	0	0	0	1	0	0	0	0	1	0	0	0	0	0	0	0	0	0	0	0	0	0	0	0	0	0	0	0	0	0	0	18	14	11	0	0	43	0	0	335	40	0	0	0	375	0	0	0	0	0	0	0	0	0	0	0	0	0	0	0	0	0	0	0	0	0	0	0	0	0	0	0	0	0	85	0	0	0	0	85	0	0	0	0	0	0	0	0	0	0	0	0	0	0	0	0	0	0	0	0	0	0	420	40	0	0	0	460	0	0	0	0	0	0	0	0	0	0	0	0	0	0	0.12		ADA CHAMBLEE	6012532321	2/23/2004	3/1/2004		
2003	20030307	UPPER CUMBERLAND GAS UTILITY DISTRICT	985	P.O. BOX 807	CROSSVILLE	CUMBERLAND	TN	38557						 TN	0	0	0	0	106	0	0	0	0	0	106	0	0	0	0	1908	0	0	0	0	0	1908	0	0	0	0	0	0	0	0	0	0	0	0	0	0	0	0	0	0	0	0	0	0	0	0	0	0	0	0	0	0	0	0	0	0	0	0	62	22	22	0	0	106	0	0	0	0	0	0	0	0	0	0	0	0	0	0	0	0	0	0	0	0	0	0	62	22	22	0	0	106	0	0	0	0	0	0	0	0	0	0	0	0	0	0	0	0	0	0	0	0	0	0	0	0	0	0	0	0	0	0	0	0	0	0	0	0	0	1903	4	1	0	0	1908	0	0	0	0	0	0	0	0	0	0	0	0	0	0	0	0	0	0	0	0	0	0	1903	4	1	0	0	1908	0	0	0	1	7	10	0	0	0	0	0	0	0	0	0		CHARLES D. HERCHER	9314849380	2/23/2004	3/1/2004		
2003	20030308	"LACYGNE GAS DEPT, CITY OF"	11040	210 COMMERCIAL/PO BOX 600	LA CYGNE	LINN	KS	66040						 KS	17	0	0	16	0	0	0	0	1	0	34	36	0	0	9	0	0	0	0	452	0	497	0	0	33	0	0	0	33	0	0	0	0	0	0	0	0	0	0	0	0	0	0	0	0	0	0	0	0	0	0	0	0	0	0	0	0	0	0	1	0	0	0	1	0	0	0	0	0	0	0	0	0	0	0	0	0	0	0	0	0	0	0	0	0	0	0	34	0	0	0	34	0	0	0	45	0	0	0	45	0	0	0	0	0	0	0	0	0	0	0	0	0	0	0	0	0	0	0	0	0	0	0	0	0	0	0	0	0	0	0	0	0	0	0	0	0	0	0	0	0	0	0	0	452	0	0	0	452	0	0	0	0	0	0	0	0	0	497	0	0	0	497	0	0	0	0	0	0	1	0	0	0	0	0	0	0	20.6	CONSTRUCTION DEFECT IN MAIN IN INDUSTRIAL PARK WAS REPAIRED.  ALL OTHER LEAKS ADDRESSED PROMPTLY.    HAVE RECIEVED CDBG GRANT TO REPLACE TRANSMISSION LINE TO CITY.  DISIGN PHASE WAS DELAYED DUE TO DIFFICULTY IN OBTAINING CASEMENTS.  CONDEMATIONS NOW IN PROGRESS.  PLAN TO LET CONSTRUCTION BIDS IN SPRING 2004.	GARY D MAHON	9137572144	2/16/2004	3/1/2004		
2003	20030309	"BRENHAM UTILITY, CITY OF"	1720	210 N. PARK/PO BOX 1059	BRENHAM 	WASHINGTON	TX	77834						 TN TX	0	0	0	23	84	0	0	0	0	0	107	0	0	0	318	4076	0	0	0	0	0	4394	0	13	8	2	0	0	23	0	0	0	0	0	0	0	0	0	0	0	0	0	0	0	0	0	0	0	0	0	0	0	0	0	0	0	0	0	53	25	6	0	0	84	0	0	0	0	0	0	0	0	0	0	0	0	0	0	0	0	0	0	0	0	0	0	66	33	8	0	0	107	50	0	159	156	3	0	0	318	0	0	0	0	0	0	0	0	0	0	0	0	0	0	0	0	0	0	0	0	0	0	0	0	0	0	0	0	0	3916	148	12	0	0	4076	0	0	0	0	0	0	0	0	0	0	0	0	0	0	0	0	0	0	0	0	0	0	4075	304	15	0	0	4394	3	20	0	0	5	12	0	0	0	0	10	100	8	0	0		DENNIS MOEHLMANN	9793377411	2/23/2004	3/1/2004		
2003	20030310	MINCO GAS AUTH	12546	PO BOX 327/ 212 NW MAIN S	MINCO	GRADY	OK	73059					73059	 OH OK	0	0	0	15	13	0	0	0	0	0	28	0	0	0	440	217	0	0	0	0	0	657	0	8	8	0	0	0	16	0	0	0	0	0	0	0	0	0	0	0	0	0	0	0	0	0	0	0	0	0	0	0	0	0	0	0	0	0	10	2	0	0	0	12	0	0	0	0	0	0	0	0	0	0	0	0	0	0	0	0	0	0	0	0	0	0	18	10	0	0	0	28	18	0	456	6	0	0	0	462	0	0	0	0	0	0	0	0	0	0	0	0	0	0	0	0	0	0	0	0	0	0	0	0	0	0	0	0	0	195	0	0	0	0	195	0	0	0	0	0	0	0	0	0	0	0	0	0	0	0	0	0	0	0	0	0	0	651	6	0	0	0	657	1	0	0	0	0	0	0	0	0	0	0	13	0	0	2		TERESA SCOTT	4053525931	2/23/2004	3/1/2004		
2003	20030311	"NAVASOTA, CITY OF"	13170	221 SOUTH RAILROAD	NAVASOTA	GRIMES	TX	77868						 TX	0	0	0	5	52	0	0	0	0	0	57	678	0	0	0	1292	0	0	0	0	0	1970	0	0	3	2	0	0	5	0	0	0	0	0	0	0	0	0	0	0	0	0	0	0	0	0	0	0	0	0	0	0	0	0	0	0	0	0	39	13	0	0	0	52	0	0	0	0	0	0	0	0	0	0	0	0	0	0	0	0	0	0	0	0	0	0	39	16	2	0	0	57	40	0	671	7	0	0	0	678	0	0	0	0	0	0	0	0	0	0	0	0	0	0	0	0	0	0	0	0	0	0	0	0	0	0	0	0	0	1274	17	1	0	0	1292	0	0	0	0	0	0	0	0	0	0	0	0	0	0	0	0	0	0	0	0	0	0	1945	24	1	0	0	1970	0	15	0	0	7	2	0	0	0	0	0	0	0	0	1.2		DONNIE LEONBERG	9368256450	2/23/2004	3/1/2004		
2003	20030312	IGNACIO MUNICIPAL GAS	8020	540 GODDARD AVE	IGNACIO	LA PLATA	CO	81137						 CO	0	0	0	8	0	0	0	0	0	0	8	0	0	0	377	37	0	0	0	0	0	414	0	6	2	0	0	0	8	0	0	0	0	0	0	0	0	0	0	0	0	0	0	0	0	0	0	0	0	0	0	0	0	0	0	0	0	0	0	0	0	0	0	0	0	0	0	0	0	0	0	0	0	0	0	0	0	0	0	0	0	0	0	0	0	0	6	2	0	0	0	8	50	0	377	10	0	0	0	387	0	0	0	0	0	0	0	0	0	0	0	0	0	0	0	0	0	0	0	0	0	0	0	0	0	0	0	0	0	37	0	0	0	0	37	0	0	0	0	0	0	0	0	0	0	0	0	0	0	0	0	0	0	0	0	0	0	414	0	0	0	0	414	0	0	0	0	0	0	0	0	0	0	0	0	0	0			GEORGANN M VALDEZ	9705639494	2/23/2004	3/1/2004		
2003	20030313	GENEVA COUNTY GAS DIST	6320	806 EAST TOWN AVE	GENEVA	GENEVA	AL	36340						 AL	0	0	0	140	8	0	0	0	0	0	148	0	0	0	2572	833	0	0	0	0	0	3405	0	10	102	28	0	0	140	0	0	0	0	0	0	0	0	0	0	0	0	0	0	0	0	0	0	0	0	0	0	0	0	0	0	0	0	0	0	0	0	0	0	0	0	8	0	0	0	0	8	0	0	0	0	0	0	0	0	0	0	0	0	0	0	0	18	102	28	0	0	148	75	0	2519	53	0	0	0	2572	0	0	0	0	0	0	0	0	0	0	0	0	0	0	0	0	0	0	0	0	0	0	0	0	0	0	0	0	0	825	8	0	0	0	833	0	0	0	0	0	0	0	0	0	0	0	0	0	0	0	0	0	0	0	0	0	0	3344	61	0	0	0	3405	0	0	0	1	2	1	0	0	0	0	0	11	0	0		UNACCOUNTED GOR FAS AS A PERCENT OF TOTAL IN PUT FOR YEAR ENDING 6/30 IS -2.1%.	KELLY SHIVER	3346842284	2/23/2004	3/1/2004		
2003	20030314	"CLAY NATURAL GAS SYSTEM, CITY OF"	2472	9100 HWY 132 WEST	CLAY	WEBSTER	KY	42404						 KY	0	0	0	20	4	0	0	0	0	0	24	0	0	0	482	256	0	0	0	0	0	738	0	7	4	9	0	0	20	0	0	0	0	0	0	0	0	0	0	0	0	0	0	0	0	0	0	0	0	0	0	0	0	0	0	0	0	0	4	0	0	0	0	4	0	0	0	0	0	0	0	0	0	0	0	0	0	0	0	0	0	0	0	0	0	0	11	4	9	0	0	24	50	0	479	3	0	0	0	482	0	0	0	0	0	0	0	0	0	0	0	0	0	0	0	0	0	0	0	0	0	0	0	0	0	0	0	0	0	254	2	0	0	0	256	0	0	0	0	0	0	0	0	0	0	0	0	0	0	0	0	0	0	0	0	0	0	733	5	0	0	0	738	0	0	0	0	0	6	0	18	0	0	0	0	0	0	0		RICHARD HEADY	2706642444	2/24/2004	3/1/2004		
2003	20030315	REKLAW NATURAL GAS SYSTEM	17200	"530 NACOGDOCHES,  BOX 250"	REKLAW	CHEROKEE	TX	75784						 TX	0	0	0	0	9	0	0	0	200	0	209	0	115	0	0	303	0	0	0	1054	0	1472	0	0	0	0	0	0	0	0	0	0	0	0	0	0	0	0	0	0	0	0	0	0	0	0	0	0	0	0	0	76	110	14	0	0	200	0	4	5	0	0	0	9	0	0	0	0	0	0	0	0	0	0	0	0	0	0	0	0	0	0	0	0	0	0	80	115	14	0	0	209	25	0	115	0	0	0	0	115	0	0	0	0	0	0	0	0	0	0	0	0	0	0	0	0	0	0	0	0	0	0	1043	11	0	0	0	1054	0	298	5	0	0	0	303	0	0	0	0	0	0	0	0	0	0	0	0	0	0	0	0	0	0	0	0	0	0	1456	16	0	0	0	1472	0	0	1	0	2	2	1	2	0	0	0	0	0	0	0		"GLYN BOMER, UTILITY MANAGER"	9363694368	2/24/2004	3/1/2004		
2003	20030316	"TUMLINSON ENGINEERING, INC"	30863	PO BOX 285	BURNSVILLE	TISHOMINGO	MS	38833						 TN	0	0	0	6	1	0	0	0	0	0	7	0	0	0	95	60	0	0	0	0	0	155	0	4	2	0	0	0	6	0	0	0	0	0	0	0	0	0	0	0	0	0	0	0	0	0	0	0	0	0	0	0	0	0	0	0	0	0	1	0	0	0	0	1	0	0	0	0	0	0	0	0	0	0	0	0	0	0	0	0	0	0	0	0	0	0	5	2	0	0	0	7	100	0	95	1	0	0	0	96	0	0	0	0	0	0	0	0	0	0	0	0	0	0	0	0	0	0	0	0	0	0	0	0	0	0	0	0	0	0	0	0	0	0	0	0	59	0	0	0	0	59	0	0	0	0	0	0	0	0	0	0	0	0	0	0	0	154	1	0	0	0	155	0	0	0	0	0	0	0	0	0	0	0	0	0	0	0		MIKE HORTON	6624278287	2/18/2004	3/1/2004		
2003	20030317	"MORGAN CITY GAS DEPT, CITY OF"	12776	PO BOX 1218	MORGAN CITY	ST. MARY	LA	70381						 LA	0	0	0	9	72	11	0	0	0	0	92	10	0	0	0	3620	6	0	2204	0	0	5840	0	0	7	0	0	0	7	0	0	0	0	0	0	0	0	0	0	0	0	0	0	0	11	0	0	0	0	11	0	22	5	0	0	0	27	0	25	17	5	0	0	47	0	0	0	0	0	0	0	0	0	0	0	0	0	0	0	0	0	0	0	0	0	0	58	29	5	0	0	92	20	0	0	5	2	3	0	10	0	0	0	0	0	0	0	0	2204	0	0	0	0	2204	0	0	5	1	0	0	6	0	163	5	2	0	0	170	0	3441	9	0	0	0	3450	0	0	0	0	0	0	0	0	0	0	0	0	0	0	0	0	0	0	0	0	0	0	5808	24	5	3	0	5840	0	13	1	2	0	0	1	16	0	16	0	0	0	0	0		CAROLE ADAIR	9853804715	2/26/2004	3/1/2004		
2003	20030318	COLLINWOOD GAS DEPT	2556	"PO BOX 98, 108 3RD AVE N."	COLLINWOOD	WAYNE	TN	38450						 TN	0	0	0	14	5	0	0	0	0	0	19	0	0	0	285	282	0	0	0	0	0	567	0	14	0	0	0	0	14	0	0	0	0	0	0	0	0	0	0	0	0	0	0	0	0	0	0	0	0	0	0	5	0	0	0	0	5	0	0	0	0	0	0	0	0	0	0	0	0	0	0	0	0	0	0	0	0	0	0	0	0	0	0	0	0	0	19	0	0	0	0	19	0	0	280	5	0	0	0	285	0	0	0	0	0	0	0	0	0	0	0	0	0	0	0	0	0	0	0	0	0	0	0	0	0	0	0	0	0	282	0	0	0	0	282	0	0	0	0	0	0	0	0	0	0	0	0	0	0	0	0	0	0	0	0	0	0	562	5	0	0	0	567	0	0	0	0	0	0	0	0	0	0	1	2	0	0	1		RICKY L. BRATTON	9317249107	2/23/2004	3/1/2004		
2003	20030319	PORTLAND NATURAL GAS SYSTEM	15784	100 SOUTH RUSSELL STREET	PORTLAND	SUMNER	TN	37148						 TN	0	0	0	47	195	0	0	0	0	0	242	0	0	0	1207	3413	0	0	0	0	0	4620	0	20	20	5	2	0	47	0	0	0	0	0	0	0	0	0	0	0	0	0	0	0	0	0	0	0	0	0	0	0	0	0	0	0	0	0	71	120	4	0	0	195	0	0	0	0	0	0	0	0	0	0	0	0	0	0	0	0	0	0	0	0	0	0	91	140	9	2	0	242	100	0	1198	12	0	0	0	1210	0	0	0	0	0	0	0	0	0	0	0	0	0	0	0	0	0	0	0	0	0	0	0	0	0	0	0	0	0	3251	146	13	0	0	3410	0	0	0	0	0	0	0	0	0	0	0	0	0	0	0	0	0	0	0	0	0	0	4449	158	13	0	0	4620	0	0	0	1	6	15	0	15	0	9	0	0	1	0	4		L. WAYNE WALKER	6153256776	2/26/2004	3/1/2004		
2003	20030320	"MORGAN, CITY OF"	31070	119 VERNON AVE PO BOX 27	MORGAN	REDWOOD	MN	56266						 MN	0	0	0	10	12	0	0	0	0	0	22	0	0	0	0	282	0	0	0	0	0	282	0	0	10	0	0	0	10	0	0	0	0	0	0	0	0	0	0	0	0	0	0	0	0	0	0	0	0	0	0	6	6	0	0	0	12	0	0	0	0	0	0	0	0	0	0	0	0	0	0	0	0	0	0	0	0	0	0	0	0	0	0	0	0	0	6	16	0	0	0	22	100	0	0	0	0	0	0	0	0	0	0	0	0	0	0	0	0	0	0	0	0	0	0	0	0	0	0	0	0	0	276	4	2	0	0	282	0	0	0	0	0	0	0	0	0	0	0	0	0	0	0	0	0	0	0	0	0	0	0	0	0	0	0	0	0	276	4	2	0	0	282	0	0	0	0	0	0	0	0	0	0	0	6	6	0	0		DEAN R. SCHNEIDER	5072493457	2/18/2004	3/2/2004		
2003	20030321	FOUNTAIN INN NATURAL GAS SYSTEM	5510	200 N. MAIN ST.	FOUNTAIN INN	GREENVILLE	SC	29644						 SC	0	0	0	49	179	0	0	0	0	0	228	0	0	0	730	4849	0	0	0	0	0	5579	0	37	12	0	0	0	49	0	0	0	0	0	0	0	0	0	0	0	0	0	0	0	0	0	0	0	0	0	0	0	0	0	0	0	0	0	112	67	0	0	0	179	0	0	0	0	0	0	0	0	0	0	0	0	0	0	0	0	0	0	0	0	0	0	149	79	0	0	0	228	150	0	711	19	0	0	0	730	0	0	0	0	0	0	0	0	0	0	0	0	0	0	0	0	0	0	0	0	0	0	0	0	0	0	0	0	0	4817	29	3	0	0	4849	0	0	0	0	0	0	0	0	0	0	0	0	0	0	0	0	0	0	0	0	0	0	5528	48	3	0	0	5579	0	0	0	0	4	6	0	0	0	3	0	0	2	0	0		DAVID BENFIELD/GAS SUPERINTENDENT	8648624986	2/18/2004	3/2/2004		
2003	20030322	GREER COMMISSION OF PUBLIC WORKS	6820	301 MCCALL STREET	GREER	GREENVILLE	SC	29650						 SC	0	0	0	181	420	0	0	0	0	0	601	0	0	0	3630	12847	0	0	0	0	0	16477	0	96	40	29	16	0	181	0	0	0	0	0	0	0	0	0	0	0	0	0	0	0	0	0	0	0	0	0	0	291	128	1	0	0	420	0	0	0	0	0	0	0	0	0	0	0	0	0	0	0	0	0	0	0	0	0	0	0	0	0	0	0	0	0	387	168	30	16	0	601	109	0	3076	484	69	1	0	3630	0	0	0	0	0	0	0	0	0	0	0	0	0	0	0	0	0	0	0	0	0	0	12789	50	8	0	0	12847	0	0	0	0	0	0	0	0	0	0	0	0	0	0	0	0	0	0	0	0	0	0	0	0	0	0	0	0	0	15865	534	77	1	0	16477	3	5	0	0	19	102	1	1	0	0	0	0	20	0	0.87		ROBERT F. RHODES	8648485518	2/18/2004	3/2/2004		
2003	20030323	SOUTH CAROLINA ELECTRIC & GAS CO	18408	1426 MAIN STREET	COLUMBIA	RICHLAND	SC	29201						 SC	0	0	0	3720	3027	0	0	0	0	0	6747	0	0	0	101313	202456	0	0	0	0	0	303769	0	2223	755	641	93	8	3720	0	0	0	0	0	0	0	0	0	0	0	0	0	0	0	0	0	0	0	0	0	0	0	0	0	0	0	0	0	2527	422	78	0	0	3027	0	0	0	0	0	0	0	0	0	0	0	0	0	0	0	0	0	0	0	0	0	0	4750	1177	719	93	8	6747	112	0	92390	8840	74	8	1	101313	0	0	0	0	0	0	0	0	0	0	0	0	0	0	0	0	0	0	0	0	0	0	0	0	0	0	0	0	0	190466	11938	42	9	1	202456	0	0	0	0	0	0	0	0	0	0	0	0	0	0	0	0	0	0	0	0	0	0	282856	20778	116	17	2	303769	71	429	26	224	263	1393	23	138	32	343	140	3198	23	11	1.56		DEBBIE WALTZ	8032178326	2/18/2004	3/2/2004		
2003	20030324	"UNION UTILITY DEPT, CITY OF"	20170	101 SHARPE AVENUE	UNION	UNION	SC	29379						 SC	0	0	0	162	159	0	0	0	0	0	321	0	0	0	4364	2755	0	0	0	0	0	7119	0	92	22	44	4	0	162	0	0	0	0	0	0	0	0	0	0	0	0	0	0	0	0	0	0	0	0	0	0	0	0	0	0	0	0	0	114	42	3	0	0	159	0	0	0	0	0	0	0	0	0	0	0	0	0	0	0	0	0	0	0	0	0	0	206	64	47	4	0	321	100	0	4340	11	13	0	0	4364	0	0	0	0	0	0	0	0	0	0	0	0	0	0	0	0	0	0	0	0	0	0	0	0	0	0	0	0	0	2749	6	0	0	0	2755	0	0	0	0	0	0	0	0	0	0	0	0	0	0	0	0	0	0	0	0	0	0	7089	17	13	0	0	7119	0	3	0	0	0	4	1	1	0	6	0	20	0	0	0.01		PATRICK RUSSELL	8644291721	2/18/2004	3/2/2004		
2003	20030325	YORK COUNTY NATURAL GAS AUTH	24030	979 W. MAIN STREET	ROCK HILL	YORK	SC	29730						 SC	0	0	0	328	916	0	0	0	0	0	1244	0	0	0	5757	37384	0	0	0	0	0	43141	0	136	71	121	0	0	328	0	0	0	0	0	0	0	0	0	0	0	0	0	0	0	0	0	0	0	0	0	0	0	0	0	0	0	0	0	708	208	0	0	0	916	0	0	0	0	0	0	0	0	0	0	0	0	0	0	0	0	0	0	0	0	0	0	844	279	121	0	0	1244	130	0	5756	0	0	1	0	5757	0	0	0	0	0	0	0	0	0	0	0	0	0	0	0	0	0	0	0	0	0	0	0	0	0	0	0	0	0	37277	93	14	0	0	37384	0	0	0	0	0	0	0	0	0	0	0	0	0	0	0	0	0	0	0	0	0	0	43033	93	14	1	0	43141	13	80	65	360	0	0	11	137	23	251	1	20	2	0	1.87		G. STEVE CLARK	8033295255	2/18/2004	3/3/2004		
2003	20030326	EASTERN SHORE NATURAL GAS CO	4149	417 BANK LANE	DOVER	KENT	DE	19904						 DE	0	0	1	0	0	0	0	0	0	0	1	0	0	1	0	0	0	0	0	0	0	1	0	0	1	0	0	0	1	0	0	0	0	0	0	0	0	0	0	0	0	0	0	0	0	0	0	0	0	0	0	0	0	0	0	0	0	0	0	0	0	0	0	0	0	0	0	0	0	0	0	0	0	0	0	0	0	0	0	0	0	0	0	0	0	0	0	1	0	0	0	1	0	0	0	0	1	0	0	1	0	0	0	0	0	0	0	0	0	0	0	0	0	0	0	0	0	0	0	0	0	0	0	0	0	0	0	0	0	0	0	0	0	0	0	0	0	0	0	0	0	0	0	0	0	0	0	0	0	0	0	0	0	0	0	0	0	0	0	1	0	0	1	3	0	0	0	0	0	0	0	0	0	0	0	0	0	0		L. WAYNE MORRIS	3027346710	2/18/2004	3/3/2004		
2003	20030327	OREMET-WAH-CHANG	31245	P.O. BOX 460	ALBANY	LINN	OR	97321						 OR	0	0	0	1	0	0	0	0	0	0	1	0	0	0	2	1	0	0	0	0	0	3	0	0	0	1	0	0	1	0	0	0	0	0	0	0	0	0	0	0	0	0	0	0	0	0	0	0	0	0	0	0	0	0	0	0	0	0	0	0	0	0	0	0	0	0	0	0	0	0	0	0	0	0	0	0	0	0	0	0	0	0	0	0	0	0	0	0	1	0	0	1	70	0	0	1	1	0	0	2	0	0	0	0	0	0	0	0	0	0	0	0	0	0	0	0	0	0	0	0	0	0	0	0	0	0	0	0	0	0	1	0	0	0	1	0	0	0	0	0	0	0	0	0	0	0	0	0	0	0	0	0	0	0	0	0	0	0	2	1	0	0	3	0	0	0	0	0	0	0	0	0	0	0	0	0	0	0		STEVE E. OXFORD	3034223400	2/24/2004	3/3/2004		
2003	20030328	MUNFORD GAS DEPT	12697	1397 MUNFORD AVENUE	MUNFORD	TIPTON	TN	38058						 TN	0	0	0	20	116	0	0	0	0	0	136	0	0	0	850	4514	0	0	0	0	0	5364	0	9	6	5	0	0	20	0	0	0	0	0	0	0	0	0	0	0	0	0	0	0	0	0	0	0	0	0	0	0	0	0	0	0	0	0	73	43	0	0	0	116	0	0	0	0	0	0	0	0	0	0	0	0	0	0	0	0	0	0	0	0	0	0	82	49	5	0	0	136	125	0	849	1	0	0	0	850	0	0	0	0	0	0	0	0	0	0	0	0	0	0	0	0	0	0	0	0	0	0	0	0	0	0	0	0	0	4498	15	1	0	0	4514	0	0	0	0	0	0	0	0	0	0	0	0	0	0	0	0	0	0	0	0	0	0	5347	16	1	0	0	5364	0	0	0	0	0	5	0	1	0	1	1	3	0	0	0		NEAL HUNTER	9018370171	2/24/2004	3/3/2004		
2003	20030329	CINCINNATI GAS & ELECTRIC CO	2364	139 EAST FOURTH STREET	CINCINNATI	HAMILTON	OH	45202						 OH	170	0	0	2472	1756	757	0	3	0	0	5158	24296	0	0	39975	257711	79	0	106916	7659	0	436636	0	860	944	648	161	29	2642	0	0	0	0	0	0	0	0	3	0	0	0	0	3	0	4	332	276	107	38	757	0	0	0	0	0	0	0	0	1008	551	197	0	0	1756	0	0	0	0	0	0	0	0	0	0	0	0	0	0	0	0	0	0	0	0	0	0	1875	1827	1121	268	67	5158	65	0	10401	50555	2835	468	12	64271	0	0	0	0	0	0	0	0	52139	54771	6	0	0	106916	0	0	0	35	43	1	79	0	0	0	0	0	0	0	0	233299	23671	698	43	0	257711	0	0	0	0	0	0	0	7659	0	0	0	0	0	7659	0	0	0	0	0	0	0	7659	295839	128997	3574	554	13	436636	217	77	618	1050	145	568	29	122	233	314	11	29	863	0	1.67		SUSAN M. GILB / REGULATORY COMPLIANCE SPECIALIST	5132872752	2/24/2004	3/3/2004		
2003	20030330	UNION LIGHT HEAT & POWER CO	20110	139 EAST FOURTH STREET	CINCINNATI	HAMILTON	OH	45202	107 BRENT SQUARE	COVINGTON	KENTON	KY	41011	 KY	26	0	0	584	471	104	0	7	0	0	1192	5099	0	0	4696	65777	7	0	18612	1894	0	96085	0	165	210	206	28	1	610	0	0	0	0	0	0	0	0	7	0	0	0	0	7	0	0	66	30	8	0	104	0	0	0	0	0	0	0	0	255	149	67	0	0	471	0	0	0	0	0	0	0	0	0	0	0	0	0	0	0	0	0	0	0	0	0	0	427	425	303	36	1	1192	65	0	1522	7948	284	41	0	9795	0	0	0	0	0	0	0	0	10187	8425	0	0	0	18612	0	0	0	4	3	0	7	0	0	0	0	0	0	0	0	59706	5918	136	17	0	65777	0	0	0	0	0	0	0	1894	0	0	0	0	0	1894	0	0	0	0	0	0	0	1894	71415	22291	424	61	0	96085	76	13	258	253	29	104	4	49	7	88	1	4	82	0	1.52		SUSAN M. GILB	5132872752	2/24/2004	3/3/2004		
2003	20030331	ELKTON GAS SERVICE - DIV PENNS & SOUTHERN GAS CO	4376	"PO BOX 129,125 E HIGH ST "	ELKTON	CECIL	MD	21921	1 ELIZABETHTOWN PLAZA	UNION		NJ	7083	 MD	0	0	0	30	49	0	0	0	0	0	79	0	0	0	1454	2945	0	0	0	0	0	4399	0	13	14	3	0	0	30	0	0	0	0	0	0	0	0	0	0	0	0	0	0	0	0	0	0	0	0	0	0	0	0	0	0	0	0	0	23	23	3	0	0	49	0	0	0	0	0	0	0	0	0	0	0	0	0	0	0	0	0	0	0	0	0	0	36	37	6	0	0	79	52	0	1278	173	3	0	0	1454	0	0	0	0	0	0	0	0	0	0	0	0	0	0	0	0	0	0	0	0	0	0	0	0	0	0	0	0	0	2777	154	14	0	0	2945	0	0	0	0	0	0	0	0	0	0	0	0	0	0	0	0	0	0	0	0	0	0	4055	327	17	0	0	4399	3	2	2	4	3	3	0	2	0	1	0	0	0	0	2.43		KEVIN OBARA	4103984626	2/24/2004	3/3/2004		
2003	20030332	"GULF BREEZE, CITY OF"	6850	1070 SHORELINE DRIVE	GULF BREEZE	SANTA ROSA	FL	32561				FL		 FL	0	0	0	34	80	0	0	0	0	0	114	0	0	0	665	2335	0	0	0	0	0	3000	0	18	11	5	0	0	34	0	0	0	0	0	0	0	0	0	0	0	0	0	0	0	0	0	0	0	0	0	0	0	0	0	0	0	0	0	67	1	12	0	0	80	0	0	0	0	0	0	0	0	0	0	0	0	0	0	0	0	0	0	0	0	0	0	85	12	17	0	0	114	77	0	665	10	0	0	0	675	0	0	0	0	0	0	0	0	0	0	0	0	0	0	0	0	0	0	0	0	0	0	0	0	0	0	0	0	0	2320	5	0	0	0	2325	0	0	0	0	0	0	0	0	0	0	0	0	0	0	0	0	0	0	0	0	0	0	2985	15	0	0	0	3000	0	2	0	0	0	18	0	1	0	5	0	24	0	0	0	*ATMOSPHERIC CORROSION ABOVE GROUND	HAROLD HATCHER	8509345108	2/24/2004	3/3/2004		
2003	20030333	BALDWYN MUN GAS SYST	969	206 S 2ND STREET	BALDWYN	PRONTISS	MS	38824						 MS	0	0	0	58	37	0	0	0	0	0	95	0	0	0	914	711	0	0	0	0	0	1625	0	17	11	20	0	0	48	0	0	0	0	0	0	0	0	0	0	0	0	0	0	0	0	0	0	0	0	0	0	0	0	0	0	0	0	0	41	4	2	0	0	47	0	0	0	0	0	0	0	0	0	0	0	0	0	0	0	0	0	0	0	0	0	0	58	15	22	0	0	95	80	0	908	6	0	0	0	914	0	0	0	0	0	0	0	0	0	0	0	0	0	0	0	0	0	0	0	0	0	0	0	0	0	0	0	0	0	710	1	0	0	0	711	0	0	0	0	0	0	0	0	0	0	0	0	0	0	0	0	0	0	0	0	0	0	1618	7	0	0	0	1625	3	2	0	0	1	4	0	0	0	0	0	0	3	0	2.3		JUANITA HEAVENER	6623658171	2/24/2004	3/3/2004		
2003	20030334	CEDAR FALLS MUNICIPAL UTILITY	2164	UTILITY PARKWAY	CEDAR FALLS	BLACK HAWK	IA	50613				IA		 IA	0	0	0	42	142	0	0	0	0	0	184	0	0	0	1729	8249	0	0	0	0	0	9978	0	11	20	6	5	0	42	0	0	0	0	0	0	0	0	0	0	0	0	0	0	0	0	0	0	0	0	0	0	0	0	0	0	0	0	0	54	59	29	0	0	142	0	0	0	0	0	0	0	0	0	0	0	0	0	0	0	0	0	0	0	0	0	0	65	79	35	5	0	184	70	0	1468	246	12	3	0	1729	0	0	0	0	0	0	0	0	0	0	0	0	0	0	0	0	0	0	0	0	0	0	0	0	0	0	0	0	0	7680	555	12	2	0	8249	0	0	0	0	0	0	0	0	0	0	0	0	0	0	0	0	0	0	0	0	0	0	9148	801	24	5	0	9978	0	0	0	3	4	2	0	0	0	1	1	1	2	0	0		BILL MCGARVEY	3192685337	2/24/2004	3/3/2004		
2003	20030335	OKALOOSA COUNTY GAS DISTRICT	14200	360 VALPARAISO PARKWAY	VALPARAISO	OKALOOSA	FL	32580						 FL	0	260	0	171	644	27	0	0	0	0	1102	0	13290	0	184	32698	0	0	0	0	0	46172	0	185	155	86	5	0	431	0	0	0	0	0	0	0	0	0	0	0	0	0	0	0	0	25	2	0	0	27	0	0	0	0	0	0	0	0	527	114	3	0	0	644	0	0	0	0	0	0	0	0	0	0	0	0	0	0	0	0	0	0	0	0	0	0	712	294	91	5	0	1102	97	0	13394	70	8	2	0	13474	0	0	0	0	0	0	0	0	0	0	0	0	0	0	0	0	0	0	0	0	0	0	0	0	0	0	0	0	0	32161	537	0	0	0	32698	0	0	0	0	0	0	0	0	0	0	0	0	0	0	0	0	0	0	0	0	0	0	45555	607	8	2	0	46172	2	56	0	8	50	406	0	23	6	96	0	0	0	13	2.33		"ESSA RHEBI, SYSTEMS ENGINEER"	8507294870	2/24/2004	3/3/2004		
2003	20030336	NORTHWEST NATURAL GAS CO	13840	314 MAIN ST NE PO BOX 721	MAPLETON	BLUE EARTH	MN	56065						 MN	0	0	0	18	61	0	0	0	0	0	79	0	0	0	49	1596	0	0	0	0	0	1645	0	2	16	0	0	0	18	0	0	0	0	0	0	0	0	0	0	0	0	0	0	0	0	0	0	0	0	0	0	0	0	0	0	0	0	0	28	33	0	0	0	61	0	0	0	0	0	0	0	0	0	0	0	0	0	0	0	0	0	0	0	0	0	0	30	49	0	0	0	79	0	0	48	1	0	0	0	49	0	0	0	0	0	0	0	0	0	0	0	0	0	0	0	0	0	0	0	0	0	0	0	0	0	0	0	0	0	1578	18	0	0	0	1596	0	0	0	0	0	0	0	0	0	0	0	0	0	0	0	0	0	0	0	0	0	0	1626	19	0	0	0	1645	0	0	0	0	0	0	0	0	0	0	0	0	0	0	0		CHERI LANDSTEINER	5075244103	2/24/2004	3/3/2004		
2003	20030337	"MORTON MUNICIPAL GAS UTILITY, CITY OF"	12810	PO BOX 28 120 N MAIN ST	MORTON	TAZEWELL	IL	61550						 IL	0	0	0	57	45	0	0	0	0	0	102	0	0	136	2165	2523	0	0	0	0	0	4824	0	20	24	13	0	0	57	0	0	0	0	0	0	0	0	0	0	0	0	0	0	0	0	0	0	0	0	0	0	0	0	0	0	0	0	0	24	17	4	0	0	45	0	0	0	0	0	0	0	0	0	0	0	0	0	0	0	0	0	0	0	0	0	0	44	41	17	0	0	102	90	0	1947	351	3	0	0	2301	0	0	0	0	0	0	0	0	0	0	0	0	0	0	0	0	0	0	0	0	0	0	0	0	0	0	0	0	0	2495	28	0	0	0	2523	0	0	0	0	0	0	0	0	0	0	0	0	0	0	0	0	0	0	0	0	0	0	4442	379	3	0	0	4824	0	3	3	2	1	9	0	2	1	48	17	100	2	0	0.04		LON K. BARKDOLL	3092665361	2/24/2004	3/3/2004		
2003	20030338	BUSHNELL MUNICIPAL GAS UTILITY	1944	148 EAST HAIL	BUSHNELL	MCDONOUGH	IL	61422						 IL	0	0	0	44	12	0	0	0	0	0	56	0	0	0	1300	319	0	0	0	0	0	1619	0	7	3	33	0	0	43	0	0	0	0	0	0	0	0	0	0	0	0	0	0	0	0	0	0	0	0	0	0	0	0	0	0	0	0	0	11	2	0	0	0	13	0	0	0	0	0	0	0	0	0	0	0	0	0	0	0	0	0	0	0	0	0	0	18	5	33	0	0	56	75	0	1286	13	1	0	0	1300	0	0	0	0	0	0	0	0	0	0	0	0	0	0	0	0	0	0	0	0	0	0	0	0	0	0	0	0	0	304	12	3	0	0	319	0	0	0	0	0	0	0	0	0	0	0	0	0	0	0	0	0	0	0	0	0	0	1590	25	4	0	0	1619	0	0	0	0	0	0	0	0	0	0	0	0	2	0	0		"BARNES, HENRY, MEISENHEIMER & GENDE, INC"	6362968600	2/25/2004	3/3/2004		
2003	20030339	"MILTON, CITY OF"	12540	6738 DIXON STREET	MILTON	SANTA ROSA	FL	32570	P.O. BOX 909	MILTON		FL	32572	 FL	3	4	4	121	107	7	0	0	0	0	246	905	2	235	2244	2295	0	0	0	0	0	5681	0	99	21	12	0	0	132	0	0	0	0	0	0	0	0	0	0	0	0	0	0	0	6	1	0	0	0	7	0	0	0	0	0	0	0	0	98	9	0	0	0	107	0	0	0	0	0	0	0	0	0	0	0	0	0	0	0	0	0	0	0	0	0	0	203	31	12	0	0	246	91	0	3346	39	1	0	0	3386	0	0	0	0	0	0	0	0	0	0	0	0	0	0	0	0	0	0	0	0	0	0	0	0	0	0	0	0	0	2249	45	1	0	0	2295	0	0	0	0	0	0	0	0	0	0	0	0	0	0	0	0	0	0	0	0	0	0	5595	84	2	0	0	5681	2	22	0	0	5	13	1	1	3	0	18	168	0	0	4.6		"DONALD W. SIDEBOTTOM, GAS DIRECTOR"	8509835428	2/25/2004	3/3/2004		
2003	20030340	WILCOX COUNTY GAS DISTRIBUTION	22605	495 CHURCH ST.	PINE HILL	WILCOX	AL	-6772						AL	0	0	0	64	4	0	0	0	0	0	68	0	0	427	79	135	0	0	0	0	0	641	0	0	64	0	0	0	64	0	0	0	0	0	0	0	0	0	0	0	0	0	0	0	0	0	0	0	0	0	0	0	0	0	0	0	0	0	4	0	0	0	0	4	0	0	0	0	0	0	0	0	0	0	0	0	0	0	0	0	0	0	0	0	0	0	4	64	0	0	0	68	300	0	499	7	0	0	0	506	0	0	0	0	0	0	0	0	0	0	0	0	0	0	0	0	0	0	0	0	0	0	0	0	0	0	0	0	0	131	4	0	0	0	135	0	0	0	0	0	0	0	0	0	0	0	0	0	0	0	0	0	0	0	0	0	0	630	11	0	0	0	641	0	0	0	0	0	10	0	0	0	0	0	0	0	0	1.5		JENNIFER AUTREY	3349634709	2/25/2004	6/15/2004		
2003	20030341	"DEFUNIAK SPRINGS NATURAL GAS SYSTEM, CITY OF"	3190	71 US HWY 90 W PO BOX 685	DEFUNIAK SPRINGS	WALTON	FL	32433						 FL	0	0	0	41	34	0	0	0	0	0	75	0	0	0	2	1299	0	0	0	0	0	1301	0	20	20	1	0	0	41	0	0	0	0	0	0	0	0	0	0	0	0	0	0	0	0	0	0	0	0	0	0	0	0	0	0	0	0	0	19	15	0	0	0	34	0	0	0	0	0	0	0	0	0	0	0	0	0	0	0	0	0	0	0	0	0	0	39	35	1	0	0	75	0	0	0	2	0	0	0	2	0	0	0	0	0	0	0	0	0	0	0	0	0	0	0	0	0	0	0	0	0	0	0	0	0	0	0	0	0	1268	30	1	0	0	1299	0	0	0	0	0	0	0	0	0	0	0	0	0	0	0	0	0	0	0	0	0	0	1268	32	1	0	0	1301	0	0	0	0	0	1	0	0	0	2	0	9	0	0	1		JOHN V. RAUCH	8508928571	2/25/2004	3/3/2004		
2003	20030342	"MARTIN, CITY OF"	12204	703 N. LINDELL STREET	MARTIN 	WEAKLEY	TN	38237						TN	0	0	0	46	31	0	0	0	0	0	77	0	0	300	1045	1017	0	0	0	0	0	2362	0	13	27	6	0	0	46	0	0	0	0	0	0	0	0	0	0	0	0	0	0	0	0	0	0	0	0	0	0	0	0	0	0	0	0	0	11	20	0	0	0	31	0	0	0	0	0	0	0	0	0	0	0	0	0	0	0	0	0	0	0	0	0	0	24	47	6	0	0	77	65	0	1306	35	4	0	0	1345	0	0	0	0	0	0	0	0	0	0	0	0	0	0	0	0	0	0	0	0	0	0	0	0	0	0	0	0	0	0	0	0	0	0	0	0	1012	5	0	0	0	1017	0	0	0	0	0	0	0	0	0	0	0	0	0	0	0	2318	40	4	0	0	2362	0	0	0	0	1	1	1	0	0	0	6	18	0	0	3		"CHARLES VOWELL, JR./DIRECTOR PUBLIC WORKS"	7315874910	2/25/2004	3/3/2004		
2003	20030343	FAYETTEVILLE GAS SYSTEM	5110	401 MAIN AVE N PO BOX 56	FAYETTEVILLE	LINCOLN	TN	37334						 TN	0	0	4	61	165	0	0	0	0	0	230	0	0	307	615	5228	0	0	0	0	0	6150	0	13	15	37	0	0	65	0	0	0	0	0	0	0	0	0	0	0	0	0	0	0	0	0	0	0	0	0	0	0	0	0	0	0	0	0	114	33	18	0	0	165	0	0	0	0	0	0	0	0	0	0	0	0	0	0	0	0	0	0	0	0	0	0	127	48	55	0	0	230	150	0	900	13	9	0	0	922	0	0	0	0	0	0	0	0	0	0	0	0	0	0	0	0	0	0	0	0	0	0	0	0	0	0	0	0	0	5204	24	0	0	0	5228	0	0	0	0	0	0	0	0	0	0	0	0	0	0	0	0	0	0	0	0	0	0	6104	37	9	0	0	6150	0	0	0	2	2	30	0	1	5	13	0	34	0	0	0	NOTE: ALL LEAKS REPAIRED IN (OTHER) SECTION WERE VERY SMALL LEAKS OF A SEEPING NATURE ON METER SETS.	RANDALL GRIHA	9314334548	2/25/2004	3/3/2004		
2003	20030344	PALMETTO GAS SYSTEM	15077	PO BOX 97 224 E RAILROAD 	PALMETTO	ST. LANDRY	LA	71358						 LA	0	0	0	29	20	0	0	0	0	0	49	0	0	0	219	218	0	0	0	0	0	437	0	12	4	13	0	0	29	0	0	0	0	0	0	0	0	0	0	0	0	0	0	0	0	0	0	0	0	0	0	0	0	0	0	0	0	0	14	6	0	0	0	20	0	0	0	0	0	0	0	0	0	0	0	0	0	0	0	0	0	0	0	0	0	0	26	10	13	0	0	49	50	0	219	0	0	0	0	219	0	0	0	0	0	0	0	0	0	0	0	0	0	0	0	0	0	0	0	0	0	0	0	0	0	0	0	0	0	0	0	0	0	0	0	0	218	0	0	0	0	218	0	0	0	0	0	0	0	0	0	0	0	0	0	0	0	437	0	0	0	0	437	0	3	0	0	4	0	0	0	0	0	0	6	0	0	1.2		DORIS V. MCGEE	3376234426	2/25/2004	3/3/2004		
2003	20030345	"GREENUP, VILLAGE OF"	6780	115 CUMBERLAND PO BOX 246	GREENUP	CUMBLERLAND	IL	62428						 IL	0	0	0	33	2	0	0	0	0	0	35	0	0	0	852	0	0	0	0	0	0	852	0	18	15	0	0	0	33	0	0	0	0	0	0	0	0	0	0	0	0	0	0	0	0	0	0	0	0	0	0	0	0	0	0	0	0	0	2	0	0	0	0	2	0	0	0	0	0	0	0	0	0	0	0	0	0	0	0	0	0	0	0	0	0	0	20	15	0	0	0	35	0	0	718	113	0	0	0	831	0	0	0	0	0	0	0	0	0	0	0	0	0	0	0	0	0	0	0	0	0	0	0	0	0	0	0	0	0	20	1	0	0	0	21	0	0	0	0	0	0	0	0	0	0	0	0	0	0	0	0	0	0	0	0	0	0	738	114	0	0	0	852	0	0	0	0	0	0	0	0	0	0	0	0	0	0	3		CHARLES L. CARVER/SUPT. OF UTILITIES	2179233401	2/25/2004	3/3/2004		
2003	20030346	WOODWORTH MUNICIPAL GAS DEPT	25049	PO BOX 228 27 CASTOR PLUN	WOODWORTH	RAPIDES	LA	71485						 LA	0	21	0	0	4	0	0	0	9	0	34	0	231	24	0	0	0	0	0	96	0	351	0	11	10	0	0	0	21	0	0	0	0	0	0	0	0	0	0	0	0	0	0	0	0	0	0	0	0	0	0	4	0	0	0	0	4	0	9	0	0	0	0	9	0	0	0	0	0	0	0	0	0	0	0	0	0	0	0	0	0	0	0	0	0	0	24	10	0	0	0	34	75	0	228	3	0	0	0	231	0	0	0	0	0	0	0	0	0	0	0	0	0	0	0	0	0	0	0	0	0	0	24	0	0	0	0	24	0	0	0	0	0	0	0	0	96	0	0	0	0	96	0	0	0	0	0	0	0	0	0	0	0	0	0	0	0	348	3	0	0	0	351	0	0	0	0	0	0	0	0	0	0	0	0	0	0	0.08		DAVID C. BUTLER II/MAYOR	3184421198	2/25/2004	3/3/2004		
2003	20030347	"PLEASANT HILL GAS SYSTEM, VILLAGE OF"	15700	104 WEST QUINCY STREET	PLEASENT HILL	PIKE	IL	62366						 IL	0	0	0	8	3	0	0	0	0	0	11	0	0	0	489	65	0	0	0	0	0	554	0	5	3	0	0	0	8	0	0	0	0	0	0	0	0	0	0	0	0	0	0	0	0	0	0	0	0	0	0	0	0	0	0	0	0	0	3	0	0	0	0	3	0	0	0	0	0	0	0	0	0	0	0	0	0	0	0	0	0	0	0	0	0	0	8	3	0	0	0	11	25	0	483	6	0	0	0	489	0	0	0	0	0	0	0	0	0	0	0	0	0	0	0	0	0	0	0	0	0	0	0	0	0	0	0	0	0	65	0	0	0	0	65	0	0	0	0	0	0	0	0	0	0	0	0	0	0	0	0	0	0	0	0	0	0	548	6	0	0	0	554	0	0	0	0	0	0	0	0	0	0	0	1	0	0	5.48		"BARNES, HENRY, MEISENHEIMER & GENDE, INC"	6362968600	2/25/2004	3/3/2004		
2003	20030348	CONSUMERS GAS UTILITY CO	2736	900 MEMORIAL BLVD.	HUNTINGTON	CABELL	WV	25778						 WV	55	5	10	24	386	0	0	0	0	0	480	1385	55	411	300	7395	0	0	0	0	0	9546	0	46	38	10	0	0	94	0	0	0	0	0	0	0	0	0	0	0	0	0	0	0	0	0	0	0	0	0	0	3	5	0	0	0	8	0	198	160	20	0	0	378	0	0	0	0	0	0	0	0	0	0	0	0	0	0	0	0	0	0	0	0	0	0	247	203	30	0	0	480	22	0	2075	68	9	0	0	2152	0	0	0	0	0	0	0	0	0	0	0	0	0	0	0	0	0	0	0	0	0	0	87	0	0	0	0	87	0	7169	128	10	0	0	7307	0	0	0	0	0	0	0	0	0	0	0	0	0	0	0	0	0	0	0	0	0	0	9331	196	19	0	0	9546	193	52	14	8	28	42	2	0	11	12	21	71	47	0	5.8		"GARY G. HALL,PIPELINE SAFETY SUPERVISOR"	3046592971	2/25/2004	3/3/2004		
2003	20030349	UNISOURCE ENERGY SERVICES	31840	"2901 W. SHAMRELL BLVD, SUITE 110"	FLAGSTAFF	COCONINO	AZ	86001	ONE S CHURCH AVE STE 1820	TUCSON	PIMA	AZ	85701	 AZ	0	0	0	1265	1266	0	0	0	0	0	2531	0	0	0	55704	77357	0	0	0	0	0	133061	0	704	329	189	43	0	1265	0	0	0	0	0	0	0	0	0	0	0	0	0	0	0	0	0	0	0	0	0	0	128	0	0	0	0	128	0	858	268	12	0	0	1138	0	0	0	0	0	0	0	0	0	0	0	0	0	0	0	0	0	0	0	0	0	0	1690	597	201	43	0	2531	55	0	54497	1159	48	0	0	55704	0	0	0	0	0	0	0	0	0	0	0	0	0	0	0	0	0	0	0	0	0	0	4459	27	0	0	0	4486	0	72608	253	10	0	0	72871	0	0	0	0	0	0	0	0	0	0	0	0	0	0	0	0	0	0	0	0	0	0	131564	1439	58	0	0	133061	7	4	2	3	61	149	20	39	2	2	55	196	78	0	1.68		J. BEHNE	9287744592	2/25/2004	3/3/2004		
2003	20030350	HUMPHREYS COUNTY UTILITY DISTRICT	7655	PO BOX 519 304 N CHURCH  	WAVERLY	HUMPHREYS	TN	37185						 TN	0	0	0	101	288	0	0	0	0	0	389	0	0	0	1194	6360	0	0	0	0	0	7554	0	57	22	22	0	0	101	0	0	0	0	0	0	0	0	0	0	0	0	0	0	0	0	0	0	0	0	0	0	0	0	0	0	0	0	0	228	0	60	0	0	288	0	0	0	0	0	0	0	0	0	0	0	0	0	0	0	0	0	0	0	0	0	0	285	22	82	0	0	389	0	0	1175	6	11	2	0	1194	0	0	0	0	0	0	0	0	0	0	0	0	0	0	0	0	0	0	0	0	0	0	0	0	0	0	0	0	0	6342	14	4	0	0	6360	0	0	0	0	0	0	0	0	0	0	0	0	0	0	0	0	0	0	0	0	0	0	7517	20	15	2	0	7554	1	2	3	3	5	30	2	0	0	5	0	1	0	0	1		STEVE HOOPER	9312963204	2/25/2004	3/3/2004		
2003	20030351	"ORONOGO MUNICIPAL GAS SYSTEM , CITY OF"	14360	653 E. CENTRAL	ORONOGO	JASPER	MO	64855						 MO	0	0	0	0	6	0	0	0	0	0	6	90	0	0	0	148	0	0	0	0	0	238	0	0	0	0	0	0	0	0	0	0	0	0	0	0	0	0	0	0	0	0	0	0	0	0	0	0	0	0	0	0	0	0	0	0	0	0	0	0	0	0	0	0	0	3	3	0	0	0	6	0	0	0	0	0	0	0	0	0	0	0	0	0	0	0	3	3	0	0	0	6	30	0	90	0	0	0	0	90	0	0	0	0	0	0	0	0	0	0	0	0	0	0	0	0	0	0	0	0	0	0	0	0	0	0	0	0	0	0	0	0	0	0	0	0	147	1	0	0	0	148	0	0	0	0	0	0	0	0	0	0	0	0	0	0	0	237	1	0	0	0	238	0	0	0	0	0	0	0	0	0	0	0	0	0	0	0.5		JAMES WESLEY WATKINS	4176734541	2/26/2004	3/3/2004		
2003	20030352	"WEST FELICIANA PARISH, GAS UTIL DIST # 1 OF"	6241	4794 PROSPERITY STREET	ST FRANCISVILLE	WEST FELICIANA PARIS	LA	70775						 LA	0	0	0	29	51	0	0	0	0	0	80	0	0	0	16	297	0	0	0	0	0	313	0	1	0	28	0	0	29	0	0	0	0	0	0	0	0	0	0	0	0	0	0	0	0	0	0	0	0	0	0	11	19	0	0	0	30	0	0	21	0	0	0	21	0	0	0	0	0	0	0	0	0	0	0	0	0	0	0	0	0	0	0	0	0	0	12	40	28	0	0	80	50	0	16	0	0	0	0	16	0	0	0	0	0	0	0	0	0	0	0	0	0	0	0	0	0	0	0	0	0	0	225	0	0	0	0	225	0	72	0	0	0	0	72	0	0	0	0	0	0	0	0	0	0	0	0	0	0	0	0	0	0	0	0	0	0	313	0	0	0	0	313	0	1	1	2	5	5	0	1	0	1	0	0	2	0	0.02		"CLAY HARDOUIN,SUPERINTENDENT"	2256363590	2/26/2004	3/3/2004		
2003	20030353	FREMONT DEPT OF UTIL - GAS DIV	5613	300 E. 1ST STREET	FRMONT	DODE	NE	68025						 NE	5	0	4	40	140	0	0	0	0	0	189	0	0	0	499	9173	0	0	0	0	0	9672	0	16	13	9	6	5	49	0	0	0	0	0	0	0	0	0	0	0	0	0	0	0	0	0	0	0	0	0	0	0	0	0	0	0	0	0	119	21	0	0	0	140	0	0	0	0	0	0	0	0	0	0	0	0	0	0	0	0	0	0	0	0	0	0	135	34	9	6	5	189	60	0	9	470	18	1	1	499	0	0	0	0	0	0	0	0	0	0	0	0	0	0	0	0	0	0	0	0	0	0	0	0	0	0	0	0	0	9083	86	4	0	0	9173	0	0	0	0	0	0	0	0	0	0	0	0	0	0	0	0	0	0	0	0	0	0	9092	556	22	1	1	9672	1	0	0	0	5	5	0	0	0	0	2	43	7	0	0.07		DAN DIECKMANN	4027272661	2/26/2004	3/3/2004		
2003	20030354	CLAYTON GAS SYSTEM	2476	101 SHADY LANE PO BOX 277	CLAYTON		LA	71326						 LA	0	0	0	9	3	0	0	0	0	0	12	0	0	0	219	93	0	0	0	0	0	312	0	6	3	0	0	0	9	0	0	0	0	0	0	0	0	0	0	0	0	0	0	0	0	0	0	0	0	0	0	0	0	0	0	0	0	0	1	2	0	0	0	3	0	0	0	0	0	0	0	0	0	0	0	0	0	0	0	0	0	0	0	0	0	0	7	5	0	0	0	12	20	0	218	0	1	0	0	219	0	0	0	0	0	0	0	0	0	0	0	0	0	0	0	0	0	0	0	0	0	0	0	0	0	0	0	0	0	93	0	0	0	0	93	0	0	0	0	0	0	0	0	0	0	0	0	0	0	0	0	0	0	0	0	0	0	311	0	1	0	0	312	0	0	0	0	0	0	0	0	0	0	0	2	2	0	19		SADIE G. JONES	3187578540	2/26/2004	3/3/2004		
2003	20030355	UNION SPRINGS UTILITIES BOARD	20150	303 SOUTH POWELL STREET	UNION SPRINGS	BULLOCK	AL	36089	134 NORTH PAIRIE STREET	UNION SPRINGS	BULLOCK	AL	36089	 AL	0	0	0	41	31	0	0	0	0	0	72	0	0	0	128	888	0	0	0	0	0	1016	0	2	31	8	0	0	41	0	0	0	0	0	0	0	0	0	0	0	0	0	0	0	0	0	0	0	0	0	0	0	0	0	0	0	0	0	31	0	0	0	0	31	0	0	0	0	0	0	0	0	0	0	0	0	0	0	0	0	0	0	0	0	0	0	33	31	8	0	0	72	100	0	128	0	0	0	0	128	0	0	0	0	0	0	0	0	0	0	0	0	0	0	0	0	0	0	0	0	0	0	0	0	0	0	0	0	0	881	7	0	0	0	888	0	0	0	0	0	0	0	0	0	0	0	0	0	0	0	0	0	0	0	0	0	0	1009	7	0	0	0	1016	0	5	0	3	1	0	0	0	0	0	0	1	0	0	2.071		CYNTHIA L. WALKER	3347382212	2/26/2004	3/3/2004		
2003	20030356	SELMER NATURAL GAS SYSTEM	18176	480 CIRCLE HILL DRIVE	SELMER	MCNAIRY	TN	38375	 500 PEACHTREE PO BOX 649	SELMER	MCNAIRY	TN	38375	 TN	0	0	0	58	43	0	0	0	0	0	101	0	0	0	749	1230	0	0	0	0	0	1979	0	39	10	9	0	0	58	0	0	0	0	0	0	0	0	0	0	0	0	0	0	0	0	0	0	0	0	0	0	0	0	0	0	0	0	0	27	16	0	0	0	43	0	0	0	0	0	0	0	0	0	0	0	0	0	0	0	0	0	0	0	0	0	0	66	26	9	0	0	101	100	0	749	1	0	1	0	751	0	0	0	0	0	0	0	0	0	0	0	0	0	0	0	0	0	0	0	0	0	0	0	0	0	0	0	0	0	1194	26	8	0	0	1228	0	0	0	0	0	0	0	0	0	0	0	0	0	0	0	0	0	0	0	0	0	0	1943	27	8	1	0	1979	0	4	0	0	2	6	0	0	0	0	0	0	0	0	0	REC'VD 02-12-04  ANSWERED 02-19-04	RICHARD A. COLEMAN	7316457928	2/26/2004	3/3/2004		
2003	20030357	BRIGHTON MUNICIPAL GAS SYSTEM	1752	100 E. WASHINGTON	BRIGHTON	WASHINGTON	IA	52540						 IA	0	0	0	10	0	0	0	0	0	0	10	0	0	0	318	33	0	0	0	0	0	351	0	10	0	0	0	0	10	0	0	0	0	0	0	0	0	0	0	0	0	0	0	0	0	0	0	0	0	0	0	0	0	0	0	0	0	0	0	0	0	0	0	0	0	0	0	0	0	0	0	0	0	0	0	0	0	0	0	0	0	0	0	0	0	0	10	0	0	0	0	10	75	0	317	1	0	0	0	318	0	0	0	0	0	0	0	0	0	0	0	0	0	0	0	0	0	0	0	0	0	0	0	0	0	0	0	0	0	33	0	0	0	0	33	0	0	0	0	0	0	0	0	0	0	0	0	0	0	0	0	0	0	0	0	0	0	350	1	0	0	0	351	1	0	1	0	0	0	0	0	0	0	0	0	0	0	1.55		JOE SANNER	3196942695	2/26/2004	3/3/2004		
2003	20030358	"LAS CRUCES, CITY OF"	11240	680 N. MOTEL BOULEVARD	LAS CRUCES	DONA ANA	NM	88007						 NM	0	0	0	152	167	0	0	0	0	0	319	0	0	0	8984	17778	0	0	0	0	0	26762	0	87	56	9	0	0	152	0	0	0	0	0	0	0	0	0	0	0	0	0	0	0	0	0	0	0	0	0	0	0	0	0	0	0	0	0	122	45	0	0	0	167	0	0	0	0	0	0	0	0	0	0	0	0	0	0	0	0	0	0	0	0	0	0	209	101	9	0	0	319	55	0	8754	228	2	0	0	8984	0	0	0	0	0	0	0	0	0	0	0	0	0	0	0	0	0	0	0	0	0	0	0	0	0	0	0	0	0	17691	74	13	0	0	17778	0	0	0	0	0	0	0	0	0	0	0	0	0	0	0	0	0	0	0	0	0	0	26445	302	15	0	0	26762	10	14	0	0	6	34	6	26	0	0	48	579	128	0	0.5		VINCENT SANCHEZ	5055283505	2/26/2004	3/3/2004		
2003	20030359	BELLE RIVE GAS CO	1256	109 S MAIN ST PO BOX 147	BELL RIVE	JEFFERSON	IL	62810						 IL	0	0	0	15	2	0	0	0	0	0	17	0	0	0	163	25	0	0	0	0	0	188	0	15	0	0	0	0	15	0	0	0	0	0	0	0	0	0	0	0	0	0	0	0	0	0	0	0	0	0	0	0	0	0	0	0	0	0	2	0	0	0	0	2	0	0	0	0	0	0	0	0	0	0	0	0	0	0	0	0	0	0	0	0	0	0	17	0	0	0	0	17	0	0	161	2	0	0	0	163	0	0	0	0	0	0	0	0	0	0	0	0	0	0	0	0	0	0	0	0	0	0	0	0	0	0	0	0	0	25	0	0	0	0	25	0	0	0	0	0	0	0	0	0	0	0	0	0	0	0	0	0	0	0	0	0	0	186	2	0	0	0	188	0	0	0	0	0	0	0	0	0	2	0	2	4	0	2	"ENDING 6/30/02  AMOUNT OF GAS PURCHASED 12553 MCF  AMOUNT OF GAS SOLD              12236 MCF    AS OF DECEMBER, 2003 THERE ARE 151 CUSTOMER SERVICES IN USE AND 35 SERVICE LINES WITH JUST STUBS ON VACANT LOTS AND HOUSES WHERE PEOPLE DON'T WANT SERVICE AT PRESENT TIME."	DORIS MALLORY	6187562289	3/1/2004	3/3/2004		
2003	20030360	AVISTA CORP	31232	1411 E MISSION BOX 3727	SPOKANE	SPOKANE	WA	99220						 WA	0	0	0	1265	1344	0	0	0	0	0	2609	0	0	0	45098	79477	0	0	0	0	0	124575	0	830	241	154	30	10	1265	0	0	0	0	0	0	0	0	0	0	0	0	0	0	0	0	0	0	0	0	0	0	0	0	0	0	0	0	0	1129	178	37	0	0	1344	0	0	0	0	0	0	0	0	0	0	0	0	0	0	0	0	0	0	0	0	0	0	1959	419	191	30	10	2609	76	0	43940	1087	71	0	0	45098	0	0	0	0	0	0	0	0	0	0	0	0	0	0	0	0	0	0	0	0	0	0	0	0	0	0	0	0	0	78776	618	83	0	0	79477	0	0	0	0	0	0	0	0	0	0	0	0	0	0	0	0	0	0	0	0	0	0	122716	1705	154	0	0	124575	0	1	3	10	57	286	3	4	1	5	20	737	0	0	0.81		PATRICIA AIKINS	5094954413	3/1/2004	3/3/2004		
2003	20030361	AVISTA CORP	31232	1411 E MISSION BOX 3727	SPOKANE	SPOKANE	WA	99220						 ID	0	0	0	487	1015	0	0	0	0	0	1502	0	0	0	16232	43917	0	0	0	0	0	60149	0	309	114	63	1	0	487	0	0	0	0	0	0	0	0	0	0	0	0	0	0	0	0	0	0	0	0	0	0	0	0	0	0	0	0	0	759	208	48	0	0	1015	0	0	0	0	0	0	0	0	0	0	0	0	0	0	0	0	0	0	0	0	0	0	1068	322	111	1	0	1502	76	0	16192	35	5	0	0	16232	0	0	0	0	0	0	0	0	0	0	0	0	0	0	0	0	0	0	0	0	0	0	0	0	0	0	0	0	0	43758	156	3	0	0	43917	0	0	0	0	0	0	0	0	0	0	0	0	0	0	0	0	0	0	0	0	0	0	59950	191	8	0	0	60149	0	1	11	28	40	154	0	1	0	4	0	558	0	0	5.55	"*A DELIVERY METER ERROR AT LEWISTON, ID. WAS DETERMINED TO BE THE CAUSE OF THIS LARGE IMBALANCE. THE ERROR HAS BEEN QUANTIFIED AND CORRECTED."	PATRICIA AIKINS	5094954413	3/1/2004	3/3/2004		
2003	20030362	PICKENS COUNTY NATURAL GAS DISTRICT	15504	1544 MOBILE ROAD BOX 492	ALICEVILLE	PICKENS	AL	35442						 AL	0	0	0	30	30	0	0	0	0	0	60	0	0	116	28	1479	0	0	0	0	0	1623	0	0	30	0	0	0	30	0	0	0	0	0	0	0	0	0	0	0	0	0	0	0	0	0	0	0	0	0	0	0	0	0	0	0	0	0	22	8	0	0	0	30	0	0	0	0	0	0	0	0	0	0	0	0	0	0	0	0	0	0	0	0	0	0	22	38	0	0	0	60	100	0	135	8	1	0	0	144	0	0	0	0	0	0	0	0	0	0	0	0	0	0	0	0	0	0	0	0	0	0	0	0	0	0	0	0	0	1474	5	0	0	0	1479	0	0	0	0	0	0	0	0	0	0	0	0	0	0	0	0	0	0	0	0	0	0	1609	13	1	0	0	1623	2	1	0	0	2	4	0	3	2	0	0	2	2	0	5		ANNELL A. WALKER	2053732889	2/26/2004	3/3/2004		
2003	20030363	VANCEBURG UTILITIES GAS DEPT	21120	611 FRONT ST PO BOX 489	VANCEBURG	LEWIS	KY	41179						 KY	0	0	0	11	7	0	0	0	0	0	18	0	0	0	535	38	0	0	0	0	0	573	0	0	11	0	0	0	11	0	0	0	0	0	0	0	0	0	0	0	0	0	0	0	0	0	0	0	0	0	0	0	0	0	0	0	0	0	0	7	0	0	0	7	0	0	0	0	0	0	0	0	0	0	0	0	0	0	0	0	0	0	0	0	0	0	0	18	0	0	0	18	20	0	530	5	0	0	0	535	0	0	0	0	0	0	0	0	0	0	0	0	0	0	0	0	0	0	0	0	0	0	0	0	0	0	0	0	0	33	5	0	0	0	38	0	0	0	0	0	0	0	0	0	0	0	0	0	0	0	0	0	0	0	0	0	0	563	10	0	0	0	573	0	0	0	0	0	0	0	0	0	0	0	0	0	0	0		CHAD CLARK/MANAGER GAS DEPT.	6067962641	2/26/2004	3/3/2004		
2003	20030364	W G GAS CO	22101	P.O. BOX 219	RAVENCLIFF		WV	25913						 WV	0	0	0	0	30	0	0	0	0	0	30	0	0	0	0	52	0	0	0	0	0	52	0	0	0	0	0	0	0	0	0	0	0	0	0	0	0	0	0	0	0	0	0	0	0	0	0	0	0	0	0	0	0	0	0	0	0	0	4	0	0	0	0	4	0	0	0	0	0	0	0	0	0	0	0	0	0	0	0	0	0	0	0	0	0	0	4	0	0	0	0	4	5	0	0	0	0	0	0	0	0	0	0	0	0	0	0	0	0	0	0	0	0	0	0	0	0	0	0	0	0	0	0	0	0	0	0	0	0	0	0	0	0	0	0	0	0	52	0	0	0	52	0	0	0	0	0	0	0	0	0	0	0	0	0	0	0	0	52	0	0	0	52	2	0	0	0	0	0	0	0	0	0	0	0	2	0	0.06	ALL REPAIRED	CRYSTALL D. BROWN	3042948430	2/26/2004	3/3/2004		
2003	20030365	"RED BAY NATURAL GAS SYSTEM, TOWN OF"	17130	302 4TH AVE. SE	RED BAY 		AL	35582						 AL	0	0	0	0	77	4	0	0	0	0	81	360	0	0	108	1233	0	0	0	0	0	1701	0	0	0	0	0	0	0	0	0	0	0	0	0	0	0	0	0	0	0	0	0	0	1	6	0	0	0	7	0	0	0	0	0	0	0	0	59	15	0	0	0	74	0	0	0	0	0	0	0	0	0	0	0	0	0	0	0	0	0	0	0	0	0	0	60	21	0	0	0	81	100	0	468	0	0	0	0	468	0	0	0	0	0	0	0	0	0	0	0	0	0	0	0	0	0	0	0	0	0	0	1225	8	0	0	0	1233	0	0	0	0	0	0	0	0	0	0	0	0	0	0	0	0	0	0	0	0	0	0	0	0	0	0	0	0	0	1693	8	0	0	0	1701	37	20	0	0	0	0	0	0	0	0	0	0	0	0	0		WANDA NELSON	2563568622	2/26/2004	3/4/2004		
2003	20030366	RAVENCLIFF FUEL & SUPPLY	17100	P.O. BOX 217	RAVENCLIFF		WV	25913						 WV	3	0	0	0	9	0	0	0	0	0	12	60	0	0	0	390	0	0	0	0	0	450	1	0	2	0	0	0	3	0	0	0	0	0	0	0	0	0	0	0	0	0	0	0	0	0	0	0	0	0	0	0	0	0	0	0	0	8	0	1	0	0	0	9	0	0	0	0	0	0	0	0	0	0	0	0	0	0	0	0	0	0	0	0	0	9	0	3	0	0	0	12	0	0	15	10	0	0	0	25	0	0	0	0	0	0	0	0	0	0	0	0	0	0	0	0	0	0	0	0	0	0	0	0	0	0	0	0	0	311	114	0	0	0	425	0	0	0	0	0	0	0	0	0	0	0	0	0	0	0	0	0	0	0	0	0	0	326	124	0	0	0	450	0	3	0	0	0	0	0	0	0	0	0	0	3	0	0.094	ALL LEAKS WERE REPAIRED!	CRYSTAL D. BROWN/OFFICE MANAGER	3042948430	2/26/2004	3/4/2004		
2003	20030367	STEVENSON UTILITIES BOARD	18644	42274 US HWY 72	STEVENSON	JACKSON	AL	35772						 AL	0	0	0	19	3	0	0	0	0	0	22	0	0	4	203	166	0	0	0	0	0	373	0	8	11	0	0	0	19	0	0	0	0	0	0	0	0	0	0	0	0	0	0	0	0	0	0	0	0	0	0	0	0	0	0	0	0	0	3	0	0	0	0	3	0	0	0	0	0	0	0	0	0	0	0	0	0	0	0	0	0	0	0	0	0	0	11	11	0	0	0	22	100	0	207	0	0	0	0	207	0	0	0	0	0	0	0	0	0	0	0	0	0	0	0	0	0	0	0	0	0	0	0	0	0	0	0	0	0	164	2	0	0	0	166	0	0	0	0	0	0	0	0	0	0	0	0	0	0	0	0	0	0	0	0	0	0	371	2	0	0	0	373	1	0	0	0	0	0	0	0	0	0	1	5	1	0	0.05		"TOMMY BRYANT, JR."	2564370277	2/26/2004	3/4/2004		
2003	20030368	DENVER CITY GAS SYSTEM	3310	3RD & MAIN	DENVER CITY	YOAKUM	TX	79323						 TX	13	0	0	8	23	0	0	0	0	0	44	290	133	0	224	1245	0	0	0	0	0	1892	0	17	2	2	0	0	21	0	0	0	0	0	0	0	0	0	0	0	0	0	0	0	0	0	0	0	0	0	0	0	0	0	0	0	0	0	16	5	2	0	0	23	0	0	0	0	0	0	0	0	0	0	0	0	0	0	0	0	0	0	0	0	0	0	33	7	4	0	0	44	8	0	620	27	0	0	0	647	0	0	0	0	0	0	0	0	0	0	0	0	0	0	0	0	0	0	0	0	0	0	0	0	0	0	0	0	0	1221	24	0	0	0	1245	0	0	0	0	0	0	0	0	0	0	0	0	0	0	0	0	0	0	0	0	0	0	1841	51	0	0	0	1892	0	5	0	0	0	0	0	0	0	0	0	0	2	0	1.38		PERRY HAM	8065925426	2/26/2004	3/4/2004		
2003	20030369	RIO GRANDE NATURAL GAS ASSOCIATION	17430	680 N. MOTEL BOULEVARD	LAS CRUCES	DONA ANA	NM	88007						 NM	0	0	0	107	398	0	0	0	0	0	505	0	0	0	138	12360	0	0	0	0	0	12498	0	13	75	19	0	0	107	0	0	0	0	0	0	0	0	0	0	0	0	0	0	0	0	0	0	0	0	0	0	4	0	0	0	0	4	0	307	47	0	0	0	354	0	40	0	0	0	0	40	0	0	0	0	0	0	0	0	0	0	0	0	0	0	0	364	122	19	0	0	505	65	0	133	5	0	0	0	138	0	0	0	0	0	0	0	0	0	0	0	0	0	0	0	0	0	0	0	0	0	0	0	0	0	0	0	0	0	12311	49	0	0	0	12360	0	0	0	0	0	0	0	0	0	0	0	0	0	0	0	0	0	0	0	0	0	0	12444	54	0	0	0	12498	1	0	0	0	36	71	6	5	0	0	24	128	34	0	0.58		VINCENT SANCHEZ	5055283505	2/26/2004	3/4/2004		
2003	20030370	"BP PIPELINES (ALASKA), INC"	1541	PO BOX 199612 900 BENSON 	ANCHORAGE		AK							 AK	0	1	0	30	0	0	0	0	0	0	31	0	0	0	0	0	0	0	0	0	0	0	0	0	0	31	0	0	31	0	0	0	0	0	0	0	0	0	0	0	0	0	0	0	0	0	0	0	0	0	0	0	0	0	0	0	0	0	0	0	0	0	0	0	0	0	0	0	0	0	0	0	0	0	0	0	0	0	0	0	0	0	0	0	0	0	0	0	31	0	0	31	0	0	0	0	0	0	0	0	0	0	0	0	0	0	0	0	0	0	0	0	0	0	0	0	0	0	0	0	0	0	0	0	0	0	0	0	0	0	0	0	0	0	0	0	0	0	0	0	0	0	0	0	0	0	0	0	0	0	0	0	0	0	0	0	0	0	0	0	0	0	0	0	0	0	0	0	0	0	0	0	0	0	0	0	0	0	THE BADAMI UTILITY PIPELINE WAS TAKEN OUT OF SERVICE IN NOVEMBER 1999 AND HAS NOT OPERATED SINCE THAT TIME.	PAMELA A. ARMBRUST	9076596524	2/25/2004	3/4/2004		
2003	20030371	EAST KENTUCKY UTILITIES INC	14140	PO BOX 408	PRESTONSBURGH	FLOYD	KY	41653						 KY	0	0	0	0	34	0	0	0	0	0	34	0	0	0	0	1237	0	0	0	0	0	1237	0	0	0	0	0	0	0	0	0	0	0	0	0	0	0	0	0	0	0	0	0	0	0	0	0	0	0	0	0	0	0	0	0	0	0	0	24	10	0	0	0	34	0	0	0	0	0	0	0	0	0	0	0	0	0	0	0	0	0	0	0	0	0	0	24	10	0	0	0	34	20	0	0	0	0	0	0	0	0	0	0	0	0	0	0	0	0	0	0	0	0	0	0	0	0	0	0	0	0	0	0	0	0	0	0	0	0	1223	14	0	0	0	1237	0	0	0	0	0	0	0	0	0	0	0	0	0	0	0	0	0	0	0	0	0	0	1223	14	0	0	0	1237	0	0	2	5	3	6	0	0	0	0	0	0	0	0	3		"JOHN ALLEN, JR./PRESIDENT"	6068862431	3/1/2004	3/4/2004		
2003	20030372	RAYTHEON AIRCRAFT COMPANY	31317	9709 E. CENTRAL PO BOX 85	WICHITA	SEDGWICK	KS	67201	870 WINTER STREET	WALTHAM		MA	2451	 KS	0	0	0	7	0	0	0	0	0	0	7	0	0	0	2	0	0	0	0	0	0	2	0	0	7	0	0	0	7	0	0	0	0	0	0	0	0	0	0	0	0	0	0	0	0	0	0	0	0	0	0	0	0	0	0	0	0	0	0	0	0	0	0	0	0	0	0	0	0	0	0	0	0	0	0	0	0	0	0	0	0	0	0	0	0	0	0	7	0	0	0	7	250	0	0	0	2	0	0	2	0	0	0	0	0	0	0	0	0	0	0	0	0	0	0	0	0	0	0	0	0	0	0	0	0	0	0	0	0	0	0	0	0	0	0	0	0	0	0	0	0	0	0	0	0	0	0	0	0	0	0	0	0	0	0	0	0	0	0	2	0	0	2	1	0	0	0	0	0	0	0	0	0	0	0	0	0	1	"DEVELOPED A WEEP LEAK IN THE WEST 4"" MAIN. ATTEMPTS TO REPAIR THIS LINE ECONOMICALLY WERE UNSUCCESSFUL AND THE DETERMINATION WAS MADE TO REMOVE THIS LINE FROM ACTIVE SERVICE."	"LARRY MEIER, FACILITIES ENGINEER II"	3166766867	3/2/2004	3/4/2004		
2003	20030373	ARGYLE MUNICIPAL GAS SYSTEM	585	P.O. BOX 288	ARGYLE	MARSHALL	MN	56713						 MN	0	0	0	7	1	0	0	0	0	0	8	0	0	0	207	47	0	0	0	0	0	254	0	6	1	0	0	0	7	0	0	0	0	0	0	0	0	0	0	0	0	0	0	0	0	0	0	0	0	0	0	0	0	0	0	0	0	0	1	0	0	0	0	1	0	0	0	0	0	0	0	0	0	0	0	0	0	0	0	0	0	0	0	0	0	0	7	1	0	0	0	8	75	0	207	0	0	0	0	207	0	0	0	0	0	0	0	0	0	0	0	0	0	0	0	0	0	0	0	0	0	0	0	0	0	0	0	0	0	47	0	0	0	0	47	0	0	0	0	0	0	0	0	0	0	0	0	0	0	0	0	0	0	0	0	0	0	254	0	0	0	0	254	0	0	0	0	0	0	1	0	0	0	0	0	0	0	0	"LEAK ON GAS MAIN WAS REPAIRED ON AUGUST 6, 2003 BY CITY OF ARGYLE GAS DEPARTMENT"	TIMOTHY URBANISH	2184376621	3/2/2004	3/4/2004		
2003	20030374	MIDWEST NATURAL GAS INC	12492	18484 BLAIR STREET	WHITE HALL	TREMPEALEAU	WI	54773						 WI	0	0	0	117	423	0	0	0	0	0	540	0	0	0	1426	11681	0	0	0	0	0	13107	0	44	48	25	0	0	117	0	0	0	0	0	0	0	0	0	0	0	0	0	0	0	0	0	0	0	0	0	0	0	0	0	0	0	0	0	313	102	8	0	0	423	0	0	0	0	0	0	0	0	0	0	0	0	0	0	0	0	0	0	0	0	0	0	357	150	33	0	0	540	0	0	1400	22	4	0	0	1426	0	0	0	0	0	0	0	0	0	0	0	0	0	0	0	0	0	0	0	0	0	0	0	0	0	0	0	0	0	11496	172	13	0	0	11681	0	0	0	0	0	0	0	0	0	0	0	0	0	0	0	0	0	0	0	0	0	0	12896	194	17	0	0	13107	0	0	1	3	7	42	0	0	0	0	2	0	0	0	0	UNACCOUNTED FOR GAS 1.21%	ELIOT SOLSRUD	7155984377	3/2/2004	3/4/2004		
2003	20030375	"SPEARVILLE GAS SYSTEM, CITY OF"	18572	PO BOX 441 103 W AVE A	SPEARVILLE	FORD	KS	67876						 KS	0	0	0	13	0	0	0	0	0	0	13	0	0	0	312	26	0	0	0	0	0	338	0	6	7	0	0	0	13	0	0	0	0	0	0	0	0	0	0	0	0	0	0	0	0	0	0	0	0	0	0	0	0	0	0	0	0	0	0	0	0	0	0	0	0	0	0	0	0	0	0	0	0	0	0	0	0	0	0	0	0	0	0	0	0	0	6	7	0	0	0	13	80	0	0	312	0	0	0	312	0	0	0	0	0	0	0	0	0	0	0	0	0	0	0	0	0	0	0	0	0	0	0	0	0	0	0	0	0	0	26	0	0	0	26	0	0	0	0	0	0	0	0	0	0	0	0	0	0	0	0	0	0	0	0	0	0	0	338	0	0	0	338	0	2	0	0	0	3	0	0	0	3	0	1	0	0	6	THERE WAS A SUBSTANTIAL UNDERGROUND LEAK NOTICED IN THE ALLEY BETWEEN STAFFORD AND PINE STREET. REPAIRS WERE MADE TO THE SYSTEM.	TAMMY KONRADE	6203852512	3/2/2004	3/4/2004		
2003	20030376	DEMING GAS SYSTEM	3280	309 S. GOLD AVENUE	DEMING 	LUNA	NM	88030						 NM	0	41	0	11	95	0	0	0	0	0	147	0	1070	0	30	4290	0	0	0	0	0	5390	0	37	15	0	0	0	52	0	0	0	0	0	0	0	0	0	0	0	0	0	0	0	0	0	0	0	0	0	0	0	0	0	0	0	0	0	68	27	0	0	0	95	0	0	0	0	0	0	0	0	0	0	0	0	0	0	0	0	0	0	0	0	0	0	105	42	0	0	0	147	20	0	0	1070	30	0	0	1100	0	0	0	0	0	0	0	0	0	0	0	0	0	0	0	0	0	0	0	0	0	0	0	0	0	0	0	0	0	0	4240	50	0	0	4290	0	0	0	0	0	0	0	0	0	0	0	0	0	0	0	0	0	0	0	0	0	0	0	5310	80	0	0	5390	15	10	0	0	0	0	0	0	0	0	0	0	0	0	1	WE ARE IN THE ENGINEERING STAGES OF A MAJOR STEEL LINE REPLACEMENT PROJECT. OUR ANNUAL LEAK SURVEY IS NOW UNDERWAY.	MIKE RUDLOFF	5055468848	3/2/2004	3/4/2004		
2003	20030377	NORTH ALABAMA GAS DISTRICT	13535	602 DEARBORN AVENUE	MUSCLE SHOALS	COLBERT	AL	35661					35661	 AL	0	0	0	88	412	0	0	0	0	0	500	0	0	0	1222	12176	0	0	0	0	0	13398	0	49	20	19	0	0	88	0	0	0	0	0	0	0	0	0	0	0	0	0	0	0	0	0	0	0	0	0	0	0	0	0	0	0	0	0	263	119	30	0	0	412	0	0	0	0	0	0	0	0	0	0	0	0	0	0	0	0	0	0	0	0	0	0	312	139	49	0	0	500	95	0	1166	55	1	0	0	1222	0	0	0	0	0	0	0	0	0	0	0	0	0	0	0	0	0	0	0	0	0	0	0	0	0	0	0	0	0	11906	268	2	0	0	12176	0	0	0	0	0	0	0	0	0	0	0	0	0	0	0	0	0	0	0	0	0	0	13072	323	3	0	0	13398	2	0	1	1	19	19	0	1	13	1	0	0	0	0	0.16		LARRY MCCRELESS	2563833306	3/2/2004	3/4/2004		
2003	20030378	ATCHISON CASTING CORPORATION	30062	P.O. BOX 2395	MIDLAND	MIDLAND	TX	79702	P.O. BOX 188	ATCHISON		KS	66002	 KS	0	0	0	0	2	0	0	0	0	0	2	0	0	0	0	1	0	0	0	0	0	1	0	0	0	0	0	0	0	0	0	0	0	0	0	0	0	0	0	0	0	0	0	0	0	0	0	0	0	0	0	0	0	0	0	0	0	0	0	0	0	0	0	0	0	0	0	2	0	0	2	0	0	0	0	0	0	0	0	0	0	0	0	0	0	0	0	0	2	0	0	2	10879	0	0	0	0	0	0	0	0	0	0	0	0	0	0	0	0	0	0	0	0	0	0	0	0	0	0	0	0	0	0	0	0	0	0	0	0	0	0	0	1	0	1	0	0	0	0	0	0	0	0	0	0	0	0	0	0	0	0	0	0	0	0	0	0	0	0	0	1	0	1	0	0	0	0	0	0	0	0	0	0	0	0	0	0	0	THIS A PRIVATE USE LINE SERVING ONLY ATCHISON CASTING CORP.	CHARLES JOHNSON	4326828546	3/2/2004	3/4/2004		
2003	20030379	"AMITE FOUNDRY AND MACHINE, INC"	31221	P.O. BOX 2395	MIDLAND	MIDLAND	TX	79702	13040 FOULKS LANE	AMITE		LA	70422	 LA	0	0	0	0	0	0	0	0	0	0	0	0	0	0	0	1	0	0	0	0	0	1	0	0	0	0	0	0	0	0	0	0	0	0	0	0	0	0	0	0	0	0	0	0	0	0	0	0	0	0	0	0	0	0	0	0	0	0	0	0	0	0	0	0	0	0	0	0	0	0	0	0	0	0	0	0	0	0	0	0	0	0	0	0	0	0	0	0	0	0	0	0	0	0	0	0	0	0	0	0	0	0	0	0	0	0	0	0	0	0	0	0	0	0	0	0	0	0	0	0	0	0	0	0	0	0	0	0	0	0	0	1	0	0	1	0	0	0	0	0	0	0	0	0	0	0	0	0	0	0	0	0	0	0	0	0	0	0	0	1	0	0	1	0	0	0	0	0	0	0	0	0	0	0	0	0	0	0		CHARLES JOHNSON	4326828546	3/2/2004	3/4/2004		
2003	20030380	"KECHI, CITY OF"	10123	200 W. KECHI RD.	KECHI	SEDGWICK	KS	67067						 KS	0	0	0	4	10	0	0	0	0	0	14	0	0	0	370	88	0	0	0	0	0	458	0	3	1	0	0	0	4	0	0	0	0	0	0	0	0	0	0	0	0	0	0	0	0	0	0	0	0	0	0	0	0	0	0	0	0	0	5	4	1	0	0	10	0	0	0	0	0	0	0	0	0	0	0	0	0	0	0	0	0	0	0	0	0	0	8	5	1	0	0	14	0	0	0	88	0	0	0	88	0	0	0	0	0	0	0	0	0	0	0	0	0	0	0	0	0	0	0	0	0	0	0	0	0	0	0	0	0	370	0	0	0	0	370	0	0	0	0	0	0	0	0	0	0	0	0	0	0	0	0	0	0	0	0	0	0	370	88	0	0	0	458	0	0	0	0	0	1	0	0	1	0	0	1	0	0	0	UNACCOUNTED FOR GAS -1%	LAURA HILL	3167449287	3/2/2004	3/4/2004		
2003	20030381	"BIG LAKE GAS DEPT, CITY OF"	1408	203 PLAZA	BIG LAKE	REAGAN	TX	76932	P.O. BOX 310	BIG LAKE	REAGAN	TX	76932	 TX	0	0	0	0	18	0	0	0	0	0	18	0	0	0	0	619	600	0	0	0	0	1219	0	0	0	0	0	0	0	0	0	0	0	0	0	0	0	0	0	0	0	0	0	0	0	0	0	0	0	0	0	8	3	0	0	0	11	0	4	3	0	0	0	7	0	0	0	0	0	0	0	0	0	0	0	0	0	0	0	0	0	0	0	0	0	0	12	6	0	0	0	18	12	0	609	0	0	0	0	609	0	0	0	0	0	0	0	0	0	0	0	0	0	0	0	0	0	0	0	0	0	0	0	0	0	0	0	0	0	600	10	0	0	0	610	0	0	0	0	0	0	0	0	0	0	0	0	0	0	0	0	0	0	0	0	0	0	1209	10	0	0	0	1219	0	0	0	0	0	7	1	0	0	0	0	0	0	0	1.4		JUAN GUERRERO	3258842511	3/2/2004	3/4/2004		
2003	20030382	SABULA MUNICIPAL GAS	18016	411 BROAD ST.	SABULA 	JACKSON	IA	52070						 IA	0	0	0	4	0	0	0	0	0	0	4	0	0	0	321	18	0	0	0	0	0	339	0	3	1	0	0	0	4	0	0	0	0	0	0	0	0	0	0	0	0	0	0	0	0	0	0	0	0	0	0	0	0	0	0	0	0	0	0	0	0	0	0	0	0	0	0	0	0	0	0	0	0	0	0	0	0	0	0	0	0	0	0	0	0	0	3	1	0	0	0	4	60	0	315	6	0	0	0	321	0	0	0	0	0	0	0	0	0	0	0	0	0	0	0	0	0	0	0	0	0	0	0	0	0	0	0	0	0	18	0	0	0	0	18	0	0	0	0	0	0	0	0	0	0	0	0	0	0	0	0	0	0	0	0	0	0	333	6	0	0	0	339	0	0	0	0	0	0	0	0	0	0	0	0	0	0	0.88	"COMPLETED 5 YEAR LEAK SURVEY IN 2002 WITH ""0"" LEAKS DETECTED.    HAVE FOUND NO ABOVE OR BELOW GROUND LEAKS IN 2003."	MARIAN ALIMI	5636872420	3/2/2004	3/4/2004		
2003	20030383	ELIZABETH NATURAL GAS INC	4343	1008 E. 4TH ST.	DEQUINCY 	CALA	LA	70633						 LA	0	0	0	39	43	0	0	0	0	0	82	0	0	0	119	307	0	0	0	0	0	426	0	11	1	28	0	0	40	0	0	0	0	0	0	0	0	0	0	0	0	0	0	0	0	0	0	0	0	0	0	16	0	0	0	0	16	0	17	9	0	0	0	26	0	0	0	0	0	0	0	0	0	0	0	0	0	0	0	0	0	0	0	0	0	0	44	10	28	0	0	82	15	0	118	1	0	0	0	119	0	0	0	0	0	0	0	0	0	0	0	0	0	0	0	0	0	0	0	0	0	0	72	0	0	0	0	72	0	220	14	1	0	0	235	0	0	0	0	0	0	0	0	0	0	0	0	0	0	0	0	0	0	0	0	0	0	410	15	1	0	0	426	0	0	0	4	1	0	2	0	0	0	0	0	0	0	1.5		GREGG PELOGUIN	3377866251	3/2/2004	3/4/2004		
2003	20030384	PRYOR MUNICIPAL UTILITY BOARD	15910	7 W GRAHAM PO BOX 249	PRAYOR	MAYES	OK	74362	6 NO. ADAIR ST. PO BOX 	PRYOR	MAYES	OK	74362	 OK	0	0	0	21	63	0	0	0	0	0	84	0	0	0	443	3613	0	0	0	0	0	4056	0	4	10	7	0	0	21	0	0	0	0	0	0	0	0	0	0	0	0	0	0	0	0	0	0	0	0	0	0	0	0	0	0	0	0	0	42	14	7	0	0	63	0	0	0	0	0	0	0	0	0	0	0	0	0	0	0	0	0	0	0	0	0	0	46	24	14	0	0	84	200	0	208	235	0	0	0	443	0	0	0	0	0	0	0	0	0	0	0	0	0	0	0	0	0	0	0	0	0	0	0	0	0	0	0	0	0	3574	39	0	0	0	3613	0	0	0	0	0	0	0	0	0	0	0	0	0	0	0	0	0	0	0	0	0	0	3782	274	0	0	0	4056	0	0	2	0	0	3	1	0	0	0	0	0	0	0	4		"SCOTT RICE, GAS DEPT. SUPT."	9188251445	3/2/2004	3/4/2004		
2003	20030385	NAPOLEON MUNICIPAL GAS UTILITY	13020	P.O. BOX 47	NAPOLEON	RIPLEY	IN	47034						 IN	0	0	0	2	0	0	0	0	0	0	2	0	0	0	118	0	0	0	0	0	0	118	0	2	0	0	0	0	2	0	0	0	0	0	0	0	0	0	0	0	0	0	0	0	0	0	0	0	0	0	0	0	0	0	0	0	0	0	0	0	0	0	0	0	0	0	0	0	0	0	0	0	0	0	0	0	0	0	0	0	0	0	0	0	0	0	2	0	0	0	0	2	100	0	118	0	0	0	0	118	0	0	0	0	0	0	0	0	0	0	0	0	0	0	0	0	0	0	0	0	0	0	0	0	0	0	0	0	0	0	0	0	0	0	0	0	0	0	0	0	0	0	0	0	0	0	0	0	0	0	0	0	0	0	0	0	0	118	0	0	0	0	118	0	0	0	0	0	0	0	0	0	0	0	0	0	0	0		KAREN ROHLFING	8128524081	3/2/2004	3/4/2004		
2003	20030386	"FLORALA UTILITY BOARD, CITY OF"	5290	PO BOX 351 22664 WALL AVE	FLORALA	COVINGTON	AL	36442						 AL FL	0	0	0	46	1	0	0	0	0	0	47	0	0	0	0	240	0	0	0	0	742	982	0	15	16	15	0	0	46	0	0	0	0	0	0	0	0	0	0	0	0	0	0	0	0	0	0	0	0	0	0	0	0	0	0	0	0	0	1	0	0	0	0	1	0	0	0	0	0	0	0	0	0	0	0	0	0	0	0	0	0	0	0	0	0	0	16	16	15	0	0	47	150	0	0	0	0	0	0	0	0	0	0	0	0	0	0	0	0	0	0	0	0	0	0	0	0	0	0	0	0	0	0	0	0	0	0	0	0	237	3	0	0	0	240	0	0	0	0	0	0	0	0	742	0	0	0	0	742	0	0	0	0	0	0	0	0	979	3	0	0	0	982	0	0	0	10	0	0	0	0	0	0	0	0	0	0	3		LYNN HUGHS	3348583612	3/2/2004	3/4/2004		
2003	20030387	"HEMPSTEAD, CITY OF"	7210	1125 AUSTIN STREET	HEMPSTEAD	WALLER	TX	77445						 TX	4	0	0	0	38	0	0	0	0	0	42	31	0	0	0	1659	0	0	0	0	0	1690	0	4	0	0	0	0	4	0	0	0	0	0	0	0	0	0	0	0	0	0	0	0	0	0	0	0	0	0	0	0	0	0	0	0	0	0	30	6	2	0	0	38	0	0	0	0	0	0	0	0	0	0	0	0	0	0	0	0	0	0	0	0	0	0	34	6	2	0	0	42	65	0	31	0	0	0	0	31	0	0	0	0	0	0	0	0	0	0	0	0	0	0	0	0	0	0	0	0	0	0	0	0	0	0	0	0	0	1554	0	104	1	0	1659	0	0	0	0	0	0	0	0	0	0	0	0	0	0	0	0	0	0	0	0	0	0	1585	0	104	1	0	1690	11	2	0	0	0	0	0	2	0	1	0	0	5	0	5		ANTHONY STANLEY	9798262486	3/2/2004	3/4/2004		
2003	20030388	"BLOUNTSTOWN, CITY OF"	1544	20591 CENTRAL AVE WEST	BLOUNTATOWN	CALHOUN	FL	32424						 FL	0	0	0	38	3	0	0	0	0	0	41	0	0	0	822	240	0	0	0	0	0	1062	0	28	7	3	0	0	38	0	0	0	0	0	0	0	0	0	0	0	0	0	0	0	0	0	0	0	0	0	0	0	0	0	0	0	0	0	3	0	0	0	0	3	0	0	0	0	0	0	0	0	0	0	0	0	0	0	0	0	0	0	0	0	0	0	31	7	3	0	0	41	0	0	822	1	1	0	0	824	0	0	0	0	0	0	0	0	0	0	0	0	0	0	0	0	0	0	0	0	0	0	0	0	0	0	0	0	0	232	6	0	0	0	238	0	0	0	0	0	0	0	0	0	0	0	0	0	0	0	0	0	0	0	0	0	0	1054	7	1	0	0	1062	0	6	0	0	0	0	0	0	0	4	0	1	0	0	0		CONNIE DANIELS	8506745488	3/2/2004	3/4/2004		
2003	20030389	"WILSON GAS DEPT, CITY OF"	22679	1800 HERRING AVENUE	WILSON	WILSON	NC	27893						 NC	0	0	0	119	203	0	0	0	0	0	322	0	0	0	4608	10168	0	0	0	0	0	14776	0	81	21	17	0	0	119	0	0	0	0	0	0	0	0	0	0	0	0	0	0	0	0	0	0	0	0	0	0	0	0	0	0	0	0	0	158	28	17	0	0	203	0	0	0	0	0	0	0	0	0	0	0	0	0	0	0	0	0	0	0	0	0	0	239	49	34	0	0	322	79	0	4557	44	7	0	0	4608	0	0	0	0	0	0	0	0	0	0	0	0	0	0	0	0	0	0	0	0	0	0	0	0	0	0	0	0	0	10047	118	3	0	0	10168	0	0	0	0	0	0	0	0	0	0	0	0	0	0	0	0	0	0	0	0	0	0	14604	162	10	0	0	14776	0	2	0	2	7	27	0	2	0	5	17	478	25	0	2.28		"THERESA P. BATCHELOR, GIS TECHNICIAN"	2523992189	3/2/2004	3/4/2004		
2003	20030390	BLACKSVILLE OIL & GAS CO	1512	ONE ENERGY LN. PO BOX 369	LUMBERPORT	HARRISON	WV	26386						 WV	1	0	0	0	24	0	0	0	0	0	25	86	0	0	0	232	0	0	0	0	0	318	0	1	0	0	0	0	1	0	0	0	0	0	0	0	0	0	0	0	0	0	0	0	0	0	0	0	0	0	0	0	0	0	0	0	0	0	16	8	0	0	0	24	0	0	0	0	0	0	0	0	0	0	0	0	0	0	0	0	0	0	0	0	0	0	17	8	0	0	0	25	32	0	85	1	0	0	0	86	0	0	0	0	0	0	0	0	0	0	0	0	0	0	0	0	0	0	0	0	0	0	0	0	0	0	0	0	0	221	11	0	0	0	232	0	0	0	0	0	0	0	0	0	0	0	0	0	0	0	0	0	0	0	0	0	0	306	12	0	0	0	318	0	0	0	0	0	0	0	0	0	0	0	1	0	0	0.6		DONALD D. HURST	3045844545	3/2/2004	3/4/2004		
2003	20030391	LAKE PARK PUBLIC UTILITIES	11128	PO BOX 239 2032 2ND ST	LAKE PARK	BECKER	MN	56554						 MN	0	0	0	4	2	0	0	0	0	0	6	0	0	0	144	165	0	0	0	0	0	309	0	3	1	0	0	0	4	0	0	0	0	0	0	0	0	0	0	0	0	0	0	0	0	0	0	0	0	0	0	0	0	0	0	0	0	0	2	0	0	0	0	2	0	0	0	0	0	0	0	0	0	0	0	0	0	0	0	0	0	0	0	0	0	0	5	1	0	0	0	6	60	0	142	2	0	0	0	144	0	0	0	0	0	0	0	0	0	0	0	0	0	0	0	0	0	0	0	0	0	0	0	0	0	0	0	0	0	164	1	0	0	0	165	0	0	0	0	0	0	0	0	0	0	0	0	0	0	0	0	0	0	0	0	0	0	306	3	0	0	0	309	0	0	0	0	0	0	0	0	0	0	0	0	0	0	0		DON QUALLEY	2182385337	3/2/2004	3/4/2004		
2003	20030392	"TIPTON COUNTY, FIRST UTIL DIST OF"	19471	3706 HWY. 59 W	COVINGTON	TIPTON	TN	38019						 TN	0	0	0	56	127	0	0	0	0	0	183	0	0	0	676	2020	0	0	0	0	0	2696	0	33	19	4	0	0	56	0	0	0	0	0	0	0	0	0	0	0	0	0	0	0	0	0	0	0	0	0	0	0	0	0	0	0	0	0	116	11	0	0	0	127	0	0	0	0	0	0	0	0	0	0	0	0	0	0	0	0	0	0	0	0	0	0	149	30	4	0	0	183	0	0	675	1	0	0	0	676	0	0	0	0	0	0	0	0	0	0	0	0	0	0	0	0	0	0	0	0	0	0	0	0	0	0	0	0	0	2019	1	0	0	0	2020	0	0	0	0	0	0	0	0	0	0	0	0	0	0	0	0	0	0	0	0	0	0	2694	2	0	0	0	2696	0	0	0	0	0	0	0	0	0	0	0	0	0	0	1.5		ELTON H. CLARK	9014769525	3/2/2004	3/4/2004		
2003	20030393	"ROZEL MUNICIPAL GAS SYSTEM, CITY OF"	17730	PO BOX 67 110 MAIN ST	ROZEL	PAWNEE	KS	67574						 KS	0	0	0	15	1	0	0	0	0	0	16	0	0	0	124	0	0	0	0	0	0	124	0	0	15	0	0	0	15	0	0	0	0	0	0	0	0	0	0	0	0	0	0	0	0	0	0	0	0	0	0	1	0	0	0	0	1	0	0	0	0	0	0	0	0	0	0	0	0	0	0	0	0	0	0	0	0	0	0	0	0	0	0	0	0	0	1	15	0	0	0	16	12	0	106	18	0	0	0	124	0	0	0	0	0	0	0	0	0	0	0	0	0	0	0	0	0	0	0	0	0	0	0	0	0	0	0	0	0	0	0	0	0	0	0	0	0	0	0	0	0	0	0	0	0	0	0	0	0	0	0	0	0	0	0	0	0	106	18	0	0	0	124	0	0	0	0	0	0	0	0	0	0	0	0	0	0	0		DAVID K. PATTERSON	6205274399	3/2/2004	3/4/2004		
2003	20030394	WAKITA UTILITIES AUTH	22042	PO BOX 53	WAKITA	GRANT	OK	73771						 OK	0	0	0	0	7	0	0	0	0	0	7	0	0	0	0	198	0	0	0	0	0	198	0	0	0	0	0	0	0	0	0	0	0	0	0	0	0	0	0	0	0	0	0	0	0	0	0	0	0	0	0	0	0	0	0	0	0	0	5	2	0	0	0	7	0	0	0	0	0	0	0	0	0	0	0	0	0	0	0	0	0	0	0	0	0	0	5	2	0	0	0	7	25	0	0	0	0	0	0	0	0	0	0	0	0	0	0	0	0	0	0	0	0	0	0	0	0	0	0	0	0	0	0	0	0	0	0	0	0	190	8	0	0	0	198	0	0	0	0	0	0	0	0	0	0	0	0	0	0	0	0	0	0	0	0	0	0	190	8	0	0	0	198	0	1	0	0	0	0	0	0	0	0	0	0	0	0	8		"KATHY MORRISON,CITY CLERK"	5805942200	3/2/2004	3/4/2004		
2003	20030395	MCFARLAND MUNICIPAL SYSTEMS INC	12276	518 ROCKSAND	MCFARLAND	WABAUNSEE	KS	66501					66501	 KS	0	0	0	6	2	0	0	0	0	0	8	0	0	0	86	51	0	0	0	0	0	137	0	5	1	0	0	0	6	0	0	0	0	0	0	0	0	0	0	0	0	0	0	0	0	0	0	0	0	0	0	0	0	0	0	0	0	0	1	1	0	0	0	2	0	0	0	0	0	0	0	0	0	0	0	0	0	0	0	0	0	0	0	0	0	0	6	2	0	0	0	8	0	0	0	86	0	0	0	86	0	0	0	0	0	0	0	0	0	0	0	0	0	0	0	0	0	0	0	0	0	0	0	0	0	0	0	0	0	46	5	0	0	0	51	0	0	0	0	0	0	0	0	0	0	0	0	0	0	0	0	0	0	0	0	0	0	46	91	0	0	0	137	0	0	0	0	0	0	0	0	0	0	0	0	0	0	10		TERRY MCDANIEL	7854564056	3/2/2004	3/4/2004		
2003	20030396	SEILING PUBLIC WORKS AUTH	18172	P.O. BOX 1043 315 N. MAIN	SEILING 	DEWEY	OK	73663						 OK	0	0	0	21	0	0	0	0	0	0	21	0	0	0	571	10	0	0	0	0	0	581	0	17	4	0	0	0	21	0	0	0	0	0	0	0	0	0	0	0	0	0	0	0	0	0	0	0	0	0	0	0	0	0	0	0	0	0	0	0	0	0	0	0	0	0	0	0	0	0	0	0	0	0	0	0	0	0	0	0	0	0	0	0	0	0	17	4	0	0	0	21	25	0	564	7	0	0	0	571	0	0	0	0	0	0	0	0	0	0	0	0	0	0	0	0	0	0	0	0	0	0	0	0	0	0	0	0	0	10	0	0	0	0	10	0	0	0	0	0	0	0	0	0	0	0	0	0	0	0	0	0	0	0	0	0	0	574	7	0	0	0	581	0	0	0	0	0	0	0	0	2	6	0	0	3	0	0		TROY DAVIDSON	5809224460	3/2/2004	3/4/2004		
2003	20030397	"CHARLOTTESVILLE, CITY OF"	2268	305 4TH STREET NW	CHARLOTTESVILLE		VA	22903						 VA	0	0	0	66	221	1	0	0	0	0	288	0	0	0	187	15956	0	1	0	0	0	16144	0	0	0	66	0	0	66	0	0	0	0	0	0	0	0	0	0	0	0	0	0	0	0	0	0	1	0	1	0	0	0	0	0	0	0	0	165	55	1	0	0	221	0	0	0	0	0	0	0	0	0	0	0	0	0	0	0	0	0	0	0	0	0	0	165	55	67	1	0	288	65	0	0	184	3	0	0	187	0	0	0	0	1	0	1	0	0	0	0	0	0	0	0	0	0	0	0	0	0	0	0	0	0	0	0	0	0	14358	1507	91	0	0	15956	0	0	0	0	0	0	0	0	0	0	0	0	0	0	0	0	0	0	0	0	0	0	14358	1691	94	1	0	16144	0	0	2	0	8	37	0	0	0	14	5	2	0	0	2		"DJ MANAFI, REGULATORY COMPLIANCE SUPERVISOR"	4349703800	3/2/2004	3/4/2004		
2003	20030398	DYERSBURG MUNICIPAL GAS DEPARTMENT	3660	435HWY 51 BYP S.	DYERSBURG	DYER	TN	38024						 TN	0	0	0	172	72	0	0	0	0	0	244	0	0	0	7760	1687	0	0	0	0	0	9447	0	104	41	27	0	0	172	0	0	0	0	0	0	0	0	0	0	0	0	0	0	0	0	0	0	0	0	0	0	0	0	0	0	0	0	0	54	18	0	0	0	72	0	0	0	0	0	0	0	0	0	0	0	0	0	0	0	0	0	0	0	0	0	0	158	59	27	0	0	244	93	0	7676	78	6	0	0	7760	0	0	0	0	0	0	0	0	0	0	0	0	0	0	0	0	0	0	0	0	0	0	0	0	0	0	0	0	0	1679	8	0	0	0	1687	0	0	0	0	0	0	0	0	0	0	0	0	0	0	0	0	0	0	0	0	0	0	9355	86	6	0	0	9447	1	0	1	0	3	2	0	0	0	0	0	0	0	0	1.35		JOEY CLUTTS	7312882592	3/2/2004	3/4/2004		
2003	20030399	SENATOBIA MUNICIPAL GAS SYSTEM	18178	405 STRAYHORN ST	SENATOBIA	TATE	MS	38668	PO BOX 1020 133 N. FRONT 	SENATOBIA	TATE	MS	38668	 MS	0	0	0	38	19	0	0	0	0	0	57	0	0	0	1034	615	0	0	0	0	0	1649	0	20	17	1	0	0	38	0	0	0	0	0	0	0	0	0	0	0	0	0	0	0	0	0	0	0	0	0	0	0	0	0	0	0	0	0	17	1	1	0	0	19	0	0	0	0	0	0	0	0	0	0	0	0	0	0	0	0	0	0	0	0	0	0	37	18	2	0	0	57	50	0	1020	12	2	0	0	1034	0	0	0	0	0	0	0	0	0	0	0	0	0	0	0	0	0	0	0	0	0	0	0	0	0	0	0	0	0	601	12	2	0	0	615	0	0	0	0	0	0	0	0	0	0	0	0	0	0	0	0	0	0	0	0	0	0	1621	24	4	0	0	1649	0	0	0	0	0	0	0	47	0	7	0	0	7	0	0	54 CLASS 3 LEAK'S	DAVID PATRICK	6625628288	3/2/2004	3/4/2004		
2003	20030400	"ALEDO GAS DEPT, CITY OF"	252	120 N. COLLEGE AVENUE	ALEDO	MERCER	IL	61231						 IL	0	0	0	30	1	0	0	0	0	0	31	0	0	0	1537	127	0	0	0	0	0	1664	0	20	10	0	0	0	30	0	0	0	0	0	0	0	0	0	0	0	0	0	0	0	0	0	0	0	0	0	0	0	0	0	0	0	0	0	0	1	0	0	0	1	0	0	0	0	0	0	0	0	0	0	0	0	0	0	0	0	0	0	0	0	0	0	20	11	0	0	0	31	75	0	1487	50	0	0	0	1537	0	0	0	0	0	0	0	0	0	0	0	0	0	0	0	0	0	0	0	0	0	0	0	0	0	0	0	0	0	123	4	0	0	0	127	0	0	0	0	0	0	0	0	0	0	0	0	0	0	0	0	0	0	0	0	0	0	1610	54	0	0	0	1664	0	0	0	0	0	0	0	0	0	0	0	0	0	0	3	"1997-INSTALLED 330'OF 2"" PE MAIN  1998-INSTALLED 1,688 OF 2"" PE MAIN  1999-INSTALLED 400' OF 2"" PE MAIN  1999-ABANDONED 200' OF EXISITING 3"" STELL MAIN  2001- INSTALLED 731' OF 2"" PE MAIN.  2003-INSTALLED 125' OF 2"" PE MAIN.  2003-ABANDONED 125' 2"" STEEL MAIN."	"UTILITY SAFETY & DESIGN, INC."	6186561235	3/2/2004	3/4/2004		
2003	20030401	ANNA MUNICIPAL GAS CO	522	123 W. DAVIS STREET	ANNA	UNION	IL	62906						 IL	0	0	0	14	23	0	0	0	0	0	37	0	0	0	949	1089	0	0	0	0	0	2038	0	5	4	5	0	0	14	0	0	0	0	0	0	0	0	0	0	0	0	0	0	0	0	0	0	0	0	0	0	0	0	0	0	0	0	0	19	3	1	0	0	23	0	0	0	0	0	0	0	0	0	0	0	0	0	0	0	0	0	0	0	0	0	0	24	7	6	0	0	37	70	0	638	311	0	0	0	949	0	0	0	0	0	0	0	0	0	0	0	0	0	0	0	0	0	0	0	0	0	0	0	0	0	0	0	0	0	1078	11	0	0	0	1089	0	0	0	0	0	0	0	0	0	0	0	0	0	0	0	0	0	0	0	0	0	0	1716	322	0	0	0	2038	0	1	0	0	0	0	0	0	0	0	0	27	0	0	4	"1999-REPLACED 215' OF 2"" PE MAIN.  1999-REPLACED 158' OF 1/4"" STEEL MAIN WITH PE MAIN."	"UTILITY SAFETY & DESIGN, INC."	6186561235	3/2/2004	3/4/2004		
2003	20030402	"AUBURN GAS DEPT, CITY OF"	855	324 W. JEFFERSON	AUBURN	SANGAMON	IL	62615						 IL	0	0	0	8	23	0	0	0	0	0	31	0	0	0	5	427	0	0	1210	0	0	1642	0	3	5	0	0	0	8	0	0	0	0	0	0	0	0	0	0	0	0	0	0	0	0	0	0	0	0	0	0	0	0	0	0	0	0	0	17	4	2	0	0	23	0	0	0	0	0	0	0	0	0	0	0	0	0	0	0	0	0	0	0	0	0	0	20	9	2	0	0	31	70	0	4	1	0	0	0	5	0	0	0	0	0	0	0	0	1209	1	0	0	0	1210	0	0	0	0	0	0	0	0	0	0	0	0	0	0	0	422	5	0	0	0	427	0	0	0	0	0	0	0	0	0	0	0	0	0	0	0	0	0	0	0	0	0	0	1635	7	0	0	0	1642	0	0	0	0	0	0	0	0	0	0	0	7	1	0	3	"1999-INSTALLED 2400' OF 2"" PE MAIN.  2000-INSTALLED 800' OF 2"" PE MAIN.  2001-INSTALLED 500' OF 2""PE MAIN."	"UTILITY SAFETY & DESIGH, INC."	6186561235	3/2/2004	3/4/2004		
2003	20030403	"BISMARCK GAS SYSTEM, CITY OF"	1456	924 CENTER STREET BOX 27	BISMARCK	ST FRANCIS	MI	63624						 MO	0	0	0	19	0	0	0	0	0	0	19	0	0	0	758	25	0	0	0	0	0	783	0	9	10	0	0	0	19	0	0	0	0	0	0	0	0	0	0	0	0	0	0	0	0	0	0	0	0	0	0	0	0	0	0	0	0	0	0	0	0	0	0	0	0	0	0	0	0	0	0	0	0	0	0	0	0	0	0	0	0	0	0	0	0	0	9	10	0	0	0	19	85	0	753	5	0	0	0	758	0	0	0	0	0	0	0	0	0	0	0	0	0	0	0	0	0	0	0	0	0	0	0	0	0	0	0	0	0	25	0	0	0	0	25	0	0	0	0	0	0	0	0	0	0	0	0	0	0	0	0	0	0	0	0	0	0	778	5	0	0	0	783	0	0	0	0	0	1	0	0	0	0	0	17	0	0	0		"UTILITY SAFETY & DESIGN, INC."	6186561235	3/2/2004	3/4/2004		
2003	20030404	"CHESTER GAS DEPT, CITY OF"	2316	1330 SWANWICK STREET	CHESTER	RANDOLPH	IL	62233						 IL	0	0	0	59	6	0	0	0	0	0	65	0	0	0	1586	386	0	0	0	0	0	1972	0	14	25	20	0	0	59	0	0	0	0	0	0	0	0	0	0	0	0	0	0	0	0	0	0	0	0	0	0	0	0	0	0	0	0	0	4	2	0	0	0	6	0	0	0	0	0	0	0	0	0	0	0	0	0	0	0	0	0	0	0	0	0	0	18	27	20	0	0	65	75	0	1569	15	2	0	0	1586	0	0	0	0	0	0	0	0	0	0	0	0	0	0	0	0	0	0	0	0	0	0	0	0	0	0	0	0	0	385	1	0	0	0	386	0	0	0	0	0	0	0	0	0	0	0	0	0	0	0	0	0	0	0	0	0	0	1954	16	2	0	0	1972	0	0	0	0	0	2	0	0	0	0	0	26	0	0	4	"2000-RETIRED 800' OF 1/4"" STEEL  2002-RETIRED 450' OF 4"" STEEL  2002-RETIRED 450' OF 2"" STEEL  2002-INSTALLED, 450' OF 4"" PE"	"UTILITY SAFETY & DESIGN, INC."	6186561235	3/2/2004	3/4/2004		
2003	20030405	"CISNE GAS DEPT, VILLAGE OF"	2372	PARK STREET BOX 190	CISNE	WAYNE	IL	62823						 IL	0	0	0	11	0	0	0	0	0	0	11	0	0	0	436	32	0	0	0	0	0	468	0	9	2	0	0	0	11	0	0	0	0	0	0	0	0	0	0	0	0	0	0	0	0	0	0	0	0	0	0	0	0	0	0	0	0	0	0	0	0	0	0	0	0	0	0	0	0	0	0	0	0	0	0	0	0	0	0	0	0	0	0	0	0	0	9	2	0	0	0	11	65	0	426	10	0	0	0	436	0	0	0	0	0	0	0	0	0	0	0	0	0	0	0	0	0	0	0	0	0	0	0	0	0	0	0	0	0	32	0	0	0	0	32	0	0	0	0	0	0	0	0	0	0	0	0	0	0	0	0	0	0	0	0	0	0	458	10	0	0	0	468	0	0	0	0	0	0	0	0	0	0	0	15	0	0	2	"1996-INSTTALLED 1584' OF 2"" PE MAIN.  1997-INSTALLED 600' OF 2"" PE MAIN."	"UTILITY SAFETY & DESIGN, INC."	6186561235	3/2/2004	3/4/2004		
2003	20030406	"CLAY CITY GAS DEPT, CITY OF"	2468	140 S. MAIN ST BOX 522	CLAY CITY	CLAY	IL	62824						 IL	0	0	0	20	1	0	0	0	0	0	21	0	0	0	536	42	0	0	0	0	0	578	0	8	11	1	0	0	20	0	0	0	0	0	0	0	0	0	0	0	0	0	0	0	0	0	0	0	0	0	0	0	0	0	0	0	0	0	1	0	0	0	0	1	0	0	0	0	0	0	0	0	0	0	0	0	0	0	0	0	0	0	0	0	0	0	9	11	1	0	0	21	65	0	526	10	0	0	0	536	0	0	0	0	0	0	0	0	0	0	0	0	0	0	0	0	0	0	0	0	0	0	0	0	0	0	0	0	0	41	1	0	0	0	42	0	0	0	0	0	0	0	0	0	0	0	0	0	0	0	0	0	0	0	0	0	0	567	11	0	0	0	578	0	1	0	0	0	0	0	0	0	0	0	0	6	0	4	"2000-INSTALLED 675' OF 2"" PE MAIN  2002-INSTALLED 140' OF 2"" STEEL MAIN  2002-REMOVED 100' OF STEEL MAIN"	"UTILITY SAFETY & DESIGN, INC."	6186561235	3/2/2004	3/5/2004		
2003	20030407	"DIVERNON GAS DEPT, VILLAGE OF"	3420	50 EAST BROWN STREET	DIVERNON	SANGAMON	IL	62530						 IL	0	0	0	12	12	0	0	0	0	0	24	0	0	0	487	315	0	0	0	0	0	802	0	3	8	1	0	0	12	0	0	0	0	0	0	0	0	0	0	0	0	0	0	0	0	0	0	0	0	0	0	0	0	0	0	0	0	0	10	2	0	0	0	12	0	0	0	0	0	0	0	0	0	0	0	0	0	0	0	0	0	0	0	0	0	0	13	10	1	0	0	24	75	0	477	10	0	0	0	487	0	0	0	0	0	0	0	0	0	0	0	0	0	0	0	0	0	0	0	0	0	0	0	0	0	0	0	0	0	315	0	0	0	0	315	0	0	0	0	0	0	0	0	0	0	0	0	0	0	0	0	0	0	0	0	0	0	792	10	0	0	0	802	0	0	0	0	0	0	0	0	0	0	0	6	0	0	0		"UTILITY SAFETY & DESIGN, INC."	6186561235	3/2/2004	3/5/2004		
2003	20030408	"FINDLAY GAS UTILITIES, VILLAGE OF"	5170	101 E S SECOND ST BOX 199	FINDLAY	SHELBY	IL	62534						 IL	0	0	0	11	13	0	0	0	0	0	24	0	0	0	411	147	0	0	0	0	0	558	0	6	5	0	0	0	11	0	0	0	0	0	0	0	0	0	0	0	0	0	0	0	0	0	0	0	0	0	0	0	0	0	0	0	0	0	6	7	0	0	0	13	0	0	0	0	0	0	0	0	0	0	0	0	0	0	0	0	0	0	0	0	0	0	12	12	0	0	0	24	100	0	406	5	0	0	0	411	0	0	0	0	0	0	0	0	0	0	0	0	0	0	0	0	0	0	0	0	0	0	0	0	0	0	0	0	0	144	2	1	0	0	147	0	0	0	0	0	0	0	0	0	0	0	0	0	0	0	0	0	0	0	0	0	0	550	7	1	0	0	558	0	0	0	0	0	1	0	0	0	0	0	5	0	0	4		"UTILITY SAFETY & DESIGN, INC."	6186561235	3/2/2004	3/5/2004		
2003	20030409	"ENFIELD GAS DEPT, VILLAGE OF"	4470	200 E MAIN STREET  BOX 99	ENFIELD	WHITE	IL	62835						 IL	0	0	0	15	0	0	0	0	0	0	15	0	0	0	346	60	0	0	0	0	0	406	0	6	9	0	0	0	15	0	0	0	0	0	0	0	0	0	0	0	0	0	0	0	0	0	0	0	0	0	0	0	0	0	0	0	0	0	0	0	0	0	0	0	0	0	0	0	0	0	0	0	0	0	0	0	0	0	0	0	0	0	0	0	0	0	6	9	0	0	0	15	70	0	336	10	0	0	0	346	0	0	0	0	0	0	0	0	0	0	0	0	0	0	0	0	0	0	0	0	0	0	0	0	0	0	0	0	0	59	0	1	0	0	60	0	0	0	0	0	0	0	0	0	0	0	0	0	0	0	0	0	0	0	0	0	0	395	10	1	0	0	406	0	1	0	0	0	0	0	0	0	0	0	1	0	0	0		"UTILITY SAFETY & DESIGN, INC."	6186561235	3/2/2004	3/5/2004		
2003	20030410	"FLORA MUNICIPAL GAS UTILITY, CITY OF"	5280	200 FAIRVIEW PO BOX 249	FLORA 	CLAY	IL	62839						 IL	0	0	0	12	35	0	0	0	0	0	47	0	0	0	611	2109	0	0	0	0	0	2720	0	5	3	4	0	0	12	0	0	0	0	0	0	0	0	0	0	0	0	0	0	0	0	0	0	0	0	0	0	0	0	0	0	0	0	0	25	7	3	0	0	35	0	0	0	0	0	0	0	0	0	0	0	0	0	0	0	0	0	0	0	0	0	0	30	10	7	0	0	47	65	0	599	9	3	0	0	611	0	0	0	0	0	0	0	0	0	0	0	0	0	0	0	0	0	0	0	0	0	0	0	0	0	0	0	0	0	2100	9	0	0	0	2109	0	0	0	0	0	0	0	0	0	0	0	0	0	0	0	0	0	0	0	0	0	0	2699	18	3	0	0	2720	0	3	0	1	0	0	0	0	0	0	0	3	1	0	3	"1998-INSTALLED 110' OF 1"" IPS PE MAIN.  2000-INSTALLED 1200' OF 2"" MAIN.  2001-INSTALLED 1750' OF 4"" PE MAIN.  2001-RETIRED 1750' 2"" STEEL.  2002-INSTALLED 1807' OF 2"" PE MAIN.  2002-INSTALLED 500' OF 1"" PE MAIN.  2003-INSTALLED 565' 1 1/4"" PE MAIN.  2003-INSTALLED 450' OF 2"" PE MAIN.  2003-INSTALLED 3000' OF 4"" PE MAIN.  "	"UTILITY SAFETY & DESIGN, INC."	6186561235	3/2/2004	3/5/2004		
2003	20030411	"GEFF MUNICIPAL GAS UTILITY, VILLAGE OF"	6280	BOX 67	GEFF 	WAYNE	IL	62842						 IL	0	0	0	11	0	0	0	0	0	0	11	0	0	0	241	8	0	0	0	0	0	249	0	11	0	0	0	0	11	0	0	0	0	0	0	0	0	0	0	0	0	0	0	0	0	0	0	0	0	0	0	0	0	0	0	0	0	0	0	0	0	0	0	0	0	0	0	0	0	0	0	0	0	0	0	0	0	0	0	0	0	0	0	0	0	0	11	0	0	0	0	11	60	0	241	0	0	0	0	241	0	0	0	0	0	0	0	0	0	0	0	0	0	0	0	0	0	0	0	0	0	0	0	0	0	0	0	0	0	7	1	0	0	0	8	0	0	0	0	0	0	0	0	0	0	0	0	0	0	0	0	0	0	0	0	0	0	248	1	0	0	0	249	0	2	0	0	0	0	0	0	0	0	0	0	0	0	0		"UTILITY SAFETY & DESIGN, INC."	6186561235	3/2/2004	3/5/2004		
2003	20030412	"GRAND TOWER MUNICIPAL GAS SYSTEM, VILLAGE OF"	6550	BOX 273	GRAND TOWER	JACKSON	IL	62942						 IL	0	0	0	5	0	0	0	0	0	0	5	0	0	0	345	0	0	0	0	0	0	345	0	3	2	0	0	0	5	0	0	0	0	0	0	0	0	0	0	0	0	0	0	0	0	0	0	0	0	0	0	0	0	0	0	0	0	0	0	0	0	0	0	0	0	0	0	0	0	0	0	0	0	0	0	0	0	0	0	0	0	0	0	0	0	0	3	2	0	0	0	5	65	0	343	2	0	0	0	345	0	0	0	0	0	0	0	0	0	0	0	0	0	0	0	0	0	0	0	0	0	0	0	0	0	0	0	0	0	0	0	0	0	0	0	0	0	0	0	0	0	0	0	0	0	0	0	0	0	0	0	0	0	0	0	0	0	343	2	0	0	0	345	1	0	0	0	0	0	0	0	0	0	0	4	0	0	4	"2001-INSTALLED 6' OF 2"" MAIN"	"UTILITY SAFETY & DESIGN, INC"	6186561235	3/2/2004	3/5/2004		
2003	20030413	JASONVILLE GAS UTILITY	9120	304 W. MAIN STREET	JASONVILLE	GREEN	IN	47438						 IN	0	0	0	1	20	0	0	0	0	0	21	0	374	0	313	536	0	0	0	0	0	1223	0	1	0	0	0	0	1	0	0	0	0	0	0	0	0	0	0	0	0	0	0	0	0	0	0	0	0	0	0	0	0	0	0	0	0	0	12	6	2	0	0	20	0	0	0	0	0	0	0	0	0	0	0	0	0	0	0	0	0	0	0	0	0	0	13	6	2	0	0	21	60	0	677	7	3	0	0	687	0	0	0	0	0	0	0	0	0	0	0	0	0	0	0	0	0	0	0	0	0	0	0	0	0	0	0	0	0	534	2	0	0	0	536	0	0	0	0	0	0	0	0	0	0	0	0	0	0	0	0	0	0	0	0	0	0	1211	9	3	0	0	1223	0	0	0	0	0	0	0	0	0	0	0	10	1	0	2	"1998-INSTALLED 2,020 OF 4"" PE MAIN.  1998-INSTALLED 1,179 OF 1 1/4"" PE MAIN.  2002-INSTALLED 110' OF 2"" PE MAIN.  2002-REMOVED 200' OF 2"" STEEL MAIN."	"UTILITY SAFETY & DESIGN, INC."	6186561235	3/2/2004	3/5/2004		
2003	20030414	JOINT UTILIITIES BOARD - ALTENBURG & FROHNA	9280	7463 MAIN ST BOX 75 	ALTENBURG & FROHNA	PERRY	MO	63748						 MO	0	0	0	9	3	0	0	0	0	0	12	0	0	0	261	44	0	0	0	0	0	305	0	9	0	0	0	0	9	0	0	0	0	0	0	0	0	0	0	0	0	0	0	0	0	0	0	0	0	0	0	0	0	0	0	0	0	0	3	0	0	0	0	3	0	0	0	0	0	0	0	0	0	0	0	0	0	0	0	0	0	0	0	0	0	0	12	0	0	0	0	12	70	0	256	5	0	0	0	261	0	0	0	0	0	0	0	0	0	0	0	0	0	0	0	0	0	0	0	0	0	0	0	0	0	0	0	0	0	40	4	0	0	0	44	0	0	0	0	0	0	0	0	0	0	0	0	0	0	0	0	0	0	0	0	0	0	296	9	0	0	0	305	0	0	0	0	0	1	0	0	0	0	1	0	0	0	3	"240'-2"" PE  2003-ADDED 574' OF 2"" PE MAIN"	"UTILITY SAFETY & DESIGN, INC."	6186561235	3/2/2004	3/5/2004		
2003	20030415	"LOUISVILLE GAS SYSTEM, VILLAGE OF"	11840	101 S. MAIN ST PO BOX 306	LOUISVILLE	CLAY	IL	62858						 IL	0	0	0	10	1	0	0	0	0	0	11	0	0	0	540	71	0	0	0	0	0	611	0	5	4	1	0	0	10	0	0	0	0	0	0	0	0	0	0	0	0	0	0	0	0	0	0	0	0	0	0	0	0	0	0	0	0	0	1	0	0	0	0	1	0	0	0	0	0	0	0	0	0	0	0	0	0	0	0	0	0	0	0	0	0	0	6	4	1	0	0	11	70	0	527	13	0	0	0	540	0	0	0	0	0	0	0	0	0	0	0	0	0	0	0	0	0	0	0	0	0	0	0	0	0	0	0	0	0	71	0	0	0	0	71	0	0	0	0	0	0	0	0	0	0	0	0	0	0	0	0	0	0	0	0	0	0	598	13	0	0	0	611	2	0	0	0	0	0	0	0	0	0	0	1	0	0	5		"UTILITY SAFETY & DESIGN, INC."	6186561235	3/2/2004	3/5/2004		
2003	20030416	"MARTINSVILLE GAS DEPT, CITY OF"	12216	19 W. CUMBERLAND BOX 340	MARTINSVILLE	CLARK	IL	62242						 IL	0	0	0	14	0	0	0	0	0	0	14	0	0	0	656	0	0	0	0	0	0	656	0	11	3	0	0	0	14	0	0	0	0	0	0	0	0	0	0	0	0	0	0	0	0	0	0	0	0	0	0	0	0	0	0	0	0	0	0	0	0	0	0	0	0	0	0	0	0	0	0	0	0	0	0	0	0	0	0	0	0	0	0	0	0	0	11	3	0	0	0	14	75	0	617	37	2	0	0	656	0	0	0	0	0	0	0	0	0	0	0	0	0	0	0	0	0	0	0	0	0	0	0	0	0	0	0	0	0	0	0	0	0	0	0	0	0	0	0	0	0	0	0	0	0	0	0	0	0	0	0	0	0	0	0	0	0	617	37	2	0	0	656	0	0	0	0	0	0	0	0	0	0	0	11	0	0	3	"1999-INSTALLED 400' OF 3"" STEEL MAIN.  2000-INSTALLED 756' OF 1/14"" STEEL MAIN.  2001-INSTALLED NO MAIN."	"UTILITY SAFETY & DESIGN, INC."	6186561235	3/2/2004	3/5/2004		
2003	20030417	"MCLEANSBORO GAS SYSTEM, CITY OF"	12294	102 W. MAIN ST	MCLEANSBORO	HAMILTON	IL	62859						 IL	0	0	0	30	0	0	0	0	0	0	30	0	0	0	1923	0	0	0	0	0	0	1923	0	17	13	0	0	0	30	0	0	0	0	0	0	0	0	0	0	0	0	0	0	0	0	0	0	0	0	0	0	0	0	0	0	0	0	0	0	0	0	0	0	0	0	0	0	0	0	0	0	0	0	0	0	0	0	0	0	0	0	0	0	0	0	0	17	13	0	0	0	30	70	0	1915	7	1	0	0	1923	0	0	0	0	0	0	0	0	0	0	0	0	0	0	0	0	0	0	0	0	0	0	0	0	0	0	0	0	0	0	0	0	0	0	0	0	0	0	0	0	0	0	0	0	0	0	0	0	0	0	0	0	0	0	0	0	0	1915	7	1	0	0	1923	1	0	0	0	1	0	0	0	0	0	0	3	4	0	0	"1998-INSTALLED 640' OF 2"" STEEL MAIN.  2000-INSTALLED 2380' OF 2"" STEEL MAIN.  2001-INSTALLED 250' OF 2"" STEEL MAIN.  2002-INSTALLED 1775' OF 2"" STEEL MAIN.  2002-INSTALLED 1055' OF 1"" STEEL MAIN.  2002-REMOVED 2337' OF 2"" STEEL MAIN."	"UTILITY SAFETY & DESIGN, INC."	6186561235	3/2/2004	3/5/2004		
2003	20030418	"MONTGOMERY, CITY OF"	12744	732 N. STURGEON	MONTGOMERY 	MONTGOMERY	MO	63361						 MO	0	0	0	32	0	0	0	0	0	0	32	0	0	0	1030	0	0	0	0	0	0	1030	0	17	15	0	0	0	32	0	0	0	0	0	0	0	0	0	0	0	0	0	0	0	0	0	0	0	0	0	0	0	0	0	0	0	0	0	0	0	0	0	0	0	0	0	0	0	0	0	0	0	0	0	0	0	0	0	0	0	0	0	0	0	0	0	17	15	0	0	0	32	80	0	1020	10	0	0	0	1030	0	0	0	0	0	0	0	0	0	0	0	0	0	0	0	0	0	0	0	0	0	0	0	0	0	0	0	0	0	0	0	0	0	0	0	0	0	0	0	0	0	0	0	0	0	0	0	0	0	0	0	0	0	0	0	0	0	1020	10	0	0	0	1030	0	0	0	0	0	0	0	0	0	0	0	0	2	0	0	"1998-INSTALLED 1,150 OF 4"" STEEL MAIN.  1999-INSTALLED 500' OF 2"" STEEL MAIN.  2002-INSTALLED 1617' OF 2"" STEEL MAIN."	"UTILITY SAFETY & DESIGN, INC."	6186561235	3/2/2004	3/5/2004		
2003	20030419	"NEW BOSTON GAS DEPT, CITY OF"	13250	BOX 266	NEW BOSTON	MERCER	IL	61272						 IL	0	0	0	6	1	0	0	0	0	0	7	0	0	0	318	106	0	0	0	0	0	424	0	4	2	0	0	0	6	0	0	0	0	0	0	0	0	0	0	0	0	0	0	0	0	0	0	0	0	0	0	0	0	0	0	0	0	0	0	1	0	0	0	1	0	0	0	0	0	0	0	0	0	0	0	0	0	0	0	0	0	0	0	0	0	0	4	3	0	0	0	7	75	0	313	5	0	0	0	318	0	0	0	0	0	0	0	0	0	0	0	0	0	0	0	0	0	0	0	0	0	0	0	0	0	0	0	0	0	105	0	1	0	0	106	0	0	0	0	0	0	0	0	0	0	0	0	0	0	0	0	0	0	0	0	0	0	418	5	1	0	0	424	0	0	0	0	0	0	0	0	0	0	1	3	0	0	2	"1998-INSTALLED 2,640' OF 4"" PE MAIN.  2002-INSTALLED 150' OF 1 1/4"" PE MAIN.  2002-REMOVED 150' OF 1 1/4""STEEL MAIN."	"UTILITY SAFETY & DESIGN, INC."	6186561235	3/2/2004	3/5/2004		
2003	20030420	"PAWNEE GAS SYSTEM, VILLAGE OF"	15168	617 7TH ST BOX 560	PAWNEE	SANGAMON	IL	62558						 IL	0	0	0	12	9	0	0	0	0	0	21	0	0	0	763	252	0	0	0	0	0	1015	0	6	6	0	0	0	12	0	0	0	0	0	0	0	0	0	0	0	0	0	0	0	0	0	0	0	0	0	0	0	0	0	0	0	0	0	8	1	0	0	0	9	0	0	0	0	0	0	0	0	0	0	0	0	0	0	0	0	0	0	0	0	0	0	14	7	0	0	0	21	75	0	758	5	0	0	0	763	0	0	0	0	0	0	0	0	0	0	0	0	0	0	0	0	0	0	0	0	0	0	0	0	0	0	0	0	0	252	0	0	0	0	252	0	0	0	0	0	0	0	0	0	0	0	0	0	0	0	0	0	0	0	0	0	0	1010	5	0	0	0	1015	2	0	0	0	0	0	0	0	0	0	0	35	3	0	0	"1998-REPLACED 200' OF 2"" STEEL MAIN WITH 2"" PE MAIN.  1999-INSTALLED 100' OF 2"" PE MAIN."	"UTILITY SAFETY & DESIGN, INC."	6186561235	3/2/2004	3/5/2004		
2003	20030421	"PITTSBURG GAS SYSTEM, VILLAGE OF"	15623	BOX 9	PITTSBUG	WILLIAMSON	IL	62974						 IL	0	0	0	0	8	0	0	0	0	0	8	0	0	0	0	239	0	0	0	0	0	239	0	0	0	0	0	0	0	0	0	0	0	0	0	0	0	0	0	0	0	0	0	0	0	0	0	0	0	0	0	0	0	0	0	0	0	0	7	1	0	0	0	8	0	0	0	0	0	0	0	0	0	0	0	0	0	0	0	0	0	0	0	0	0	0	7	1	0	0	0	8	70	0	0	0	0	0	0	0	0	0	0	0	0	0	0	0	0	0	0	0	0	0	0	0	0	0	0	0	0	0	0	0	0	0	0	0	0	238	0	0	0	0	238	0	1	0	0	0	0	1	0	0	0	0	0	0	0	0	0	0	0	0	0	0	0	239	0	0	0	0	239	0	0	0	0	0	0	0	0	0	0	0	0	0	0	5		"UTILITY SAFETY & DESIGN, INC."	6186561235	3/2/2004	3/5/2004		
2003	20030422	PITTSFIELD MUNICIPAL GAS UTILITY	15630	215 NORTH MONROE	PITTSFIELD	PIKE	IL	62363						 IL	0	0	0	43	10	0	0	0	0	0	53	0	0	0	1128	1082	0	0	0	0	0	2210	0	11	22	10	0	0	43	0	0	0	0	0	0	0	0	0	0	0	0	0	0	0	0	0	0	0	0	0	0	5	5	0	0	0	10	0	0	0	0	0	0	0	0	0	0	0	0	0	0	0	0	0	0	0	0	0	0	0	0	0	0	0	0	0	16	27	10	0	0	53	75	0	1112	13	2	1	0	1128	0	0	0	0	0	0	0	0	0	0	0	0	0	0	0	0	0	0	0	0	0	0	0	0	0	0	0	0	0	1071	8	3	0	0	1082	0	0	0	0	0	0	0	0	0	0	0	0	0	0	0	0	0	0	0	0	0	0	2183	21	5	1	0	2210	0	0	0	0	0	0	0	0	0	0	0	7	0	0	5		"UTILITY SAFETY & DESIGN, INC."	6183925502	3/2/2004	3/5/2004		
2003	20030423	POSEYVILLE MUNICIPLE GAS CO	15798	20 SOUTH CALE	POSEYVILLE	POSEY	IN	47633						 IN	0	0	0	10	0	0	0	0	0	0	10	0	0	0	462	0	0	0	0	0	0	462	0	5	5	0	0	0	10	0	0	0	0	0	0	0	0	0	0	0	0	0	0	0	0	0	0	0	0	0	0	0	0	0	0	0	0	0	0	0	0	0	0	0	0	0	0	0	0	0	0	0	0	0	0	0	0	0	0	0	0	0	0	0	0	0	5	5	0	0	0	10	75	0	453	9	0	0	0	462	0	0	0	0	0	0	0	0	0	0	0	0	0	0	0	0	0	0	0	0	0	0	0	0	0	0	0	0	0	0	0	0	0	0	0	0	0	0	0	0	0	0	0	0	0	0	0	0	0	0	0	0	0	0	0	0	0	453	9	0	0	0	462	0	0	0	0	0	0	0	0	0	0	0	2	0	0	0		"UTILITY SAFETY &DESIGN, INC."	6183925502	3/2/2004	3/5/2004		
2003	20030424	"POTOSI, CITY OF"	15812	121 E. HIGH STREET	POTOSI	WASHINGTON	MO	63664						 MO	0	0	0	42	0	0	0	0	0	0	42	0	0	0	1147	0	0	0	0	0	0	1147	0	16	25	1	0	0	42	0	0	0	0	0	0	0	0	0	0	0	0	0	0	0	0	0	0	0	0	0	0	0	0	0	0	0	0	0	0	0	0	0	0	0	0	0	0	0	0	0	0	0	0	0	0	0	0	0	0	0	0	0	0	0	0	0	16	25	1	0	0	42	65	0	1139	6	2	0	0	1147	0	0	0	0	0	0	0	0	0	0	0	0	0	0	0	0	0	0	0	0	0	0	0	0	0	0	0	0	0	0	0	0	0	0	0	0	0	0	0	0	0	0	0	0	0	0	0	0	0	0	0	0	0	0	0	0	0	1139	6	2	0	0	1147	0	1	0	0	0	0	0	0	0	0	3	11	0	0	1	"1998-INSTALLED 800' OF 2"" STEEL MAIN.  2000-INSTALLED 1000' OF 2"" STEEL MAIN.  2000--INSTALLED 2000' OF 3"" STEEL MAIN.  2001-INSTALLED 400' OF 4"" STEEL MAIN.  2002-INSTALLED 2155' OF 4"" STEEL MAIN.  2002-INSTALLED 670' OF 2"" STEEL MAIN."	"UTILITY SAFETY & DESIGN, INC."	6186561235	3/2/2004	3/5/2004		
2003	20030425	"RIVERTON GAS SYSTEM, VILLAGE"	17510	BOX 620 313 E JEFFERSON 	RIVERTON	SANGAMON	IL	62561						 IL	0	0	0	14	11	0	0	0	0	0	25	0	0	0	843	578	0	0	0	0	0	1421	0	10	4	0	0	0	14	0	0	0	0	0	0	0	0	0	0	0	0	0	0	0	0	0	0	0	0	0	0	0	0	0	0	0	0	0	11	0	0	0	0	11	0	0	0	0	0	0	0	0	0	0	0	0	0	0	0	0	0	0	0	0	0	0	21	4	0	0	0	25	800	0	827	16	0	0	0	843	0	0	0	0	0	0	0	0	0	0	0	0	0	0	0	0	0	0	0	0	0	0	0	0	0	0	0	0	0	578	0	0	0	0	578	0	0	0	0	0	0	0	0	0	0	0	0	0	0	0	0	0	0	0	0	0	0	1405	16	0	0	0	1421	0	0	0	0	0	0	1	0	0	0	3	24	0	0	1	"2003-INSTALLED 1675' OF 2"" PE MAIN."	"UTILITY SAFETY & DESIGN, INC."	6186561235	3/2/2004	3/5/2004		
2003	20030426	"ROODHOUSE ILLINOIS, CITY OF"	17670	119 WEST PALM STREET	ROODHOUSE	GREENE	IL	62082						 IL	0	0	0	15	7	0	0	0	0	0	22	0	0	0	159	756	0	0	0	0	0	915	0	4	11	0	0	0	15	0	0	0	0	0	0	0	0	0	0	0	0	0	0	0	0	0	0	0	0	0	0	0	0	0	0	0	0	0	4	3	0	0	0	7	0	0	0	0	0	0	0	0	0	0	0	0	0	0	0	0	0	0	0	0	0	0	8	14	0	0	0	22	70	0	152	7	0	0	0	159	0	0	0	0	0	0	0	0	0	0	0	0	0	0	0	0	0	0	0	0	0	0	0	0	0	0	0	0	0	0	0	0	0	0	0	0	754	1	1	0	0	756	0	0	0	0	0	0	0	0	0	0	0	0	0	0	0	906	8	1	0	0	915	1	2	0	0	0	0	0	0	0	1	0	2	0	0	2	"1998-REPLACED 1,000 OF 2"" STEEL WITH 2"" PE.  1999-REPLACED 1,200 OF 2"" STEEL WITH 2"" PE.  1999-REPALCED 150' OF  4"" STEEL WITH 3"" PE.  2000-REPLACE 1500' OF 1 1/4"" STEEL WITH 2"" PE.  2002-REPLACED 140' OF 2"" STEEL WITH 2"" PE."	"UTILITY SAFETY & DESIGN, INC."	6186561235	3/2/2004	3/5/2004		
2003	20030427	"SIMS MUNICIPAL GAS SYSTEM, VILLAGE OF"	18332	VILLIAGE HALL BOX 9	SIMS	WAYNE	IL	62886						 IL	0	0	0	8	1	0	0	0	0	0	9	0	0	0	175	13	0	0	0	0	0	188	0	8	0	0	0	0	8	0	0	0	0	0	0	0	0	0	0	0	0	0	0	0	0	0	0	0	0	0	0	0	0	0	0	0	0	0	1	0	0	0	0	1	0	0	0	0	0	0	0	0	0	0	0	0	0	0	0	0	0	0	0	0	0	0	9	0	0	0	0	9	65	0	174	1	0	0	0	175	0	0	0	0	0	0	0	0	0	0	0	0	0	0	0	0	0	0	0	0	0	0	0	0	0	0	0	0	0	13	0	0	0	0	13	0	0	0	0	0	0	0	0	0	0	0	0	0	0	0	0	0	0	0	0	0	0	187	1	0	0	0	188	0	1	0	0	0	0	0	0	0	0	0	0	0	0	5		"UTILITY SAFETY & DESIGN, INC."	6186561235	3/2/2004	3/5/2004		
2003	20030428	WATERLOO MUNICIPAL GAS SYSTEM	22217	100 4TH STREET	WATERLOO	MONROE	IL	62298						 IL	0	0	0	14	46	0	0	0	0	0	60	0	0	0	534	2117	0	0	429	0	0	3080	0	5	8	1	0	0	14	0	0	0	0	0	0	0	0	0	0	0	0	0	0	0	0	0	0	0	0	0	0	0	0	0	0	0	0	0	27	18	1	0	0	46	0	0	0	0	0	0	0	0	0	0	0	0	0	0	0	0	0	0	0	0	0	0	32	26	2	0	0	60	75	0	526	8	0	0	0	534	0	0	0	0	0	0	0	0	421	8	0	0	0	429	0	0	0	0	0	0	0	0	0	0	0	0	0	0	0	2114	3	0	0	0	2117	0	0	0	0	0	0	0	0	0	0	0	0	0	0	0	0	0	0	0	0	0	0	3061	19	0	0	0	3080	0	1	0	0	0	4	0	0	0	0	0	50	0	0	3		"UTILITY SAFETY DESIGN, INC."	6186561235	3/2/2004	3/5/2004		
2003	20030429	"WAYNE CITY GAS UTILITY, VILLAGE OF"	22287	103 MILL ST BOX 176	WAYNE 	WAYNE	IL	62895						 IL	0	0	0	11	0	0	0	0	0	0	11	0	0	0	587	0	0	0	0	0	0	587	0	7	4	0	0	0	11	0	0	0	0	0	0	0	0	0	0	0	0	0	0	0	0	0	0	0	0	0	0	0	0	0	0	0	0	0	0	0	0	0	0	0	0	0	0	0	0	0	0	0	0	0	0	0	0	0	0	0	0	0	0	0	0	0	7	4	0	0	0	11	65	0	581	6	0	0	0	587	0	0	0	0	0	0	0	0	0	0	0	0	0	0	0	0	0	0	0	0	0	0	0	0	0	0	0	0	0	0	0	0	0	0	0	0	0	0	0	0	0	0	0	0	0	0	0	0	0	0	0	0	0	0	0	0	0	581	6	0	0	0	587	0	0	0	0	0	0	1	0	0	0	0	1	2	0	0		"UTILITY SAFETY & DESIGN, INC."	6186561235	3/2/2004	3/5/2004		
2003	20030430	"WHITE HALL GAS DEPT, CITY OF"	22567	116 E. SHERMAN STREET	WHITE HALL	GREENE	IL	62092						 IL	0	0	0	22	12	0	0	0	0	0	34	0	0	0	328	813	0	0	0	0	0	1141	0	5	13	4	0	0	22	0	0	0	0	0	0	0	0	0	0	0	0	0	0	0	0	0	0	0	0	0	0	0	0	0	0	0	0	0	12	0	0	0	0	12	0	0	0	0	0	0	0	0	0	0	0	0	0	0	0	0	0	0	0	0	0	0	17	13	4	0	0	34	75	0	322	6	0	0	0	328	0	0	0	0	0	0	0	0	0	0	0	0	0	0	0	0	0	0	0	0	0	0	0	0	0	0	0	0	0	808	5	0	0	0	813	0	0	0	0	0	0	0	0	0	0	0	0	0	0	0	0	0	0	0	0	0	0	1130	11	0	0	0	1141	6	12	0	0	0	0	0	0	0	0	0	25	3	0	2	"INSTALLED-100' OF 2"" PE MAIN.  INSTALLED -2300' OF 2"" PE MAIN  RETIRED-300' OF 3"" STEEL MAIN  RETIRED-1405' OF 2"" STEEL MAIN"	"UTILITY SAFETY & DESIGN, INC."	6186561235	3/2/2004	3/5/2004		
2003	20030431	"WINCHESTER, CITY OF"	22700	121 S. HILL STREET	WINCHESTER	SCOTT	IL	62694						 IL	0	0	0	15	2	0	0	0	0	0	17	0	0	0	615	205	0	0	0	0	0	820	0	4	5	6	0	0	15	0	0	0	0	0	0	0	0	0	0	0	0	0	0	0	0	0	0	0	0	0	0	0	0	0	0	0	0	0	0	2	0	0	0	2	0	0	0	0	0	0	0	0	0	0	0	0	0	0	0	0	0	0	0	0	0	0	4	7	6	0	0	17	70	0	613	2	0	0	0	615	0	0	0	0	0	0	0	0	0	0	0	0	0	0	0	0	0	0	0	0	0	0	203	2	0	0	0	205	0	0	0	0	0	0	0	0	0	0	0	0	0	0	0	0	0	0	0	0	0	0	0	0	0	0	0	0	0	816	4	0	0	0	820	2	0	0	0	0	0	0	5	0	0	0	0	1	0	2	"2000-INSTALLED 770' OF 3"" PE MAIN.  2000-INSTALLED 237'  OF 4"" STEEL MAIN.  2001-INSTALLED 431' OF 2"" PE MAIN.  2002-INSTALLED 2780' OF 2"" PE MAIN."	"UTILITY SAFETY & DESIGN, INC."	6186561235	3/2/2004	3/5/2004		
2003	20030432	"FOSTON MUNICIPAL GAS, CITY OF"	31093	220 EAST FIRST STREET	FOSSTON	POLK	MN	56542						 MN	0	0	0	14	13	0	0	0	0	0	27	0	0	0	0	390	0	0	0	0	0	390	0	0	14	0	0	0	14	0	0	0	0	0	0	0	0	0	0	0	0	0	0	0	0	0	0	0	0	0	0	0	0	0	0	0	0	0	10	3	0	0	0	13	0	0	0	0	0	0	0	0	0	0	0	0	0	0	0	0	0	0	0	0	0	0	10	17	0	0	0	27	0	0	0	0	0	0	0	0	0	0	0	0	0	0	0	0	0	0	0	0	0	0	0	0	0	0	0	0	0	0	0	0	0	0	0	0	0	380	10	0	0	0	390	0	0	0	0	0	0	0	0	0	0	0	0	0	0	0	0	0	0	0	0	0	0	380	10	0	0	0	390	0	0	0	0	1	0	0	0	0	0	0	0	0	0	0		DAVID K. LARSON/DIRECTOR OF PUBLIC WORKS	2184351737	3/2/2004	3/5/2004		
2003	20030433	NORTHEAST OKLAHOMA PUBLIC FACILITIES AUTH	13630	1996 AIRPORT PARKWAY	TAHLEQUAH	CHEROKEE	OK	74464	103 N. COLLEGE	TAHLEQUAH	CHEROKEE	OK	74464	 OK	0	0	0	266	328	0	0	0	0	0	594	0	0	0	7227	6204	0	0	0	0	0	13431	0	149	36	81	0	0	266	0	0	0	0	0	0	0	0	0	0	0	0	0	0	0	0	0	0	0	0	0	0	0	0	0	0	0	0	0	262	66	0	0	0	328	0	0	0	0	0	0	0	0	0	0	0	0	0	0	0	0	0	0	0	0	0	0	411	102	81	0	0	594	91	0	7129	97	1	0	0	7227	0	0	0	0	0	0	0	0	0	0	0	0	0	0	0	0	0	0	0	0	0	0	0	0	0	0	0	0	0	6164	40	0	0	0	6204	0	0	0	0	0	0	0	0	0	0	0	0	0	0	0	0	0	0	0	0	0	0	13293	137	1	0	0	13431	2	25	0	0	4	6	0	0	0	7	8	0	0	0	3		RANDY SNYDER	9184565621	3/2/2004	3/5/2004		
2003	20030434	CLINTON - NEWBERRY NATURAL GAS AUTH	2512	1643 SPRINGDALE DRIVE	CLINTON	LAURENS	SC	29325						 SC	0	0	0	180	422	0	0	0	0	0	602	0	0	0	559	2253	12438	0	0	0	0	15250	0	135	21	24	0	0	180	0	0	0	0	0	0	0	0	0	0	0	0	0	0	0	0	0	0	0	0	0	0	0	0	0	0	0	0	0	291	124	7	0	0	422	0	0	0	0	0	0	0	0	0	0	0	0	0	0	0	0	0	0	0	0	0	0	426	145	31	0	0	602	85	0	2776	24	12	0	0	2812	0	0	0	0	0	0	0	0	0	0	0	0	0	0	0	0	0	0	0	0	0	0	0	0	0	0	0	0	0	12275	160	3	0	0	12438	0	0	0	0	0	0	0	0	0	0	0	0	0	0	0	0	0	0	0	0	0	0	15051	184	15	0	0	15250	1	7	0	5	17	66	0	0	0	0	0	0	28	0	0.3259	LEAK SURVEY TOTAL-80	JERRY MCGEE/MAINT.	8648331862	3/2/2004	3/5/2004		
2003	20030435	MIDAMERICAN ENERGY COMPANY	30750	401 DOUGLAS STREET	SIOUX	WOODBURY	IA	51102						 NE IA SD	54	150	374	5324	5270	72	0	0	0	0	11244	3087	6850	16309	243672	345790	0	0	0	0	0	615708	0	3078	1983	627	146	68	5902	0	0	0	0	0	0	0	0	0	0	0	0	0	0	0	23	32	11	6	0	72	0	0	0	0	0	0	0	0	3989	1075	206	0	0	5270	0	0	0	0	0	0	0	0	0	0	0	0	0	0	0	0	0	0	0	0	0	0	7090	3090	844	152	68	11244	81	0	188577	79007	2201	133	0	269918	0	0	0	0	0	0	0	0	0	0	0	0	0	0	0	0	0	0	0	0	0	0	0	0	0	0	0	0	0	339305	6157	322	6	0	345790	0	0	0	0	0	0	0	0	0	0	0	0	0	0	0	0	0	0	0	0	0	0	527882	85164	2523	139	0	615708	139	376	0	33	310	1113	9	37	20	106	554	6572	185	0	1.49		"MARSHA BOON, GAS TECHNICIAN"	7122777945	3/2/2004	3/5/2004		
2003	20030436	HARTSELLE UTILITIES BOARD	7110	1010 SPARKMAN ST NW	HARTSELLE		AL	35640						 AL	0	2	0	11	144	6	0	0	0	0	163	0	0	0	0	3448	0	0	0	234	0	3682	0	2	6	4	0	0	12	0	0	0	0	0	0	0	0	0	0	0	0	0	0	0	1	6	0	0	0	7	0	0	0	0	0	0	0	0	108	34	2	0	0	144	0	0	0	0	0	0	0	0	0	0	0	0	0	0	0	0	0	0	0	0	0	0	111	46	6	0	0	163	0	0	0	0	0	0	0	0	0	0	0	0	0	0	0	0	0	0	0	0	0	0	0	0	0	0	0	0	0	0	0	0	0	0	0	0	0	3434	14	0	0	0	3448	0	0	0	0	0	0	0	0	234	0	0	0	0	234	0	0	0	0	0	0	0	0	3668	14	0	0	0	3682	3	2	0	0	4	10	0	0	0	0	0	0	0	0	3		TONY F. VEST 	2567733366	3/2/2004	3/5/2004		
2003	20030437	WEST POINT GAS SYSTEM	22427	201 W. 7TH STREET	WEST POINT	TROUP	GA	31833	730 1ST AVE.	WEST POINT	TROUP	GA	31833	 GA	0	0	0	2	6	20	0	0	0	0	28	374	0	0	0	940	0	0	0	0	0	1314	0	0	0	2	0	0	2	0	0	0	0	0	0	0	0	0	0	0	0	0	0	0	0	18	2	0	0	20	0	0	0	0	0	0	0	0	0	6	0	0	0	6	0	0	0	0	0	0	0	0	0	0	0	0	0	0	0	0	0	0	0	0	0	0	0	24	4	0	0	28	100	0	0	0	0	0	0	0	0	0	0	0	0	0	0	0	0	0	0	0	0	0	0	0	0	0	0	0	0	0	0	0	0	0	0	0	0	940	0	0	0	0	940	0	0	0	0	0	0	0	0	0	0	0	0	0	0	0	374	0	0	0	0	374	0	1314	0	0	0	0	1314	25	12	0	0	0	0	0	0	0	0	9	0	12	0	1.1	9 OTHER LEAKS	CHRIS WELBORN	7066432226	3/2/2004	3/5/2004		
2003	20030438	FOREST HILL GAS SYSTEM	5370	PO BOX 309 4300 HWY 112	FOREST HILL	RAPIDES	LA	71430						 LA	0	0	0	21	22	0	0	0	0	0	43	0	0	0	400	136	0	0	0	0	0	536	0	21	0	0	0	0	21	0	0	0	0	0	0	0	0	0	0	0	0	0	0	0	0	0	0	0	0	0	0	0	0	0	0	0	0	0	22	0	0	0	0	22	0	0	0	0	0	0	0	0	0	0	0	0	0	0	0	0	0	0	0	0	0	0	43	0	0	0	0	43	8	0	399	1	0	0	0	400	0	0	0	0	0	0	0	0	0	0	0	0	0	0	0	0	0	0	0	0	0	0	0	0	0	0	0	0	0	135	1	0	0	0	136	0	0	0	0	0	0	0	0	0	0	0	0	0	0	0	0	0	0	0	0	0	0	534	2	0	0	0	536	0	0	0	0	1	0	0	0	0	0	0	11	12	0	0	UNACCOUNTED FOR GAS -13%	HERMAN H. SPILLER	3187486300	3/2/2004	3/5/2004		
2003	20030439	HENDERSON MUNICIPAL GAS	7220	222 FIRST STREET	HENDERSON	HENDERSON	KY	42420						 KY	0	99	0	77	57	0	0	0	0	0	233	0	3453	0	2032	4777	0	0	0	0	0	10262	0	88	64	23	1	0	176	0	0	0	0	0	0	0	0	0	0	0	0	0	0	0	0	0	0	0	0	0	0	0	0	0	0	0	0	0	52	5	0	0	0	57	0	0	0	0	0	0	0	0	0	0	0	0	0	0	0	0	0	0	0	0	0	0	140	69	23	1	0	233	66	5363	67	43	11	1	0	5485	0	0	0	0	0	0	0	0	0	0	0	0	0	0	0	0	0	0	0	0	0	0	0	0	0	0	0	0	0	4738	37	2	0	0	4777	0	0	0	0	0	0	0	0	0	0	0	0	0	0	0	0	0	0	0	0	0	5363	4805	80	13	1	0	10262	9	21	3	0	3	23	6	2	3	9	4	108	13	0	0.01		OWEN R. REEVES	2702311200	3/2/2004	3/5/2004		
2003	20030440	"BERRY, TOWN OF, GAS BOARD OF"	1365	17720 HWY. 18 EAST	BERRY 	FAYETTE	AL	35546	P.O. BOX 119	BERRY 	FAYETTE	AL	35546	 AL	0	0	0	21	10	0	0	0	0	0	31	0	0	0	151	191	0	0	0	0	0	342	0	21	0	0	0	0	21	0	0	0	0	0	0	0	0	0	0	0	0	0	0	0	0	0	0	0	0	0	0	0	0	0	0	0	0	0	10	0	0	0	0	10	0	0	0	0	0	0	0	0	0	0	0	0	0	0	0	0	0	0	0	0	0	0	31	0	0	0	0	31	0	0	150	1	0	0	0	151	0	0	0	0	0	0	0	0	0	0	0	0	0	0	0	0	0	0	0	0	0	0	0	0	0	0	0	0	0	191	0	0	0	0	191	0	0	0	0	0	0	0	0	0	0	0	0	0	0	0	0	0	0	0	0	0	0	341	1	0	0	0	342	0	0	0	0	0	45	0	0	1	2	0	1	0	0	9		SHARON K. WILLCUTT	2056894686	3/2/2004	3/5/2004		
2003	20030441	"FLORENCE GAS DEPT, CITY OF"	5300	650 RICKWOOD ROAD	FLORENCE	LAUDERDALE	AL	35630						 AL	0	0	0	285	251	0	0	0	0	0	536	0	0	0	6900	11355	0	0	0	0	0	18255	0	41	164	76	4	0	285	0	0	0	0	0	0	0	0	0	0	0	0	0	0	0	0	0	0	0	0	0	0	0	0	0	0	0	0	0	120	100	31	0	0	251	0	0	0	0	0	0	0	0	0	0	0	0	0	0	0	0	0	0	0	0	0	0	161	264	107	4	0	536	114	0	6895	5	0	0	0	6900	0	0	0	0	0	0	0	0	0	0	0	0	0	0	0	0	0	0	0	0	0	0	0	0	0	0	0	0	0	11291	63	1	0	0	11355	0	0	0	0	0	0	0	0	0	0	0	0	0	0	0	0	0	0	0	0	0	0	18186	68	1	0	0	18255	1	3	0	2	10	21	3	11	2	29	1	1	7	0	2.87		ROGER D. POPE	2567673430	3/2/2004	3/5/2004		
2003	20030442	FALLS CITY UTILITIES	5057	1820 TOWLE STREET	FALLS CITY	RICHARDSON	NE	68355						 NE	0	0	12	16	7	0	0	0	0	0	35	653	942	718	0	0	0	0	0	0	0	2313	0	21	5	0	0	0	26	0	0	0	0	0	0	0	0	0	0	0	0	0	0	0	0	0	0	0	0	0	0	0	0	0	0	0	0	0	6	0	0	0	0	6	0	0	0	0	0	0	0	0	0	0	0	0	0	0	0	0	0	0	0	0	0	0	27	5	3	0	0	35	28	0	573	1021	1	0	0	1595	0	0	0	0	0	0	0	0	0	0	0	0	0	0	0	0	0	0	0	0	0	0	0	0	0	0	0	0	0	709	8	1	0	0	718	0	0	0	0	0	0	0	0	0	0	0	0	0	0	0	0	0	0	0	0	0	0	1282	1029	2	0	0	2313	0	1	0	0	0	0	0	0	0	0	0	1	0	0	0.11		"ELDON STAMP, GAS SUPERINTENDENT"	4022452724	3/2/2004	3/5/2004		
2003	20030443	BAMBERG BOARD OF PUBLIC WORKS	1096	2340 MAIN HWY PO BOX 1180	BAMBERG	BAMBERG	SC	29003						 SC	0	0	0	38	43	0	0	0	0	0	81	0	0	0	761	838	0	0	0	0	0	1599	0	21	17	0	0	0	38	0	0	0	0	0	0	0	0	0	0	0	0	0	0	0	0	0	0	0	0	0	0	0	0	0	0	0	0	0	28	15	0	0	0	43	0	0	0	0	0	0	0	0	0	0	0	0	0	0	0	0	0	0	0	0	0	0	49	32	0	0	0	81	154	0	760	0	1	0	0	761	0	0	0	0	0	0	0	0	0	0	0	0	0	0	0	0	0	0	0	0	0	0	0	0	0	0	0	0	0	829	9	0	0	0	838	0	0	0	0	0	0	0	0	0	0	0	0	0	0	0	0	0	0	0	0	0	0	1589	9	1	0	0	1599	0	0	0	0	1	4	0	0	0	2	0	0	0	0	2		JAMES W. MARTIN	8032455128	3/2/2004	3/5/2004		
2003	20030444	"BENNETTSVILLE ELECTRIC & GAS, CITY OF"	1304	501 EAST MAIN STREET	BENNETTSVILLE	MARLBORO	SC	29512						 SC	0	0	0	54	31	0	0	0	0	0	85	0	0	0	2336	964	0	0	0	0	0	3300	0	38	14	2	0	0	54	0	0	0	0	0	0	0	0	0	0	0	0	0	0	0	0	0	0	0	0	0	0	0	0	0	0	0	0	0	17	14	0	0	0	31	0	0	0	0	0	0	0	0	0	0	0	0	0	0	0	0	0	0	0	0	0	0	55	28	2	0	0	85	125	0	2336	0	0	0	0	2336	0	0	0	0	0	0	0	0	0	0	0	0	0	0	0	0	0	0	0	0	0	0	0	0	0	0	0	0	0	964	0	0	0	0	964	0	0	0	0	0	0	0	0	0	0	0	0	0	0	0	0	0	0	0	0	0	0	3300	0	0	0	0	3300	0	6	0	0	0	4	0	1	0	1	0	0	5	0	3.7		WILLIAM H.SHUFORD	8434799001	3/2/2004	3/5/2004		
2003	20030445	FORT HILL NATURAL GAS AUTH	5410	311 S. PENDLETON STREET	EASLEY	PICKENS	SC	29641						 SC	0	0	0	705	749	0	0	0	0	0	1454	0	0	0	19894	22923	0	0	0	0	0	42817	0	337	191	144	33	0	705	0	0	0	0	0	0	0	0	0	0	0	0	0	0	0	0	0	0	0	0	0	0	0	0	0	0	0	0	0	608	141	0	0	0	749	0	0	0	0	0	0	0	0	0	0	0	0	0	0	0	0	0	0	0	0	0	0	945	332	144	33	0	1454	121	0	19812	64	15	3	0	19894	0	0	0	0	0	0	0	0	0	0	0	0	0	0	0	0	0	0	0	0	0	0	0	0	0	0	0	0	0	22585	335	3	0	0	22923	0	0	0	0	0	0	0	0	0	0	0	0	0	0	0	0	0	0	0	0	0	0	42397	399	18	3	0	42817	33	58	6	5	34	142	9	29	7	10	8	4	162	0	1.5		ERIC K. THOMAS	8648507108	3/2/2004	3/5/2004		
2003	20030446	GREENWOOD COMMISSION OF PUBLIC WORKS	6810	810 BYPASS 225 SW	GREENWOOD	GREENWOOD	SC	29646	121 W. COURT ST.	GREENWOOD	GREENWOOD	SC	29646	 SC	0	0	0	331	313	0	0	0	0	0	644	0	0	0	8217	13207	0	0	0	0	0	21424	0	157	68	44	62	0	331	0	0	0	0	0	0	0	0	0	0	0	0	0	0	0	0	0	0	0	0	0	0	0	0	0	0	0	0	0	174	139	0	0	0	313	0	0	0	0	0	0	0	0	0	0	0	0	0	0	0	0	0	0	0	0	0	0	331	207	44	62	0	644	130	0	8098	103	14	2	0	8217	0	0	0	0	0	0	0	0	0	0	0	0	0	0	0	0	0	0	0	0	0	0	0	0	0	0	0	0	0	13150	50	7	0	0	13207	0	0	0	0	0	0	0	0	0	0	0	0	0	0	0	0	0	0	0	0	0	0	21248	153	21	2	0	21424	0	2	0	0	0	0	0	5	0	10	0	0	1	0	1		DAVID NELSON	8649428158	3/2/2004	3/5/2004		
2003	20030447	LANCASTER COUNTY NATURAL GAS AUTH	11192	1010 KERSHAW CAMDEN HWY	LANCASTER	LANCASTER	SC	29720						 SC	0	0	0	225	410	0	0	0	0	0	635	0	0	0	2186	14368	0	0	0	0	0	16554	0	82	83	60	0	0	225	0	0	0	0	0	0	0	0	0	0	0	0	0	0	0	0	0	0	0	0	0	0	0	0	0	0	0	0	0	338	72	0	0	0	410	0	0	0	0	0	0	0	0	0	0	0	0	0	0	0	0	0	0	0	0	0	0	420	155	60	0	0	635	155	0	2174	2	9	1	0	2186	0	0	0	0	0	0	0	0	0	0	0	0	0	0	0	0	0	0	0	0	0	0	0	0	0	0	0	0	0	14336	32	0	0	0	14368	0	0	0	0	0	0	0	0	0	0	0	0	0	0	0	0	0	0	0	0	0	0	16510	34	9	1	0	16554	0	0	0	0	15	98	0	0	0	2	0	0	0	0	0.8		SETH A. ROGERS	8032852045	3/2/2004	3/5/2004		
2003	20030448	LAURENS COMMISSION OF PUBLIC WORKS	11264	212 CHURCH STREET	LAURENS	LAURENS	SC	29360						 SC	0	0	12	167	202	0	0	0	0	0	381	0	0	0	2877	5048	0	0	0	0	0	7925	0	73	21	41	44	0	179	0	0	0	0	0	0	0	0	0	0	0	0	0	0	0	0	0	0	0	0	0	0	0	0	0	0	0	0	0	146	56	0	0	0	202	0	0	0	0	0	0	0	0	0	0	0	0	0	0	0	0	0	0	0	0	0	0	219	77	41	44	0	381	150	0	2873	1	2	1	0	2877	0	0	0	0	0	0	0	0	0	0	0	0	0	0	0	0	0	0	0	0	0	0	0	0	0	0	0	0	0	5046	2	0	0	0	5048	0	0	0	0	0	0	0	0	0	0	0	0	0	0	0	0	0	0	0	0	0	0	7919	3	2	1	0	7925	2	15	0	0	12	43	0	0	3	0	0	0	11	0	0.7		RAYMOND R. CRAFT	8649840431	3/2/2004	3/5/2004		
2003	20030449	ORANGEBURG PUBLIC UTILITIES	14340	1016 RUSSELL STREET	ORANGEBURG	ORANGEBURG	SC	29115						 SC	0	0	0	230	59	0	0	0	0	0	289	0	0	0	7061	3453	0	0	0	0	0	10514	0	129	27	48	26	0	230	0	0	0	0	0	0	0	0	0	0	0	0	0	0	0	0	0	0	0	0	0	0	0	0	0	0	0	0	0	55	4	0	0	0	59	0	0	0	0	0	0	0	0	0	0	0	0	0	0	0	0	0	0	0	0	0	0	184	31	48	26	0	289	50	0	7030	23	5	3	0	7061	0	0	0	0	0	0	0	0	0	0	0	0	0	0	0	0	0	0	0	0	0	0	0	0	0	0	0	0	0	3411	42	0	0	0	3453	0	0	0	0	0	0	0	0	0	0	0	0	0	0	0	0	0	0	0	0	0	0	10441	65	5	3	0	10514	8	1	0	0	0	18	0	0	0	0	19	196	0	0	0		DAVE DURGIN	8032684306	3/2/2004	3/8/2004		
2003	20030450	PIEDMONT NATURAL GAS CO INC	15518	1915 REXFORD ROAD	CHARLOTTE 	MECKLENBURG	NC	28211						 NC	0	0	0	1464	1717	0	0	0	0	0	3181	0	0	0	26807	108280	0	0	0	0	0	135087	0	771	278	367	48	0	1464	0	0	0	0	0	0	0	0	0	0	0	0	0	0	0	0	0	0	0	0	0	0	0	0	0	0	0	0	0	1363	316	38	0	0	1717	0	0	0	0	0	0	0	0	0	0	0	0	0	0	0	0	0	0	0	0	0	0	2134	594	405	48	0	3181	99	0	24311	2331	133	21	11	26807	0	0	0	0	0	0	0	0	0	0	0	0	0	0	0	0	0	0	0	0	0	0	0	0	0	0	0	0	0	99831	8352	93	4	0	108280	0	0	0	0	0	0	0	0	0	0	0	0	0	0	0	0	0	0	0	0	0	0	124142	10683	226	25	11	135087	7	12	2	4	58	310	21	67	53	62	4	5	9	0	0		BRET MAYBERRY OPERATIONS	7043214410	3/2/2004	3/8/2004		
2003	20030451	"LAFAYETTE GAS & UTILITIES DEPT, CITY OF"	11064	200 E. LOCUST ST.	LAFAYETTE	MACON	TN	37083						 TN	0	0	0	24	42	0	0	0	0	0	66	0	0	0	670	1362	0	0	0	0	0	2032	0	14	2	8	0	0	24	0	0	0	0	0	0	0	0	0	0	0	0	0	0	0	0	0	0	0	0	0	0	0	0	0	0	0	0	0	36	6	0	0	0	42	0	0	0	0	0	0	0	0	0	0	0	0	0	0	0	0	0	0	0	0	0	0	50	8	8	0	0	66	100	0	662	8	0	0	0	670	0	0	0	0	0	0	0	0	0	0	0	0	0	0	0	0	0	0	0	0	0	0	0	0	0	0	0	0	0	1347	15	0	0	0	1362	0	0	0	0	0	0	0	0	0	0	0	0	0	0	0	0	0	0	0	0	0	0	2009	23	0	0	0	2032	0	0	0	0	0	4	1	1	0	1	0	0	0	0	2		PHILLIP BRAWNER	6156664580	3/3/2004	3/8/2004		
2003	20030452	OHIO VALLEY GAS CORP	14180	111 ENERGY PARK DRIVE	WINCHESTER	RANDOLPH	IN	47394						 IN	0	0	0	15	1	0	0	0	0	0	16	35	0	15	529	181	0	0	0	0	0	760	0	4	11	0	0	0	15	0	0	0	0	0	0	0	0	0	0	0	0	0	0	0	0	0	0	0	0	0	0	0	0	0	0	0	0	0	1	0	0	0	0	1	0	0	0	0	0	0	0	0	0	0	0	0	0	0	0	0	0	0	0	0	0	0	5	11	0	0	0	16	63	0	558	21	0	0	0	579	0	0	0	0	0	0	0	0	0	0	0	0	0	0	0	0	0	0	0	0	0	0	0	0	0	0	0	0	0	176	5	0	0	0	181	0	0	0	0	0	0	0	0	0	0	0	0	0	0	0	0	0	0	0	0	0	0	734	26	0	0	0	760	0	1	0	0	0	0	0	0	0	2	0	2	4	0	1.21		MARK H. MAYFIELD	7655846842	3/3/2004	3/8/2004		
2003	20030453	"HENDERSON GAS DEPT, CITY OF"	7215	121 CROOK AVE. PO BOX 68	HENDERSON	CHESTER	TN	38340						 TN	0	0	0	55	179	0	0	0	0	0	234	0	0	0	1591	2279	0	0	0	0	0	3870	0	28	8	4	15	0	55	0	0	0	0	0	0	0	0	0	0	0	0	0	0	0	0	0	0	0	0	0	0	0	0	0	0	0	0	0	130	49	0	0	0	179	0	0	0	0	0	0	0	0	0	0	0	0	0	0	0	0	0	0	0	0	0	0	158	57	4	15	0	234	100	0	1539	52	0	0	0	1591	0	0	0	0	0	0	0	0	0	0	0	0	0	0	0	0	0	0	0	0	0	0	0	0	0	0	0	0	0	2266	13	0	0	0	2279	0	0	0	0	0	0	0	0	0	0	0	0	0	0	0	0	0	0	0	0	0	0	3805	65	0	0	0	3870	0	0	0	0	1	5	0	0	1	10	0	34	0	0	1		ROY W. HAYLEY	7319893503	3/3/2004	3/8/2004		
2003	20030454	POPLAR GROVE UTILITY DISTRICT	30669	PO BOX 505 14560 HWY 51 S	ATOKA	TIPTION	TN	38004						 TN	0	0	0	3	156	0	0	0	0	0	159	0	0	0	3	3247	0	0	0	0	0	3250	0	0	1	2	0	0	3	0	0	0	0	0	0	0	0	0	0	0	0	0	0	0	0	0	0	0	0	0	0	136	10	10	0	0	156	0	0	0	0	0	0	0	0	0	0	0	0	0	0	0	0	0	0	0	0	0	0	0	0	0	0	0	0	0	136	11	12	0	0	159	169	0	3	0	0	0	0	3	0	0	0	0	0	0	0	0	0	0	0	0	0	0	0	0	0	0	0	0	0	0	0	0	0	0	0	0	0	3244	3	0	0	0	3247	0	0	0	0	0	0	0	0	0	0	0	0	0	0	0	0	0	0	0	0	0	0	3247	3	0	0	0	3250	0	0	0	0	0	10	0	2	0	0	0	0	3	0	1.4		MIKE BREWER	9018370181	3/3/2004	3/8/2004		
2003	20030455	LENOX MUNICIPAL GAS SYSTEM	11384	200 SOUTH MAIN	LENOX	TAYLOR	IA	50851						 IA	0	0	0	30	0	0	0	0	0	0	30	0	0	0	510	5	0	0	0	0	0	515	0	8	21	1	0	0	30	0	0	0	0	0	0	0	0	0	0	0	0	0	0	0	0	0	0	0	0	0	0	0	0	0	0	0	0	0	0	0	0	0	0	0	0	0	0	0	0	0	0	0	0	0	0	0	0	0	0	0	0	0	0	0	0	0	8	21	1	0	0	30	100	0	510	0	0	0	0	510	0	0	0	0	0	0	0	0	0	0	0	0	0	0	0	0	0	0	0	0	0	0	0	0	0	0	0	0	0	5	0	0	0	0	5	0	0	0	0	0	0	0	0	0	0	0	0	0	0	0	0	0	0	0	0	0	0	515	0	0	0	0	515	0	0	0	0	0	0	0	0	0	0	0	0	0	0	3		MELISSA M. DOUGLAS	6413332228	3/3/2004	3/8/2004		
2003	20030456	PRESCOTT MUNICIPAL GAS SYSTEM (CITY OF LENOX)	15840	607 2ND STREET	PRESCOTT	ADAMS	IA	50859						 IA	0	0	0	5	0	0	0	0	0	0	5	0	0	0	116	5	0	0	0	0	0	121	0	3	2	0	0	0	5	0	0	0	0	0	0	0	0	0	0	0	0	0	0	0	0	0	0	0	0	0	0	0	0	0	0	0	0	0	0	0	0	0	0	0	0	0	0	0	0	0	0	0	0	0	0	0	0	0	0	0	0	0	0	0	0	0	3	2	0	0	0	5	0	0	116	0	0	0	0	116	0	0	0	0	0	0	0	0	0	0	0	0	0	0	0	0	0	0	0	0	0	0	5	0	0	0	0	5	0	0	0	0	0	0	0	0	0	0	0	0	0	0	0	0	0	0	0	0	0	0	0	0	0	0	0	0	0	121	0	0	0	0	121	0	0	0	0	0	0	0	0	0	0	0	0	0	0	0		MELISSA M. DOUGLAS	6413332228	3/3/2004	3/8/2004		
2003	20030457	CLEARFIELD MUNICIPAL GAS SYSTEM	2480	CITY HALL	CLEARFIELD	TAYLOR	IA	50851						 IA	0	0	0	9	1	0	0	0	0	0	10	0	0	0	150	8	0	0	0	0	0	158	0	1	7	2	0	0	10	0	0	0	0	0	0	0	0	0	0	0	0	0	0	0	0	0	0	0	0	0	0	0	0	0	0	0	0	0	0	0	0	0	0	0	0	0	0	0	0	0	0	0	0	0	0	0	0	0	0	0	0	0	0	0	0	0	1	7	2	0	0	10	0	0	150	0	0	0	0	150	0	0	0	0	0	0	0	0	0	0	0	0	0	0	0	0	0	0	0	0	0	0	0	0	0	0	0	0	0	8	0	0	0	0	8	0	0	0	0	0	0	0	0	0	0	0	0	0	0	0	0	0	0	0	0	0	0	158	0	0	0	0	158	0	0	0	0	0	0	0	0	0	0	0	0	0	0	0		MELISSA M. DOUGLAS	6413332228	3/3/2004	3/8/2004		
2003	20030458	WEST TENNESSEE PUBLIC UTIL DIST	22434	14055 PARIS STREET	HUNTINGDON	CARROLL	TN	38344						 TN	0	0	0	436	327	0	0	0	0	0	763	0	0	0	6362	9919	0	0	0	0	0	16281	0	265	96	55	20	0	436	0	0	0	0	0	0	0	0	0	0	0	0	0	0	0	0	0	0	0	0	0	0	0	0	0	0	0	0	0	301	26	0	0	0	327	0	0	0	0	0	0	0	0	0	0	0	0	0	0	0	0	0	0	0	0	0	0	566	122	55	20	0	763	145	0	6313	49	0	0	0	6362	0	0	0	0	0	0	0	0	0	0	0	0	0	0	0	0	0	0	0	0	0	0	0	0	0	0	0	0	0	9896	23	0	0	0	9919	0	0	0	0	0	0	0	0	0	0	0	0	0	0	0	0	0	0	0	0	0	0	16209	72	0	0	0	16281	4	1	1	1	8	69	0	0	0	0	3	0	2	0	1.43		JAMES I. WEBB	7319868289	3/3/2004	3/8/2004		
2003	20030459	"BUNKER HILL, CITY OF"	1860	595 ELM PO BOX 86	BUNKER HILL	RUSSELL 	KS	67626						 KS	0	0	0	0	8	0	0	0	0	0	8	0	0	0	0	100	0	0	0	0	0	100	0	0	0	0	0	0	0	0	0	0	0	0	0	0	0	0	0	0	0	0	0	0	0	0	0	0	0	0	0	0	0	0	0	0	0	0	8	0	0	0	0	8	0	0	0	0	0	0	0	0	0	0	0	0	0	0	0	0	0	0	0	0	0	0	8	0	0	0	0	8	0	0	0	0	0	0	0	0	0	0	0	0	0	0	0	0	0	0	0	0	0	0	0	0	0	0	0	0	0	0	0	0	0	0	0	0	0	100	0	0	0	0	100	0	0	0	0	0	0	0	0	0	0	0	0	0	0	0	0	0	0	0	0	0	0	100	0	0	0	0	100	0	0	0	0	0	0	0	0	0	0	0	0	0	0	0		"KATHY E. COOK, CITY CLERK"	7854836737	3/3/2004	3/8/2004		
2003	20030460	"WHITE CASTLE, TOWN OF"	22546	32535 BOWIE ST	WHITE CASTLE	IBERVILLE	LA	70788						 LA	0	0	0	11	0	0	0	0	0	0	11	0	0	0	810	2	0	0	0	0	0	812	0	11	0	0	0	0	11	0	0	0	0	0	0	0	0	0	0	0	0	0	0	0	0	0	0	0	0	0	0	0	0	0	0	0	0	0	0	0	0	0	0	0	0	0	0	0	0	0	0	0	0	0	0	0	0	0	0	0	0	0	0	0	0	0	11	0	0	0	0	11	0	0	806	4	0	0	0	810	0	0	0	0	0	0	0	0	0	0	0	0	0	0	0	0	0	0	0	0	0	0	0	0	0	0	0	0	0	2	0	0	0	0	2	0	0	0	0	0	0	0	0	0	0	0	0	0	0	0	0	0	0	0	0	0	0	808	4	0	0	0	812	0	15	0	0	0	0	0	0	0	0	0	0	5	0	8		WILLIAM E. SIMMERS	2255453012	3/3/2004	3/8/2004		
2003	20030461	ST CROIX VALLEY NATURAL GAS CO INC	18048	212 NORTH MAIN STREET	RIVER FALLS	PIERCE	WI	54022					54022	 WI	0	0	0	44	115	0	0	0	0	0	159	0	0	0	1427	4756	0	0	0	0	0	6183	0	27	12	5	0	0	44	0	0	0	0	0	0	0	0	0	0	0	0	0	0	0	0	0	0	0	0	0	0	0	0	0	0	0	0	0	102	12	1	0	0	115	0	0	0	0	0	0	0	0	0	0	0	0	0	0	0	0	0	0	0	0	0	0	129	24	6	0	0	159	115	0	1414	11	1	1	0	1427	0	0	0	0	0	0	0	0	0	0	0	0	0	0	0	0	0	0	0	0	0	0	0	0	0	0	0	0	0	4701	54	1	0	0	4756	0	0	0	0	0	0	0	0	0	0	0	0	0	0	0	0	0	0	0	0	0	0	6115	65	2	1	0	6183	0	0	0	0	2	11	0	0	0	0	0	7	0	0	0.2		"DUANE PEDERSON, DIRECTOR OF OPERATIONS"	7154256177	3/3/2004	3/8/2004		
2003	20030462	PIKE COUNTY LIGHT & POWER CO	15540	ONE BLUE HILL PLAZA	PEARL RIVER 	ROCKLAND	NY	10965						 PA	0	0	6	2	5	6	0	0	0	0	19	0	0	530	304	188	0	0	0	0	0	1022	0	1	5	2	0	0	8	0	0	0	0	0	0	0	0	0	0	0	0	0	0	0	0	4	2	0	0	6	0	0	0	0	0	0	0	0	1	3	1	0	0	5	0	0	0	0	0	0	0	0	0	0	0	0	0	0	0	0	0	0	0	0	0	0	2	12	5	0	0	19	76	0	15	819	0	0	0	834	0	0	0	0	0	0	0	0	0	0	0	0	0	0	0	0	0	0	0	0	0	0	0	0	0	0	0	0	0	59	129	0	0	0	188	0	0	0	0	0	0	0	0	0	0	0	0	0	0	0	0	0	0	0	0	0	0	74	948	0	0	0	1022	1	1	0	0	0	0	0	0	0	0	0	0	0	0	2.8		RICHARD A MATHSEN/ SR. COST CONTROL ANALYST	8455772530	2/27/2004	3/8/2004		
2003	20030463	DALTON WATER LIGHT & SINKING FUND COMMISSION	3090	BOX 869 1200 VD PARROTT 	DALTON		GA	30722						 GA	0	0	0	187	38	0	0	0	0	0	225	0	229	0	2472	6434	0	0	0	0	0	9135	0	61	88	17	21	0	187	0	0	0	0	0	0	0	0	0	0	0	0	0	0	0	0	0	0	0	0	0	0	0	0	0	0	0	0	0	29	8	1	0	0	38	0	0	0	0	0	0	0	0	0	0	0	0	0	0	0	0	0	0	0	0	0	0	90	96	18	21	0	225	60	0	2317	331	31	22	0	2701	0	0	0	0	0	0	0	0	0	0	0	0	0	0	0	0	0	0	0	0	0	0	0	0	0	0	0	0	0	6330	91	12	1	0	6434	0	0	0	0	0	0	0	0	0	0	0	0	0	0	0	0	0	0	0	0	0	0	8647	422	43	23	0	9135	21	9	0	3	0	15	1	9	3	16	0	35	1	0	3.33		"DALE BRIDGES, GAS ENGINEER"	7065291104	3/3/2004	3/8/2004		
2003	20030464	"OLIVE BRANCH MUNICIPAL GAS, CITY OF"	14270	10175 HIGHWAY 178	OLIVE BRANCH	DESOTO	MS	38654	9189 PIGEON ROOST	OLIVE BRANCH	DESOTO	MS	38654	 MS	0	0	0	54	314	0	0	0	0	0	368	0	0	0	451	10836	0	0	0	0	0	11287	0	8	18	28	0	0	54	0	0	0	0	0	0	0	0	0	0	0	0	0	0	0	0	0	0	0	0	0	0	0	0	0	0	0	0	0	236	48	30	0	0	314	0	0	0	0	0	0	0	0	0	0	0	0	0	0	0	0	0	0	0	0	0	0	244	66	58	0	0	368	75	0	451	0	0	0	0	451	0	0	0	0	0	0	0	0	0	0	0	0	0	0	0	0	0	0	0	0	0	0	0	0	0	0	0	0	0	10651	185	0	0	0	10836	0	0	0	0	0	0	0	0	0	0	0	0	0	0	0	0	0	0	0	0	0	0	11102	185	0	0	0	11287	0	0	0	0	39	76	2	3	0	0	0	0	73	0	3.96		BARRY LOONEY	6628935208	3/4/2004	3/5/2004		
2003	20030465	"BAINBRIDGE GAS DEPT, CITY OF"	1048	PO BOX 158. 1503 PIERCE 	BAINBRIDGE	DECATUR	GA	31717					39817	 GA	0	0	0	35	22	10	0	0	0	0	67	0	0	0	101	2119	0	0	0	0	0	2220	0	27	7	1	0	0	35	0	0	0	0	0	0	0	0	0	0	0	0	0	0	0	0	6	4	0	0	10	0	0	0	0	0	0	0	0	0	4	0	0	0	4	0	18	0	0	0	0	18	0	0	0	0	0	0	0	0	0	0	0	0	0	0	0	45	17	5	0	0	67	100	0	98	2	1	0	0	101	0	0	0	0	0	0	0	0	0	0	0	0	0	0	0	0	0	0	0	0	0	0	0	0	0	0	0	0	0	2118	1	0	0	0	2119	0	0	0	0	0	0	0	0	0	0	0	0	0	0	0	0	0	0	0	0	0	0	2216	3	1	0	0	2220	0	0	0	3	0	1	0	0	0	0	0	3	2	0		UNACCOUNTED FOR GAS AS A PERCENT OF TOTAL INPUT FOR YEAR ENDING 6/30 IS -1.2%    THIS REPORT COMPILED FROM IMFORMATION SUPPLIED BY:   DAVID PEACOCK (CITY OF BAINBRIDGE	DAVID PEACOCK	2292482014	3/4/2004	3/5/2004		
2003	20030466	PG ENERGY	15259	ONE PEI CENTER	WILKES-BARRE	LUZERNE	PA	18711						 PA	321	23	14	831	1134	73	0	0	116	0	2512	2417	21736	27	11234	117933	0	0	1	0	0	153348	0	203	430	308	227	21	1189	0	0	0	0	0	0	0	0	0	0	0	0	0	0	0	0	0	73	0	0	73	0	0	0	0	0	0	0	0	676	327	129	2	0	1134	0	0	0	0	0	0	0	0	0	64	32	19	1	116	0	0	0	0	0	0	0	0	879	821	542	248	22	2512	52	0	15851	18796	724	42	1	35414	0	0	0	0	0	0	0	1	0	0	0	0	0	1	0	0	0	0	0	0	0	0	0	0	0	0	0	0	0	103327	14416	171	19	0	117933	0	0	0	0	0	0	0	0	0	0	0	0	0	0	0	0	0	0	0	0	0	1	119178	33212	895	61	1	153348	516	565	55	24	25	247	7	16	156	128	210	136	320	0	0.094		ANTHONY M. DECESARIS	5708298870	3/4/2004	3/5/2004		
2003	20030467	FORT WALTON BEACH HOUSING AUTH	5500	27 ROBINWOOD DRIVE S.W.	FORT WALTON BEACH	OKALOOSA	FL	32578						 FL	0	0	0	0	1	0	0	0	0	0	1	0	0	0	0	116	0	0	0	0	0	116	0	0	0	0	0	0	0	0	0	0	0	0	0	0	0	0	0	0	0	0	0	0	0	0	0	0	0	0	0	0	0	0	0	0	0	0	1	0	0	0	0	1	0	0	0	0	0	0	0	0	0	0	0	0	0	0	0	0	0	0	0	0	0	0	1	0	0	0	0	1	31	0	0	0	0	0	0	0	0	0	0	0	0	0	0	0	0	0	0	0	0	0	0	0	0	0	0	0	0	0	0	0	0	0	0	0	0	116	0	0	0	0	116	0	0	0	0	0	0	0	0	0	0	0	0	0	0	0	0	0	0	0	0	0	0	116	0	0	0	0	116	0	0	0	0	0	0	0	0	0	2	0	0	0	2			ESSA RHEBI	8507294870	3/4/2004	3/5/2004		
2003	20030468	CRESTVIEW HOUSING AUTH	2876	371 WEST HICKORY AVENUE	CRESTVIEW	OKALOOSA	FL	32536						 FL	0	0	0	2	1	0	0	0	0	0	3	0	0	0	201	73	0	0	0	0	0	274	0	2	0	0	0	0	2	0	0	0	0	0	0	0	0	0	0	0	0	0	0	0	0	0	0	0	0	0	0	0	0	0	0	0	0	0	1	0	0	0	0	1	0	0	0	0	0	0	0	0	0	0	0	0	0	0	0	0	0	0	0	0	0	0	3	0	0	0	0	3	50	0	201	0	0	0	0	201	0	0	0	0	0	0	0	0	0	0	0	0	0	0	0	0	0	0	0	0	0	0	0	0	0	0	0	0	0	73	0	0	0	0	73	0	0	0	0	0	0	0	0	0	0	0	0	0	0	0	0	0	0	0	0	0	0	274	0	0	0	0	274	0	0	0	0	0	0	0	0	0	3	0	0	0	3			ESSA RHEBI	8507294870	3/4/2004	3/5/2004		
2003	20030469	NICEVILLE HOUSING AUTH	13490	500 BOYD CIRCLE	NICEVILLE	OKALOOSA	FL	32578						 FL	0	0	0	0	1	1	0	0	0	0	2	0	0	0	0	58	50	0	0	0	0	108	0	1	0	0	0	0	1	0	0	0	0	0	0	0	0	0	0	0	0	0	0	0	0	0	0	0	0	0	0	0	0	0	0	0	0	0	1	0	0	0	0	1	0	0	0	0	0	0	0	0	0	0	0	0	0	0	0	0	0	0	0	0	0	0	2	0	0	0	0	2	50	0	58	0	0	0	0	58	0	0	0	0	0	0	0	0	0	0	0	0	0	0	0	0	0	0	0	0	0	0	0	0	0	0	0	0	0	50	0	0	0	0	50	0	0	0	0	0	0	0	0	0	0	0	0	0	0	0	0	0	0	0	0	0	0	108	0	0	0	0	108	0	0	0	0	0	0	0	0	0	0	0	0	0	0			ESSA RHEBI	8507294870	3/4/2004	3/5/2004		
2003	20030470	"HUNTINGTON GAS CO, CITY OF"	7680	202 GIBSON	HUNTINGTON	ANGELINA	TX	75949						 TN TX	0	0	0	0	67	0	0	0	0	0	67	0	0	0	0	869	0	0	0	0	0	869	0	0	0	0	0	0	0	0	0	0	0	0	0	0	0	0	0	0	0	0	0	0	0	0	0	0	0	0	0	0	0	0	0	0	0	0	43	24	0	0	0	67	0	0	0	0	0	0	0	0	0	0	0	0	0	0	0	0	0	0	0	0	0	0	43	24	0	0	0	67	0	0	0	1	0	0	0	1	0	0	0	0	0	0	0	0	0	0	0	0	0	0	0	0	0	0	0	0	0	0	0	0	0	0	0	0	0	851	17	0	0	0	868	0	0	0	0	0	0	0	0	0	0	0	0	0	0	0	0	0	0	0	0	0	0	851	18	0	0	0	869	0	0	0	0	1	2	0	0	0	0	0	6	0	0	0		JOHNNY YOUNG	9364224195	3/4/2004	3/5/2004		
2003	20030471	"HOHENWALD NATURAL GAS SYSTEM, CITY OF"	7310	118 W LINDEN	HOHENWALD	LEWIS	TN	38462						 TN	0	0	0	35	31	0	0	0	0	0	66	0	0	0	1189	1316	0	0	0	0	0	2505	0	17	18	0	0	0	35	0	0	0	0	0	0	0	0	0	0	0	0	0	0	0	0	0	0	0	0	0	0	25	6	0	0	0	31	0	0	0	0	0	0	0	0	0	0	0	0	0	0	0	0	0	0	0	0	0	0	0	0	0	0	0	0	0	42	24	0	0	0	66	35	0	1181	7	1	0	0	1189	0	0	0	0	0	0	0	0	0	0	0	0	0	0	0	0	0	0	0	0	0	0	0	0	0	0	0	0	0	1316	0	0	0	0	1316	0	0	0	0	0	0	0	0	0	0	0	0	0	0	0	0	0	0	0	0	0	0	2497	7	1	0	0	2505	3	5	0	0	6	2	2	0	0	0	0	0	1	0	15		DON MEREDITH	9317962231	3/4/2004	3/5/2004		
2003	20030472	"CLEARBROOK MUNICIPAL GAS, CITY OF"	31098	PO BOX 62	CLEARBROOK	CLEARWATER	MN	56634						 MN	0	0	0	2	7	0	0	0	0	0	9	0	0	0	0	176	0	0	0	0	0	176	0	0	2	0	0	0	2	0	0	0	0	0	0	0	0	0	0	0	0	0	0	0	0	0	0	0	0	0	0	0	0	0	0	0	0	0	6	1	0	0	0	7	0	0	0	0	0	0	0	0	0	0	0	0	0	0	0	0	0	0	0	0	0	0	6	3	0	0	0	9	100	0	0	0	0	0	0	0	0	0	0	0	0	0	0	0	0	0	0	0	0	0	0	0	0	0	0	0	0	0	0	0	0	0	0	0	0	171	5	0	0	0	176	0	0	0	0	0	0	0	0	0	0	0	0	0	0	0	0	0	0	0	0	0	0	171	5	0	0	0	176	0	0	0	0	0	0	0	0	0	0	0	10	0	0	2.4	PART C - TOTAL LEAKS:  10 SMALL LEAKS WERE FOUND ON ABOVE GROUND METER SETS DURING TOUTINE METER READS AND SURVEYS.	MICHAEL R. JOHNSON	2187763213	3/4/2004	3/5/2004		
2003	20030473	WILLIAMSPORT CORP	22623	"P.O. BOX 215, 300 BALLARD"	WILLIAMSPORT	PICKAWAY	OH	43164						 OH	0	0	0	0	7	0	0	0	0	0	7	102	0	0	0	277	0	0	0	0	0	379	0	0	0	0	0	0	0	0	0	0	0	0	0	0	0	0	0	0	0	0	0	0	0	0	0	0	0	0	0	0	0	0	0	0	0	0	4	3	0	0	0	7	0	0	0	0	0	0	0	0	0	0	0	0	0	0	0	0	0	0	0	0	0	0	4	3	0	0	0	7	50	0	17	85	0	0	0	102	0	0	0	0	0	0	0	0	0	0	0	0	0	0	0	0	0	0	0	0	0	0	0	0	0	0	0	0	0	271	6	0	0	0	277	0	0	0	0	0	0	0	0	0	0	0	0	0	0	0	0	0	0	0	0	0	0	288	91	0	0	0	379	0	2	0	0	0	0	0	0	0	0	0	0	2	0	0.006		ERIC SCHLEICH	7409869505	3/4/2004	3/5/2004		
2003	20030474	EMMETSBURG MUNICIPAL UTILITIES	4440	2021 MAIN ST.	EMMETSBURG	PALO ALTO	IA	50536						 IA	0	0	0	32	18	0	0	0	0	0	50	0	0	0	765	937	0	0	0	0	0	1702	0	23	7	2	0	0	32	0	0	0	0	0	0	0	0	0	0	0	0	0	0	0	0	0	0	0	0	0	0	0	0	0	0	0	0	0	15	3	0	0	0	18	0	0	0	0	0	0	0	0	0	0	0	0	0	0	0	0	0	0	0	0	0	0	38	10	2	0	0	50	75	0	749	16	0	0	0	765	0	0	0	0	0	0	0	0	0	0	0	0	0	0	0	0	0	0	0	0	0	0	0	0	0	0	0	0	0	931	6	0	0	0	937	0	0	0	0	0	0	0	0	0	0	0	0	0	0	0	0	0	0	0	0	0	0	1680	22	0	0	0	1702	0	0	2	1	0	0	0	0	0	0	0	0	2	0			DAN SHIRK	7128524914	3/4/2004	3/5/2004		
2003	20030475	MAPLESVILLE GAS SYSTEM	12120	9400 AL HWY22 P O BOX 62	MAPLESVILLE	CHILTON	AL	36750					36750	 AL	0	0	0	21	56	0	0	0	0	0	77	0	0	0	235	559	0	0	0	0	0	794	0	6	15	0	0	0	21	0	0	0	0	0	0	0	0	0	0	0	0	0	0	0	0	0	0	0	0	0	0	0	0	0	0	0	0	0	35	20	1	0	0	56	0	0	0	0	0	0	0	0	0	0	0	0	0	0	0	0	0	0	0	0	0	0	41	35	1	0	0	77	70	0	149	3	0	0	0	152	0	0	0	0	0	0	0	0	0	0	0	0	0	0	0	0	0	0	0	0	0	0	0	0	0	0	0	0	0	562	76	4	0	0	642	0	0	0	0	0	0	0	0	0	0	0	0	0	0	0	0	0	0	0	0	0	0	711	79	4	0	0	794	0	0	0	0	0	0	0	0	0	2	0	0	0	0	1.011		LINDA SMITHERMAN	3343662407	3/4/2004	3/5/2004		
2003	20030476	MOREHEAD MUNICIPAL UTILITIES PLANT BOARD	12774	135 S. WILSON AVE.	MOREHEAD	ROWAN	KY	40351						 KY	0	0	0	2	57	0	0	0	0	0	59	0	0	0	65	1800	0	0	0	0	0	1865	0	0	0	2	0	0	2	0	0	0	0	0	0	0	0	0	0	0	0	0	0	0	0	0	0	0	0	0	0	0	0	0	0	0	0	0	38	14	5	0	0	57	0	0	0	0	0	0	0	0	0	0	0	0	0	0	0	0	0	0	0	0	0	0	38	14	7	0	0	59	50	0	0	65	1	0	0	66	0	0	0	0	0	0	0	0	0	0	0	0	0	0	0	0	0	0	0	0	0	0	0	0	0	0	0	0	0	1795	0	4	0	0	1799	0	0	0	0	0	0	0	0	0	0	0	0	0	0	0	0	0	0	0	0	0	0	1795	65	5	0	0	1865	0	0	0	0	2	6	0	1	0	0	0	0	42	0	0		JEREMY LEWIS	6067844305	3/4/2004	3/5/2004		
2003	20030477	"GRANVILLE, CITY OF"	6601	103 3RD ST SW (PO BOX 39)	GRANVILLE 	MCHENRY	ND	58741						 ND	0	0	0	0	3	0	0	0	0	0	3	0	0	0	0	174	0	0	0	0	0	174	0	0	0	0	0	0	0	0	0	0	0	0	0	0	0	0	0	0	0	0	0	0	0	0	0	0	0	0	0	0	0	0	0	0	0	0	2	1	0	0	0	3	0	0	0	0	0	0	0	0	0	0	0	0	0	0	0	0	0	0	0	0	0	0	2	1	0	0	0	3	75	0	0	0	0	0	0	0	0	0	0	0	0	0	0	0	0	0	0	0	0	0	0	0	0	0	0	0	0	0	0	0	0	0	0	0	0	172	2	0	0	0	174	0	0	0	0	0	0	0	0	0	0	0	0	0	0	0	0	0	0	0	0	0	0	172	2	0	0	0	174	0	0	0	0	0	0	0	0	0	0	0	0	0	0	0		BOB BACHMEIER	7017286369	3/4/2004	3/5/2004		
2003	20030478	"LEBANON GAS DEPT, CITY OF"	11336	1017 SPARTA PK	LEBANON	WILSON	TN	37087					37087	 TN	0	0	0	81	0	0	0	0	0	129	210	0	0	0	1294	0	0	0	0	0	5002	6296	0	37	12	32	0	0	81	0	0	0	0	0	0	0	0	0	0	0	0	0	0	0	0	0	0	0	0	0	0	0	0	0	0	0	0	0	91	38	0	0	0	129	0	0	0	0	0	0	0	0	0	0	0	0	0	0	0	0	0	0	0	0	0	0	128	50	32	0	0	210	60	0	1265	27	1	1	0	1294	0	0	0	0	0	0	0	0	0	0	0	0	0	0	0	0	0	0	0	0	0	0	0	0	0	0	0	0	0	4837	161	4	0	0	5002	0	0	0	0	0	0	0	0	0	0	0	0	0	0	0	0	0	0	0	0	0	0	6102	188	5	1	0	6296	8	9	2	3	3	2	2	3	3	2	0	0	10	0	3		DON COZART	6154432835	3/4/2004	3/5/2004		
2003	20030479	"PINCKNEYVILLE MUNICIPAL GAS DEPT, CITY OF"	15567	104 SOUTH WALNUT	PINCKNEYVILLE	PERRY	IL	62274						 IL	0	0	0	25	11	0	0	0	0	0	36	0	0	0	1338	434	0	0	0	0	0	1772	0	12	12	1	0	0	25	0	0	0	0	0	0	0	0	0	0	0	0	0	0	0	0	0	0	0	0	0	0	5	0	0	0	0	5	0	3	3	0	0	0	6	0	0	0	0	0	0	0	0	0	0	0	0	0	0	0	0	0	0	0	0	0	0	20	15	1	0	0	36	75	0	1311	25	2	0	0	1338	0	0	0	0	0	0	0	0	0	0	0	0	0	0	0	0	0	0	0	0	0	0	108	0	0	0	0	108	0	319	7	0	0	0	326	0	0	0	0	0	0	0	0	0	0	0	0	0	0	0	0	0	0	0	0	0	0	1738	32	2	0	0	1772	0	10	0	2	0	4	2	7	0	16	0	0	3	0	0		MICHAEL C. MILLIKIN	6183576002	3/4/2004	3/5/2004		
2003	20030480	OHIO CUMBERLAND GAS CO	14121	20718 DANVILLE-AMITY ROAD	MOUNT VERNON	KNOX	OH	43050						 OH	6	0	0	0	57	0	0	0	0	0	63	33	0	0	0	911	0	0	0	0	0	944	0	1	1	3	1	0	6	0	0	0	0	0	0	0	0	0	0	0	0	0	0	0	0	0	0	0	0	0	0	0	0	0	0	0	0	0	16	16	25	0	0	57	0	0	0	0	0	0	0	0	0	0	0	0	0	0	0	0	0	0	0	0	0	0	17	17	28	1	0	63	200	0	30	0	3	0	0	33	0	0	0	0	0	0	0	0	0	0	0	0	0	0	0	0	0	0	0	0	0	0	0	0	0	0	0	0	0	851	51	9	0	0	911	0	0	0	0	0	0	0	0	0	0	0	0	0	0	0	0	0	0	0	0	0	0	881	51	12	0	0	944	3	1	0	1	2	4	0	1	0	1	0	0	0	0		UNACCOUNTED FOR GAS AS A PERCENT OF TOTAL INPUT FOR YEAR ENDING 6/30 <1%	MARK R. RAMSER	7403922941	3/4/2004	3/5/2004		
2003	20030481	UNION ELECTRIC CO	20050	1310 INDUSTRIAL DRIVE	JEFFERSON CITY	COLE	MO	65109						 MO	10	0	0	885	1611	64	55	0	0	0	2625	424	899	0	13188	102285	0	0	0	0	0	116796	0	295	403	163	33	1	895	0	0	30	24	1	0	55	0	0	0	0	0	0	0	0	30	20	13	1	0	64	0	135	11	0	0	0	146	0	965	313	185	2	0	1465	0	0	0	0	0	0	0	0	0	0	0	0	0	0	0	0	0	0	0	0	0	0	1425	777	385	37	1	2625	75	0	8440	6031	39	1	0	14511	0	0	0	0	0	0	0	0	0	0	0	0	0	0	0	0	0	0	0	0	0	0	7343	118	1	0	0	7462	0	91106	3667	46	4	0	94823	0	0	0	0	0	0	0	0	0	0	0	0	0	0	0	0	0	0	0	0	0	0	106889	9816	86	5	0	116796	40	110	23	58	127	329	40	110	61	160	0	0	347	0	3.5		BILL BURNETT	5736817151	3/4/2004	3/5/2004		
2003	20030482	UNION ELECTRIC CO	20050	700 OAKWOOD AVE	ALTON	MADISON	IL	62002						 IL	3	0	0	116	143	31	0	0	0	0	293	51	481	0	4970	12574	0	0	0	0	0	18076	0	49	26	40	4	0	119	0	0	0	0	0	0	0	0	0	0	0	0	0	0	0	0	22	8	1	0	31	0	0	0	0	0	0	0	0	135	5	3	0	0	143	0	0	0	0	0	0	0	0	0	0	0	0	0	0	0	0	0	0	0	0	0	0	184	53	51	5	0	293	61	0	3526	1976	0	0	0	5502	0	0	0	0	0	0	0	0	0	0	0	0	0	0	0	0	0	0	0	0	0	0	0	0	0	0	0	0	0	11831	740	3	0	0	12574	0	0	0	0	0	0	0	0	0	0	0	0	0	0	0	0	0	0	0	0	0	0	15357	2716	3	0	0	18076	3	5	3	1	3	21	0	15	4	4	55	9	103	0	0		JEFFREY HALL	6184634051	3/4/2004	3/5/2004		
2003	20030483	"FRANKLIN GAS DEPT, CITY OF"	5550	114 MAIN  BOX 119	FRANKLIN 	MORGAN	IL	62638						 IL	0	0	0	6	3	0	0	0	0	0	9	0	0	0	222	95	0	0	0	0	0	317	0	3	3	0	0	0	6	0	0	0	0	0	0	0	0	0	0	0	0	0	0	0	0	0	0	0	0	0	0	0	0	0	0	0	0	0	3	0	0	0	0	3	0	0	0	0	0	0	0	0	0	0	0	0	0	0	0	0	0	0	0	0	0	0	6	3	0	0	0	9	60	0	217	3	0	0	0	220	0	0	0	0	0	0	0	0	0	0	0	0	0	0	0	0	0	0	0	0	0	0	0	0	0	0	0	0	0	96	1	0	0	0	97	0	0	0	0	0	0	0	0	0	0	0	0	0	0	0	0	0	0	0	0	0	0	313	4	0	0	0	317	3	2	0	0	0	0	0	0	0	0	0	0	0	0	3	"PART E - GAS LOSS PERCENTAGE IS HIGH DUE TO REPLACEMENT OF 2500 FEED OF 2"" MAIN AND REPLACEMENT OF 28 SERVICE LINES."	JOHN W. WATRET	2176752322	3/4/2004	3/5/2004		
2003	20030484	"SULLIVAN GAS DEPT, CITY OF"	18704	2 W. HARRISON	SULLIVAN 	MOULTRIE	IL	61951						 IL	0	0	0	49	0	0	0	0	0	0	49	0	0	0	2430	4	0	0	0	0	0	2434	0	25	19	5	0	0	49	0	0	0	0	0	0	0	0	0	0	0	0	0	0	0	0	0	0	0	0	0	0	0	0	0	0	0	0	0	0	0	0	0	0	0	0	0	0	0	0	0	0	0	0	0	0	0	0	0	0	0	0	0	0	0	0	0	25	19	5	0	0	49	75	0	2392	33	5	0	0	2430	0	0	0	0	0	0	0	0	0	0	0	0	0	0	0	0	0	0	0	0	0	0	0	0	0	0	0	0	0	4	0	0	0	0	4	0	0	0	0	0	0	0	0	0	0	0	0	0	0	0	0	0	0	0	0	0	0	2396	33	5	0	0	2434	0	0	0	0	0	0	0	2	0	0	0	0	0	0	1.9		SUE SIDES	2177284383	3/4/2004	3/5/2004		
2003	20030485	DADE COUNTY DEPT OF HOUSING & URBAN DEVELOPMENT	3030	"1401 NW 7TH ST, EXEC. OFF"	MIAMI	DADE	FL	33125						 FL	0	0	0	5	0	0	0	0	0	0	5	0	0	0	326	0	0	0	0	0	0	326	0	5	0	0	0	0	5	0	0	0	0	0	0	0	0	0	0	0	0	0	0	0	0	0	0	0	0	0	0	0	0	0	0	0	0	0	0	0	0	0	0	0	0	0	0	0	0	0	0	0	0	0	0	0	0	0	0	0	0	0	0	0	0	0	5	0	0	0	0	5	0	0	326	0	0	0	0	326	0	0	0	0	0	0	0	0	0	0	0	0	0	0	0	0	0	0	0	0	0	0	0	0	0	0	0	0	0	0	0	0	0	0	0	0	0	0	0	0	0	0	0	0	0	0	0	0	0	0	0	0	0	0	0	0	0	326	0	0	0	0	326	0	1	0	0	1	0	0	0	0	0	0	11	0	0	0		MICHAEL GOLDFARB	3056386277	3/4/2004	3/5/2004		
2003	20030486	"MANNFORD MUNICIPAL SYSTEM, TOWN OF"	12096	300 W COONROD	MANNFORD	CREEK	OK	74044						 OK	0	7	0	5	33	0	0	0	0	0	45	770	70	32	0	0	0	0	0	40	0	912	0	3	9	0	0	0	12	0	0	0	0	0	0	0	0	0	0	0	0	0	0	0	0	0	0	0	0	0	0	0	0	0	0	0	0	0	15	18	0	0	0	33	0	0	0	0	0	0	0	0	0	0	0	0	0	0	0	0	0	0	0	0	0	0	18	27	0	0	0	45	3	0	812	30	0	0	0	842	0	0	0	0	0	0	0	0	0	0	0	0	0	0	0	0	0	0	0	0	0	0	0	0	0	0	0	0	0	0	70	0	0	0	70	0	0	0	0	0	0	0	0	0	0	0	0	0	0	0	0	0	0	0	0	0	0	812	100	0	0	0	912	13	5	0	0	1	0	0	0	0	0	0	0	4	0	23		"JOHN ANSON, PUBLIC WORKS DIRECTOR"	9188654314	3/4/2004	3/5/2004		
2003	20030487	EAST CENTRAL OKLAHOMA GAS AUTH	4040	210 N. MAIN	GORE 	SEQUOYAH	OK	74435						 OK	0	0	28	9	0	0	0	0	0	0	37	0	0	480	60	0	0	0	0	0	0	540	0	11	15	0	0	0	26	0	0	0	0	0	0	0	0	0	0	0	0	0	0	0	0	0	0	0	0	0	0	1	3	0	0	0	4	0	2	5	0	0	0	7	0	0	0	0	0	0	0	0	0	0	0	0	0	0	0	0	0	0	0	0	0	0	14	23	0	0	0	37	0	0	470	10	0	0	0	480	0	0	0	0	0	0	0	0	0	0	0	0	0	0	0	0	0	0	0	0	0	0	27	0	0	0	0	27	0	33	0	0	0	0	33	0	0	0	0	0	0	0	0	0	0	0	0	0	0	0	0	0	0	0	0	0	0	530	10	0	0	0	540	0	0	0	14	0	0	0	0	0	0	0	25	0	0	5.3		RICHARD SITTON	9184895592	3/4/2004	3/5/2004		
2003	20030488	"WOODVILLE, CITY OF"	22873	400 W. BLUFF	WOODVILLE	TYLER	TX	75979						 TX	0	0	1	6	34	0	0	0	0	0	41	0	0	0	53	1049	0	0	0	0	0	1102	0	0	7	0	0	0	7	0	0	0	0	0	0	0	0	0	0	0	0	0	0	0	0	0	0	0	0	0	0	0	3	0	0	0	3	0	20	8	3	0	0	31	0	0	0	0	0	0	0	0	0	0	0	0	0	0	0	0	0	0	0	0	0	0	20	18	3	0	0	41	50	0	50	1	2	0	0	53	0	0	0	0	0	0	0	0	0	0	0	0	0	0	0	0	0	0	0	0	0	0	64	0	0	0	0	64	0	982	3	0	0	0	985	0	0	0	0	0	0	0	0	0	0	0	0	0	0	0	0	0	0	0	0	0	0	1096	4	2	0	0	1102	0	2	0	0	0	1	0	0	0	0	0	3	0	0	0		CHARLES R. COMTE	4092832234	3/4/2004	3/8/2004		
2003	20030489	"HILDALE, CITY OF"	31158	PO BOX 840809	HILDALE	WASHINGTON	UT	84784						 UT	0	0	0	23	7	0	0	0	0	0	30	0	0	0	0	102	0	0	0	0	0	102	0	0	0	23	0	0	23	0	0	0	0	0	0	0	0	0	0	0	0	0	0	0	0	0	0	0	0	0	0	0	0	0	0	0	0	0	6	1	0	0	0	7	0	0	0	0	0	0	0	0	0	0	0	0	0	0	0	0	0	0	0	0	0	0	6	1	23	0	0	30	50	0	0	0	0	0	0	0	0	0	0	0	0	0	0	0	0	0	0	0	0	0	0	0	0	0	0	0	0	0	0	0	0	0	0	0	0	99	3	0	0	0	102	0	0	0	0	0	0	0	0	0	0	0	0	0	0	0	0	0	0	0	0	0	0	99	3	0	0	0	102	0	0	0	0	0	1	0	0	0	0	0	0	0	0	0		JUSTIN B. JESSOP	4358741160	3/4/2004	3/8/2004		
2003	20030490	FELT WATER DEVELOPMENT CO	5141	BOX 238	FELT 	CIMARRON	OK	73937						 OK	0	0	0	19	131	0	0	0	0	0	150	0	0	0	0	200	0	0	0	0	0	200	0	4	2	13	0	0	19	0	0	0	0	0	0	0	0	0	0	0	0	0	0	0	0	0	0	0	0	0	0	120	0	11	0	0	131	0	0	0	0	0	0	0	0	0	0	0	0	0	0	0	0	0	0	0	0	0	0	0	0	0	0	0	0	0	124	2	24	0	0	150	300	0	0	0	0	0	0	0	0	0	0	0	0	0	0	0	0	0	0	0	0	0	0	0	0	0	0	0	0	0	0	0	0	200	0	200	0	0	0	0	0	0	0	0	0	0	0	0	0	0	0	0	0	0	0	0	0	0	0	0	0	0	0	0	0	0	0	0	200	0	200	0	0	2	1	0	0	0	0	6	9	1	0	0	0	4		DEANNA FRANCIS	5804262273	3/4/2004	3/8/2004		
2003	20030491	ALBANY MUNICIPAL GAS CO	225	106 E. CLAY STREET	ALBANY	GENTRY	MO	64402						 MO	0	0	0	20	1	0	0	0	0	0	21	0	0	0	685	218	0	0	0	0	0	903	0	14	3	3	0	0	20	0	0	0	0	0	0	0	0	0	0	0	0	0	0	0	0	0	0	0	0	0	0	0	0	0	0	0	0	0	0	1	0	0	0	1	0	0	0	0	0	0	0	0	0	0	0	0	0	0	0	0	0	0	0	0	0	0	14	4	3	0	0	21	60	0	675	10	0	0	0	685	0	0	0	0	0	0	0	0	0	0	0	0	0	0	0	0	0	0	0	0	0	0	0	0	0	0	0	0	0	217	1	0	0	0	218	0	0	0	0	0	0	0	0	0	0	0	0	0	0	0	0	0	0	0	0	0	0	892	11	0	0	0	903	0	0	0	0	0	0	0	0	0	0	0	0	0	0	1		GRAIG GILLESPIE	6607263935	3/4/2004	3/8/2004		
2003	20030492	BERGER CITY NATURAL GAS SYSTEM	1336	112 W. INDUSTRIAL DRIVE	NEW HAVEN	FRANKLIN	MO	63068						 MO	0	0	0	3	0	0	0	0	0	0	3	0	0	0	83	25	0	0	0	0	0	108	0	3	0	0	0	0	3	0	0	0	0	0	0	0	0	0	0	0	0	0	0	0	0	0	0	0	0	0	0	0	0	0	0	0	0	0	0	0	0	0	0	0	0	0	0	0	0	0	0	0	0	0	0	0	0	0	0	0	0	0	0	0	0	0	3	0	0	0	0	3	50	0	83	0	0	0	0	83	0	0	0	0	0	0	0	0	0	0	0	0	0	0	0	0	0	0	0	0	0	0	0	0	0	0	0	0	0	25	0	0	0	0	25	0	0	0	0	0	0	0	0	0	0	0	0	0	0	0	0	0	0	0	0	0	0	108	0	0	0	0	108	0	0	0	0	0	0	0	0	0	0	0	0	0	0	0	UNACCOUNTED FOR GAS AS A PERCENT OF TOTAL INPUT FOR YEAR ENDING 6/30 IS -2.51%	CHRIS KEMPER	5732372616	3/4/2004	3/8/2004		
2003	20030493	"BERNIE MUNICIPAL SYSTEM, CITY OF"	1360	"101 WEST MAIN, PO BOX 605"	BERNIE	STODDARD	MO	63822						 MO	0	0	0	17	11	0	0	0	0	0	28	0	0	0	674	344	0	0	0	0	0	1018	0	10	7	0	0	0	17	0	0	0	0	0	0	0	0	0	0	0	0	0	0	0	0	0	0	0	0	0	0	0	0	0	0	0	0	0	5	6	0	0	0	11	0	0	0	0	0	0	0	0	0	0	0	0	0	0	0	0	0	0	0	0	0	0	15	13	0	0	0	28	53	0	665	9	0	0	0	674	0	0	0	0	0	0	0	0	0	0	0	0	0	0	0	0	0	0	0	0	0	0	0	0	0	0	0	0	0	340	4	0	0	0	344	0	0	0	0	0	0	0	0	0	0	0	0	0	0	0	0	0	0	0	0	0	0	1005	13	0	0	0	1018	0	0	0	0	2	0	0	0	0	0	0	0	0	0	2.77		DEWAYNE R. LINDLEY	5732935318	3/4/2004	3/8/2004		
2003	20030494	BETHANY MUNICIPAL GAS SYSTEM	1400	206 NORTH 16TH STREET	BETHANY 	HARRISON	MO	64424						 MO	0	0	0	7	50	0	0	0	0	0	57	0	0	0	994	706	0	0	0	0	0	1700	0	0	7	0	0	0	7	0	0	0	0	0	0	0	0	0	0	0	0	0	0	0	0	0	0	0	0	0	0	0	0	0	0	0	0	0	31	19	0	0	0	50	0	0	0	0	0	0	0	0	0	0	0	0	0	0	0	0	0	0	0	0	0	0	31	26	0	0	0	57	130	0	955	39	0	0	0	994	0	0	0	0	0	0	0	0	0	0	0	0	0	0	0	0	0	0	0	0	0	0	0	0	0	0	0	0	0	649	57	0	0	0	706	0	0	0	0	0	0	0	0	0	0	0	0	0	0	0	0	0	0	0	0	0	0	1604	96	0	0	0	1700	0	0	0	0	2	0	0	0	0	0	0	0	0	0		UNACCOUNTED FOR GAS AS A PERCENT OF TOTAL INPUT FOR YEAR  ENDING 6/30 IS -0.03	GARY W. WOOD	6604252116	3/4/2004	3/8/2004		
2003	20030495	"CLARENCE, CITY OF"	2452	"100 W. MAPLE,  P.O. BOX 9"	CLARENCE 	SHELBY	MO	63437						 MO	0	0	0	8	15	0	0	0	0	0	23	0	0	0	0	430	0	0	0	0	0	430	0	0	8	0	0	0	8	0	0	0	0	0	0	0	0	0	0	0	0	0	0	0	0	0	0	0	0	0	0	8	0	0	0	0	8	0	6	1	0	0	0	7	0	0	0	0	0	0	0	0	0	0	0	0	0	0	0	0	0	0	0	0	0	0	14	9	0	0	0	23	80	0	0	0	0	0	0	0	0	0	0	0	0	0	0	0	0	0	0	0	0	0	0	0	0	0	0	0	0	0	264	6	0	0	0	270	0	155	5	0	0	0	160	0	0	0	0	0	0	0	0	0	0	0	0	0	0	0	0	0	0	0	0	0	0	419	11	0	0	0	430	0	0	0	0	0	0	0	0	0	0	0	0	0	0	4.6		AMOS HOCHSTETLYR	6606992770	3/4/2004	3/8/2004		
2003	20030496	"CUBA, CITY OF, GAS DEPARTMENT"	30046	PO BOX K 202 N. SMITH ST.	CUBA	CRAWFORD	MO	65453						 MO	0	0	0	0	54	0	0	0	0	0	54	0	0	0	0	1159	0	0	0	0	0	1159	0	0	0	0	0	0	0	0	0	0	0	0	0	0	0	0	0	0	0	0	0	0	0	0	0	0	0	0	0	0	0	0	0	0	0	0	36	15	3	0	0	54	0	0	0	0	0	0	0	0	0	0	0	0	0	0	0	0	0	0	0	0	0	0	36	15	3	0	0	54	85	0	0	0	0	0	0	0	0	0	0	0	0	0	0	0	0	0	0	0	0	0	0	0	0	0	0	0	0	0	0	0	0	0	0	0	0	1124	34	1	0	0	1159	0	0	0	0	0	0	0	0	0	0	0	0	0	0	0	0	0	0	0	0	0	0	1124	34	1	0	0	1159	0	0	0	0	0	3	0	0	0	0	0	0	0	0	0.001	THIRT PARTY JULY 19TH 1.  THREE QUATER INCH P.E. SERVICE LINE WAS DUG INTO BY A BACKHOE AND WAS RUPTURED.                                                    SERVICE LINE HAD BEEN MARKED.  NO LOCATE CALLED.    AUGUST 6TH:  THREE QUATER INCH P.E. SERVICE LINE WAS GUD INTO BY A CONTRACTORS BACKHOE AND RUPTURED SERVICE LINE.  SERVICE LINE HAD BEEN MARKED AND WAS RIGHT ON LINE.    AUGUST 13TH:  TWO INCH P.E. SERVICE LINE WAS DUG INTO BY A CONTRACTOR BACKHOE AND RUPTURED THE SERVICE LINE.	GARY ENGELMEIER	5738856453	3/4/2004	3/8/2004		
2003	20030497	"FIDELITY NATURAL GAS, INC."	923	64 N. CLARK ST	SULIVAN		MO	63080						 MO	0	0	0	4	47	0	0	0	0	0	51	0	0	0	0	1492	0	0	0	0	0	1492	0	0	0	1	3	0	4	0	0	0	0	0	0	0	0	0	0	0	0	0	0	0	0	0	0	0	0	0	0	0	0	0	0	0	0	0	31	11	5	0	0	47	0	0	0	0	0	0	0	0	0	0	0	0	0	0	0	0	0	0	0	0	0	0	31	11	6	3	0	51	70	0	0	0	0	0	0	0	0	0	0	0	0	0	0	0	0	0	0	0	0	0	0	0	0	0	0	0	0	0	0	0	0	0	0	0	0	1457	34	1	0	0	1492	0	0	0	0	0	0	0	0	0	0	0	0	0	0	0	0	0	0	0	0	0	0	1457	34	1	0	0	1492	0	0	0	0	1	5	0	0	0	0	0	0	0	0	0.32		GALE SCHMIDT	5734681236	3/4/2004	3/8/2004		
2003	20030498	"FULTON, CITY OF"	5670	1024 WESTMINSTER AVE	FULTON	CALLAWAY	MO	65251	18 EAST 4TH STREET	FULTON	CALLAWAY	MO	65251	 MO	0	0	0	4	81	0	4	0	0	0	89	0	0	0	18	3346	0	0	385	0	0	3749	0	1	0	3	0	0	4	0	0	2	2	0	0	4	0	0	0	0	0	0	0	0	0	0	0	0	0	0	0	0	0	0	0	0	0	0	21	38	22	0	0	81	0	0	0	0	0	0	0	0	0	0	0	0	0	0	0	0	0	0	0	0	0	0	22	40	27	0	0	89	70	0	17	0	1	0	0	18	0	0	0	0	0	0	0	0	385	0	0	0	0	385	0	0	0	0	0	0	0	0	0	0	0	0	0	0	0	3257	80	8	1	0	3346	0	0	0	0	0	0	0	0	0	0	0	0	0	0	0	0	0	0	0	0	0	0	3659	80	9	1	0	3749	0	0	1	1	2	1	0	2	0	8	5	41	0	0	0		DALE TATE	5735923175	3/4/2004	3/8/2004		
2003	20030499	"GALLATIN, CITY OF"	30874	112 E GRAND ST	GALLATIN	DAULESS	MO	64690						 MO	0	0	0	46	32	0	0	0	0	0	78	0	0	0	3	573	0	0	0	0	0	576	0	0	0	46	0	0	46	0	0	0	0	0	0	0	0	0	0	0	0	0	0	0	0	0	0	0	0	0	0	0	0	0	0	0	0	0	25	7	0	0	0	32	0	0	0	0	0	0	0	0	0	0	0	0	0	0	0	0	0	0	0	0	0	0	25	7	46	0	0	78	60	0	3	0	0	0	0	3	0	0	0	0	0	0	0	0	0	0	0	0	0	0	0	0	0	0	0	0	0	0	0	0	0	0	0	0	0	573	0	0	0	0	573	0	0	0	0	0	0	0	0	0	0	0	0	0	0	0	0	0	0	0	0	0	0	576	0	0	0	0	576	0	0	0	0	1	2	0	0	0	0	0	0	0	0	0		KENNETH KING	6606633331	3/4/2004	3/8/2004		
2003	20030500	"GRANBY GAS, CITY OF"	6490	302 NORTH MAIN STREET/ PO	GRANBY	NEWTON	MO	64844						 MO	0	0	7	27	0	0	0	0	0	0	34	0	0	50	903	0	0	0	0	0	0	953	0	2	5	0	0	0	7	0	0	0	0	0	0	0	0	0	0	0	0	0	0	0	0	0	0	0	0	0	0	0	0	0	0	0	0	0	21	6	0	0	0	27	0	0	0	0	0	0	0	0	0	0	0	0	0	0	0	0	0	0	0	0	0	0	23	11	0	0	0	34	100	0	50	0	0	0	0	50	0	0	0	0	0	0	0	0	0	0	0	0	0	0	0	0	0	0	0	0	0	0	0	0	0	0	0	0	0	902	1	0	0	0	903	0	0	0	0	0	0	0	0	0	0	0	0	0	0	0	0	0	0	0	0	0	0	952	1	0	0	0	953	0	0	0	0	0	0	0	0	0	0	0	0	0	0	0.96		JO ANN LAMP	4174726556	3/4/2004	3/8/2004		
2003	20030501	GRANT CITY GAS CO	6590	101 W THIRD STREET/ PO BO	GRANT CITY	WORTH	MO	64456						 MO	0	0	0	20	1	0	0	0	0	0	21	0	0	0	437	36	0	0	0	0	0	473	0	16	3	1	0	0	20	0	0	0	0	0	0	0	0	0	0	0	0	0	0	0	0	0	0	0	0	0	0	0	0	0	0	0	0	0	1	0	0	0	0	1	0	0	0	0	0	0	0	0	0	0	0	0	0	0	0	0	0	0	0	0	0	0	17	3	1	0	0	21	80	0	437	0	0	0	0	437	0	0	0	0	0	0	0	0	0	0	0	0	0	0	0	0	0	0	0	0	0	0	0	0	0	0	0	0	0	36	0	0	0	0	36	0	0	0	0	0	0	0	0	0	0	0	0	0	0	0	0	0	0	0	0	0	0	473	0	0	0	0	473	0	0	0	0	0	0	0	0	0	15	0	0	0	0	1		GUY FLETCHALL / ZELLA ORENDORFF	6605643369	3/4/2004	3/8/2004		
2003	20030502	GREEN CITY MUNICIPAL NATURAL GAS SYSTEM	6740	1717 MAIN ST PO BOX 206	UNIONVILLE	PUTNAM	MO	63565	PO BOX 206	UNIONVILLE		MO	63565	 MO	0	0	0	13	0	0	0	0	0	0	13	0	0	0	185	88	0	0	0	0	0	273	0	13	0	0	0	0	13	0	0	0	0	0	0	0	0	0	0	0	0	0	0	0	0	0	0	0	0	0	0	0	0	0	0	0	0	0	0	0	0	0	0	0	0	0	0	0	0	0	0	0	0	0	0	0	0	0	0	0	0	0	0	0	0	0	13	0	0	0	0	13	60	0	185	0	0	0	0	185	0	0	0	0	0	0	0	0	0	0	0	0	0	0	0	0	0	0	0	0	0	0	0	0	0	0	0	0	0	88	0	0	0	0	88	0	0	0	0	0	0	0	0	0	0	0	0	0	0	0	0	0	0	0	0	0	0	273	0	0	0	0	273	0	0	0	0	0	1	0	0	0	2	0	0	0	0	0		LINDA VALENTINE	6609473316	3/4/2004	3/8/2004		
2003	20030503	"HAMILTON GAS DEPT, CITY OF"	7040	200 S. DAVIS	HAMILTON 	CALDWELL	MO	64644						 MO	0	0	0	14	13	0	0	0	0	0	27	0	0	0	0	312	0	0	0	0	0	312	0	0	14	0	0	0	14	0	0	0	0	0	0	0	0	0	0	0	0	0	0	0	0	0	0	0	0	0	0	0	0	0	0	0	0	0	11	2	0	0	0	13	0	0	0	0	0	0	0	0	0	0	0	0	0	0	0	0	0	0	0	0	0	0	11	16	0	0	0	27	80	0	0	0	0	0	0	0	0	0	0	0	0	0	0	0	0	0	0	0	0	0	0	0	0	0	0	0	0	0	0	0	0	0	0	0	0	312	0	0	0	0	312	0	0	0	0	0	0	0	0	0	0	0	0	0	0	0	0	0	0	0	0	0	0	312	0	0	0	0	312	0	0	0	0	0	0	0	0	0	0	0	0	0	0	0	"THERE ARE 6 FALM TAPS COMING OFF 4"" STEEL MAIN OR FEEDER LINE ALONG MO STATE HWY 13 BETWEEN HAMILTON, MO AND GALLATIN, MO.  3 LESS SERVICE LINES IN SYSTEM WERE REMOVED AND DOCUMENTED."	RONALD K POLLAND	8165834911	3/4/2004	3/8/2004		
2003	20030504	HERMANN CITY NATURAL GAS SYSTEM	7240	207 SCHILLER	HERMAN	GASCONADE	MO	65041						 MO	0	0	0	63	3	0	0	0	0	0	66	0	0	0	584	405	0	0	0	0	0	989	0	12	2	49	0	0	63	0	0	0	0	0	0	0	0	0	0	0	0	0	0	0	0	0	0	0	0	0	0	0	0	0	0	0	0	0	1	2	0	0	0	3	0	0	0	0	0	0	0	0	0	0	0	0	0	0	0	0	0	0	0	0	0	0	13	4	49	0	0	66	69	0	572	12	0	0	0	584	0	0	0	0	0	0	0	0	0	0	0	0	0	0	0	0	0	0	0	0	0	0	0	0	0	0	0	0	0	401	4	0	0	0	405	0	0	0	0	0	0	0	0	0	0	0	0	0	0	0	0	0	0	0	0	0	0	973	16	0	0	0	989	0	0	0	0	0	0	0	0	0	0	0	0	0	0	0		KATHY R. HEBERLE	5734864500	3/4/2004	3/8/2004		
2003	20030505	KENNETT MUNICIPAL GAS SYSTEM	10156	P. O. BOX 40	KENNETT 	DUNKLIN	MO	63857						 MO	0	0	0	80	6	0	0	0	0	0	86	0	0	0	3823	773	0	0	0	0	0	4596	0	53	7	20	0	0	80	0	0	0	0	0	0	0	0	0	0	0	0	0	0	0	0	0	0	0	0	0	0	0	0	0	0	0	0	0	6	0	0	0	0	6	0	0	0	0	0	0	0	0	0	0	0	0	0	0	0	0	0	0	0	0	0	0	59	7	20	0	0	86	50	0	3704	80	7	0	0	3791	0	0	0	0	0	0	0	0	0	0	0	0	0	0	0	0	0	0	0	0	0	0	32	0	0	0	0	32	0	764	9	0	0	0	773	0	0	0	0	0	0	0	0	0	0	0	0	0	0	0	0	0	0	0	0	0	0	4500	89	7	0	0	4596	0	0	0	0	0	1	2	1	0	0	3	9	34	0	0.2		RON WALKER	5738885366	3/4/2004	3/8/2004		
2003	20030506	LACLEDE GAS CO	11032	3950 FOREST PARK AVENUE	ST. LOUIS		MO	63108	720 OLIVE STREET	ST. LOUIS		MO	63101	 MO	23	0	25	4067	3020	898	0	2	0	0	8035	9945	0	0	129615	323844	0	0	125755	0	0	589159	0	2566	524	912	82	31	4115	0	0	0	0	0	0	0	0	2	0	0	0	0	2	0	0	301	397	139	61	898	0	0	0	0	0	0	0	0	2319	609	92	0	0	3020	0	0	0	0	0	0	0	0	0	0	0	0	0	0	0	0	0	0	0	0	0	0	4887	1434	1401	221	92	8035	67	0	114987	22985	1462	123	3	139560	0	0	0	0	0	0	0	0	125328	427	0	0	0	125755	0	0	0	0	0	0	0	0	0	0	0	0	0	0	0	313475	9882	476	11	0	323844	0	0	0	0	0	0	0	0	0	0	0	0	0	0	0	0	0	0	0	0	0	0	553790	33294	1938	134	3	589159	315	2166	110	0	225	1029	9	55	117	630	170	825	1829	0	2.8		MARK D. LAUBER	3146585413	3/4/2004	3/8/2004		
2003	20030507	LIBERAL MUNICIPAL GAS SYSTEM	11468	1717 MAIN ST. P.O BOX 206	UNIONVILLE	PUTNAM	MO	63565	P.O. BOX 206	UNIONVILLE		MO	63565	 MO	0	0	0	11	0	0	0	0	0	0	11	0	0	0	336	3	0	0	0	0	0	339	0	3	8	0	0	0	11	0	0	0	0	0	0	0	0	0	0	0	0	0	0	0	0	0	0	0	0	0	0	0	0	0	0	0	0	0	0	0	0	0	0	0	0	0	0	0	0	0	0	0	0	0	0	0	0	0	0	0	0	0	0	0	0	0	3	8	0	0	0	11	60	0	336	0	0	0	0	336	0	0	0	0	0	0	0	0	0	0	0	0	0	0	0	0	0	0	0	0	0	0	0	0	0	0	0	0	0	3	0	0	0	0	3	0	0	0	0	0	0	0	0	0	0	0	0	0	0	0	0	0	0	0	0	0	0	339	0	0	0	0	339	0	0	0	1	0	0	0	0	0	8	0	0	0	0	0		LINDA VALENTINE	6609473316	3/4/2004	3/8/2004		
2003	20030508	"MACON GAS DEPT MUNICIPAL UTILITIES, CITY OF"	12006	106 W. BOURKE P O BOX 569	MACON 	MACON	MO	63552						 MO	0	0	0	81	28	0	0	0	0	0	109	0	0	0	470	1710	0	0	0	0	48	2228	0	5	18	58	0	0	81	0	0	0	0	0	0	0	0	0	0	0	0	0	0	0	0	0	0	0	0	0	0	1	0	0	0	0	1	0	14	12	1	0	0	27	0	0	0	0	0	0	0	0	0	0	0	0	0	0	0	0	0	0	0	0	0	0	20	30	59	0	0	109	76	0	379	87	2	2	0	470	0	0	0	0	0	0	0	0	0	0	0	0	0	0	0	0	0	0	0	0	0	0	25	0	0	0	0	25	0	1659	26	0	0	0	1685	0	0	0	0	0	0	0	0	0	0	0	0	0	0	0	0	0	0	0	0	0	48	2063	113	2	2	0	2228	0	1	0	2	5	10	0	2	0	0	1	0	0	0	0	"ELEVATED THIRD PARTY DAMAGES TO MAINS AND SERVICES WERE DUE TO CONTRACTORS WORKING THROUGHOUT DISTRIBUTION SYSTEM, INSTALLING NEW FIBER OPTIC COMMUNICATIONS SYSTEM."	KEITH CARTER	6603852183	3/4/2004	3/8/2004		
2003	20030509	"MADISON GAS DEPT, CITY OF"	12012	209 S. MAIN	MADISON	MAONROE	MO	65263						 MO	0	0	0	11	6	0	0	0	0	0	17	0	0	0	21	297	0	0	0	0	0	318	0	0	11	0	0	0	11	0	0	0	0	0	0	0	0	0	0	0	0	0	0	0	0	0	0	0	0	0	0	5	0	0	0	0	5	0	1	0	0	0	0	1	0	0	0	0	0	0	0	0	0	0	0	0	0	0	0	0	0	0	0	0	0	0	6	11	0	0	0	17	75	0	18	3	0	0	0	21	0	0	0	0	0	0	0	0	0	0	0	0	0	0	0	0	0	0	0	0	0	0	233	1	0	0	0	234	0	63	0	0	0	0	63	0	0	0	0	0	0	0	0	0	0	0	0	0	0	0	0	0	0	0	0	0	0	314	4	0	0	0	318	0	0	0	0	0	0	0	0	0	0	0	1	0	0	0.1		RANDY HENDREN	6602915805	3/4/2004	3/8/2004		
2003	20030510	MERCER MUNICIPAL NATURAL GAS SYSTEM	12372	1717 MAIN ST. P.O BOX 206	UNIONVILLE	PUTNAM	MO	63565	P.O. BOX 206	UNIONVILLE		MO	63565	 MO	0	0	0	3	0	0	0	0	0	0	3	0	0	0	90	82	0	0	0	0	0	172	0	2	1	0	0	0	3	0	0	0	0	0	0	0	0	0	0	0	0	0	0	0	0	0	0	0	0	0	0	0	0	0	0	0	0	0	0	0	0	0	0	0	0	0	0	0	0	0	0	0	0	0	0	0	0	0	0	0	0	0	0	0	0	0	2	1	0	0	0	3	60	0	90	0	0	0	0	90	0	0	0	0	0	0	0	0	0	0	0	0	0	0	0	0	0	0	0	0	0	0	0	0	0	0	0	0	0	82	0	0	0	0	82	0	0	0	0	0	0	0	0	0	0	0	0	0	0	0	0	0	0	0	0	0	0	172	0	0	0	0	172	0	0	0	0	0	0	0	0	0	0	0	0	0	0	0		LINDA VALENTINE	6609473316	3/4/2004	3/8/2004		
2003	20030511	MIDDLETOWN CITY NATURAL GAS SYSTEM	12450	207 SCHILLER	HERMANN	GASCONADE	MO	65041		MIDDLETOWN 	MONTGOMERY	MO	63359	 MO	0	0	0	3	0	0	0	0	0	0	3	0	0	0	126	29	0	0	0	0	0	155	0	3	0	0	0	0	3	0	0	0	0	0	0	0	0	0	0	0	0	0	0	0	0	0	0	0	0	0	0	0	0	0	0	0	0	0	0	0	0	0	0	0	0	0	0	0	0	0	0	0	0	0	0	0	0	0	0	0	0	0	0	0	0	0	3	0	0	0	0	3	50	0	126	0	0	0	0	126	0	0	0	0	0	0	0	0	0	0	0	0	0	0	0	0	0	0	0	0	0	0	0	0	0	0	0	0	0	29	0	0	0	0	29	0	0	0	0	0	0	0	0	0	0	0	0	0	0	0	0	0	0	0	0	0	0	155	0	0	0	0	155	0	0	0	0	0	0	0	0	0	0	0	0	0	0	0.9		KATHY R. HEBERLE	5734864500	3/4/2004	3/8/2004		
2003	20030512	MILAN MUNICIPAL NATURAL GAS SYSTEM	12504	1717 MAIN ST. PO BOX 206	UNIONVILLE	PUTNAM	MO	63565	P.O. BOX 206	UNIONVILLE		MO	63565	 MO	0	0	0	46	2	0	0	0	0	0	48	0	0	0	620	286	0	0	0	0	0	906	0	10	36	0	0	0	46	0	0	0	0	0	0	0	0	0	0	0	0	0	0	0	0	0	0	0	0	0	0	0	0	0	0	0	0	0	1	0	1	0	0	2	0	0	0	0	0	0	0	0	0	0	0	0	0	0	0	0	0	0	0	0	0	0	11	36	1	0	0	48	60	0	614	4	2	0	0	620	0	0	0	0	0	0	0	0	0	0	0	0	0	0	0	0	0	0	0	0	0	0	0	0	0	0	0	0	0	283	2	0	1	0	286	0	0	0	0	0	0	0	0	0	0	0	0	0	0	0	0	0	0	0	0	0	0	897	6	2	1	0	906	0	0	0	0	0	1	0	0	0	7	0	2	0	0	8		LINDA VALENTINE	6609473316	3/4/2004	3/8/2004		
2003	20030513	MISSOURI GAS ENERGY	30769	3420 BRAODWAY	KANSAS CITY		MO	64111	ONE PEI CENTER- CORPORATE	WILKES-BARRE		PA	18711	 MO	0	0	1250	3617	2747	391	0	1	0	0	8006	22105	15928	999	19078	413735	0	0	2113	0	0	473958	0	1992	1666	818	245	146	4867	0	0	0	0	0	0	0	0	1	0	0	0	0	1	0	0	118	193	61	19	391	0	0	0	0	0	0	0	0	1787	859	95	5	1	2747	0	0	0	0	0	0	0	0	0	0	0	0	0	0	0	0	0	0	0	0	0	0	3780	2643	1106	311	166	8006	55	0	18940	38406	645	93	26	58110	0	0	0	0	0	0	0	0	1709	404	0	0	0	2113	0	0	0	0	0	0	0	0	14	0	0	0	0	14	0	387243	26304	125	47	2	413721	0	0	0	0	0	0	0	0	0	0	0	0	0	0	0	0	0	0	0	0	0	0	407906	65114	770	140	28	473958	228	299	6	26	278	802	10	7	15	16	2366	1173	3427	0	1.8		DEBORAH C. INGOLIA	8163605647	3/4/2004	3/8/2004		
2003	20030514	MONROE CITY MUNICIPAL GAS SYSTEMS	12666	100 SOUTH MONROE STREET	MONROE CITY	MONROE	MO	63456	PO BOX 67	MONROE CITY	MONROE	MO	63456	 MO	0	0	0	53	2	0	0	0	0	0	55	0	0	0	0	1051	234	0	0	0	0	1285	0	17	3	29	0	0	49	0	0	0	0	0	0	0	0	0	0	0	0	0	0	0	0	0	0	0	0	0	0	0	0	0	0	0	0	0	3	2	1	0	0	6	0	0	0	0	0	0	0	0	0	0	0	0	0	0	0	0	0	0	0	0	0	0	20	5	30	0	0	55	80	0	1038	12	1	0	0	1051	0	0	0	0	0	0	0	0	0	0	0	0	0	0	0	0	0	0	0	0	0	0	0	0	0	0	0	0	0	225	7	2	0	0	234	0	0	0	0	0	0	0	0	0	0	0	0	0	0	0	0	0	0	0	0	0	0	1263	19	3	0	0	1285	0	0	0	0	0	2	0	0	0	0	0	0	0	0	3		TERRY OSBORN	5737352486	3/4/2004	3/8/2004		
2003	20030516	NEW FLORENCE NATURAL GAS SYSTEM	13260	"217 S. MAIN, PO BOX 70"	NEW FLORENCE 		MO	63363						 MO	0	0	0	5	4	0	0	0	0	0	9	0	0	0	189	96	0	0	0	0	0	285	0	5	0	0	0	0	5	0	0	0	0	0	0	0	0	0	0	0	0	0	0	0	0	0	0	0	0	0	0	0	0	0	0	0	0	0	1	3	0	0	0	4	0	0	0	0	0	0	0	0	0	0	0	0	0	0	0	0	0	0	0	0	0	0	6	3	0	0	0	9	35	0	185	0	0	0	0	185	0	0	0	0	0	0	0	0	0	0	0	0	0	0	0	0	0	0	0	0	0	0	0	0	0	0	0	0	0	96	4	0	0	0	100	0	0	0	0	0	0	0	0	0	0	0	0	0	0	0	0	0	0	0	0	0	0	281	4	0	0	0	285	0	2	0	0	0	1	0	0	0	3	0	0	0	0	2		GLEN DAVIS	5738352106	3/4/2004	3/8/2004		
2003	20030517	NEW HAVEN CITY NATURAL GAS SYSTEM	13290	112 W INDUSTRIAL DRIVE	NEW HAVEN	FRANKLIN	MO	63068		NEW HAVEN	FRANKLIN	MO	63068	 MO	0	0	0	22	10	0	0	0	0	0	32	0	0	0	416	226	0	0	0	0	0	642	0	6	16	0	0	0	22	0	0	0	0	0	0	0	0	0	0	0	0	0	0	0	0	0	0	0	0	0	0	0	0	0	0	0	0	0	8	2	0	0	0	10	0	0	0	0	0	0	0	0	0	0	0	0	0	0	0	0	0	0	0	0	0	0	14	18	0	0	0	32	65	0	412	3	1	0	0	416	0	0	0	0	0	0	0	0	0	0	0	0	0	0	0	0	0	0	0	0	0	0	0	0	0	0	0	0	0	223	3	0	0	0	226	0	0	0	0	0	0	0	0	0	0	0	0	0	0	0	0	0	0	0	0	0	0	635	6	1	0	0	642	0	0	0	0	0	2	0	0	0	0	0	0	0	0		UNACCOUNTED FOR GAS AS A PERCENT F TOTAL INPUT FOR YEAR ENDING 6/30 IS -2.95%.	CHRIS KEMPER	5732372616	3/4/2004	3/8/2004		
2003	20030518	OMEGA PIPELINE CO	926	110 ALGANA COURT	ST PETERS	SAINT CHARLES	MO	63376						 MO	0	0	0	11	37	0	0	0	0	0	48	0	0	0	37	1253	0	0	0	0	0	1290	0	0	1	8	2	0	11	0	0	0	0	0	0	0	0	0	0	0	0	0	0	0	0	0	0	0	0	0	0	0	0	0	0	0	0	0	18	13	6	0	0	37	0	0	0	0	0	0	0	0	0	0	0	0	0	0	0	0	0	0	0	0	0	0	18	14	14	2	0	48	30	0	1	34	2	0	0	37	0	0	0	0	0	0	0	0	0	0	0	0	0	0	0	0	0	0	0	0	0	0	0	0	0	0	0	0	0	866	386	1	0	0	1253	0	0	0	0	0	0	0	0	0	0	0	0	0	0	0	0	0	0	0	0	0	0	867	420	3	0	0	1290	0	0	0	0	0	2	0	0	0	0	0	0	0	2	0	"3RD PARTY CONTRACTOR 2 SERVICE LINES, BOTH REPAIRED WITHOUT INCIDENT."	DAVID R. WALLEN	6369263668	3/4/2004	3/8/2004		
2003	20030519	"PARIS GAS SYSTEM, CITY OF"	15119	124 W. CALDWELL	PARIS 	MONROE	MO	65275						 MO	0	0	0	40	4	0	0	0	0	0	44	0	0	0	418	229	0	0	0	0	0	647	0	15	25	0	0	0	40	0	0	0	0	0	0	0	0	0	0	0	0	0	0	0	0	0	0	0	0	0	0	0	0	0	0	0	0	0	3	1	0	0	0	4	0	0	0	0	0	0	0	0	0	0	0	0	0	0	0	0	0	0	0	0	0	0	18	26	0	0	0	44	80	0	417	0	1	0	0	418	0	0	0	0	0	0	0	0	0	0	0	0	0	0	0	0	0	0	0	0	0	0	0	0	0	0	0	0	0	222	7	0	0	0	229	0	0	0	0	0	0	0	0	0	0	0	0	0	0	0	0	0	0	0	0	0	0	639	7	1	0	0	647	0	2	0	0	0	3	0	0	0	0	1	2	0	0	0		DARRIN DEORNELLIS	6603274334	3/4/2004	3/8/2004		
2003	20030520	PERRY MUNICIPAL GAS SYSTEM	15392	127 E. MAIN ST.	PERRY 	RALLS	MO	63462						 MO	0	0	0	7	1	0	0	0	0	0	8	0	0	0	451	28	0	0	0	0	0	479	0	6	1	0	0	0	7	0	0	0	0	0	0	0	0	0	0	0	0	0	0	0	0	0	0	0	0	0	0	0	0	0	0	0	0	0	0	1	0	0	0	1	0	0	0	0	0	0	0	0	0	0	0	0	0	0	0	0	0	0	0	0	0	0	6	2	0	0	0	8	75	0	438	13	0	0	0	451	0	0	0	0	0	0	0	0	0	0	0	0	0	0	0	0	0	0	0	0	0	0	0	0	0	0	0	0	0	25	3	0	0	0	28	0	0	0	0	0	0	0	0	0	0	0	0	0	0	0	0	0	0	0	0	0	0	463	16	0	0	0	479	0	0	0	0	0	0	0	0	0	0	2	3	0	0	0		DON HUFF	5735653131	3/4/2004	3/8/2004		
2003	20030521	"PERRYVILLE MUNICIPAL SYSTEM, CITY OF"	15413	120 NORTH JACKSON STREET	PERRYVLILE	PERRY	MO	63775						 MO	0	0	0	37	44	0	0	0	0	0	81	0	0	0	2842	624	0	0	0	0	0	3466	0	3	7	27	0	0	37	0	0	0	0	0	0	0	0	0	0	0	0	0	0	0	0	0	0	0	0	0	0	0	0	0	0	0	0	0	26	14	4	0	0	44	0	0	0	0	0	0	0	0	0	0	0	0	0	0	0	0	0	0	0	0	0	0	29	21	31	0	0	81	750	0	2824	17	1	0	0	2842	0	0	0	0	0	0	0	0	0	0	0	0	0	0	0	0	0	0	0	0	0	0	0	0	0	0	0	0	0	609	15	0	0	0	624	0	0	0	0	0	0	0	0	0	0	0	0	0	0	0	0	0	0	0	0	0	0	3433	32	1	0	0	3466	0	2	0	0	0	1	0	0	0	52	0	0	0	0	0		BHMG ENGINEERS INC	6362968600	3/4/2004	3/8/2004		
2003	20030522	PLATTSBURG GAS DEPT	15686	114 MAPLE STREET	PLATTSBURG	CLINTON	MO	64477						 MO	0	0	0	31	27	0	0	0	0	0	58	0	0	0	285	939	0	0	0	0	0	1224	0	4	11	16	0	0	31	0	0	0	0	0	0	0	0	0	0	0	0	0	0	0	0	0	0	0	0	0	0	0	0	0	0	0	0	0	19	8	0	0	0	27	0	0	0	0	0	0	0	0	0	0	0	0	0	0	0	0	0	0	0	0	0	0	23	19	16	0	0	58	40	0	275	10	0	0	0	285	0	0	0	0	0	0	0	0	0	0	0	0	0	0	0	0	0	0	0	0	0	0	0	0	0	0	0	0	0	931	8	0	0	0	939	0	0	0	0	0	0	0	0	0	0	0	0	0	0	0	0	0	0	0	0	0	0	1206	18	0	0	0	1224	0	0	0	0	2	1	0	1	1	0	0	0	0	0	6.7		TOM EADS	8165392341	3/4/2004	3/8/2004		
2003	20030523	PRINCETON MUNICIPAL NATURAL GAS SYSTEM	15861	1717 MAIN ST PO BOX 206	UNIONVILLE	PUTNAM	MO	63565	P.O. BOX 206	UNIONVILLE		MO	63565	 MO	0	0	0	22	0	0	0	0	0	0	22	0	0	0	402	221	0	0	0	0	0	623	0	8	14	0	0	0	22	0	0	0	0	0	0	0	0	0	0	0	0	0	0	0	0	0	0	0	0	0	0	0	0	0	0	0	0	0	0	0	0	0	0	0	0	0	0	0	0	0	0	0	0	0	0	0	0	0	0	0	0	0	0	0	0	0	8	14	0	0	0	22	60	0	394	8	0	0	0	402	0	0	0	0	0	0	0	0	0	0	0	0	0	0	0	0	0	0	0	0	0	0	0	0	0	0	0	0	0	218	3	0	0	0	221	0	0	0	0	0	0	0	0	0	0	0	0	0	0	0	0	0	0	0	0	0	0	612	11	0	0	0	623	0	0	0	0	0	0	0	0	0	4	0	0	0	0	1		LINDA VALENTINE	6609473316	3/4/2004	3/8/2004		
2003	20030524	"RICHLAND, CITY OF"	30996	204 E WASHINGTON AVENUE	RICHLAND	PULASKI	MO	65556						 MO	0	0	0	12	17	0	0	0	0	0	29	0	0	0	14	724	0	0	0	0	0	738	0	0	12	0	0	0	12	0	0	0	0	0	0	0	0	0	0	0	0	0	0	0	0	0	0	0	0	0	0	0	0	0	0	0	0	0	13	4	0	0	0	17	0	0	0	0	0	0	0	0	0	0	0	0	0	0	0	0	0	0	0	0	0	0	13	16	0	0	0	29	104	0	14	0	0	0	0	14	0	0	0	0	0	0	0	0	0	0	0	0	0	0	0	0	0	0	0	0	0	0	0	0	0	0	0	0	0	724	0	0	0	0	724	0	0	0	0	0	0	0	0	0	0	0	0	0	0	0	0	0	0	0	0	0	0	738	0	0	0	0	738	0	0	0	0	0	0	0	0	0	0	0	0	0	0	0		DONALD WEISEDEL	5737653694	3/4/2004	3/8/2004		
2003	20030525	"SHELBINA GAS DEPT, CITY OF"	18256	116 E. WALNUT	SHELBINA	SHELBY	MO	63468						 MO	0	0	0	45	28	0	0	0	0	0	73	0	0	0	96	836	0	0	0	0	0	932	0	0	0	45	0	0	45	0	0	0	0	0	0	0	0	0	0	0	0	0	0	0	0	0	0	0	0	0	0	21	1	0	0	0	22	0	0	6	0	0	0	6	0	0	0	0	0	0	0	0	0	0	0	0	0	0	0	0	0	0	0	0	0	0	21	7	45	0	0	73	60	0	96	0	0	0	0	96	0	0	0	0	0	0	0	0	0	0	0	0	0	0	0	0	0	0	0	0	0	0	530	16	0	0	0	546	0	290	0	0	0	0	290	0	0	0	0	0	0	0	0	0	0	0	0	0	0	0	0	0	0	0	0	0	0	916	16	0	0	0	932	0	0	0	0	0	0	0	0	1	0	0	0	1	0	2.3		ALLEN BOWLING	5735884104	3/4/2004	3/8/2004		
2003	20030526	"SOUTHERN MISSOURI GAS COMPANY, L.P."	30992	301 E. 17TH STREET	MOUNTAIN GROVE	WRIGHT	MO	65711	P.O. BOX 847	MOUNTAIN GROVE	WRIGHT	MO	65711	 MO	0	0	0	0	329	0	0	0	0	0	329	0	0	0	0	10104	0	0	0	0	0	10104	0	0	0	0	0	0	0	0	0	0	0	0	0	0	0	0	0	0	0	0	0	0	0	0	0	0	0	0	0	0	0	0	0	0	0	0	269	40	20	0	0	329	0	0	0	0	0	0	0	0	0	0	0	0	0	0	0	0	0	0	0	0	0	0	269	40	20	0	0	329	50	0	0	0	0	0	0	0	0	0	0	0	0	0	0	0	0	0	0	0	0	0	0	0	0	0	0	0	0	0	0	0	0	0	0	0	0	9956	147	1	0	0	10104	0	0	0	0	0	0	0	0	0	0	0	0	0	0	0	0	0	0	0	0	0	0	9956	147	1	0	0	10104	0	0	0	0	17	26	0	0	0	0	0	0	0	0	0.9		MARTIN MALKOWSKI	4179267533	3/4/2004	3/8/2004		
2003	20030527	"SPRINGFIELD, CITY UTILITIES OF"	18584	301 E. CENTRAL	SPRINGFIELD	GREENE	MO	65802						 MO	0	0	18	410	738	0	0	0	0	0	1166	0	0	0	15112	56807	0	0	0	0	0	71919	0	196	70	94	46	22	428	0	0	0	0	0	0	0	0	0	0	0	0	0	0	0	0	0	0	0	0	0	0	0	0	0	0	0	0	0	484	244	10	0	0	738	0	0	0	0	0	0	0	0	0	0	0	0	0	0	0	0	0	0	0	0	0	0	680	314	104	46	22	1166	80	0	11285	3755	63	9	0	15112	0	0	0	0	0	0	0	0	0	0	0	0	0	0	0	0	0	0	0	0	0	0	0	0	0	0	0	0	0	54529	2237	41	0	0	56807	0	0	0	0	0	0	0	0	0	0	0	0	0	0	0	0	0	0	0	0	0	0	65814	5992	104	9	0	71919	2	13	0	0	42	164	7	17	9	18	134	2119	1057	0	1.16	"*OF THE 1057 SYSTEM LEAKS AT END OF YEAR 2003 SCHEDULED FOR REPAIR, 1054 ARE CLASS 3 LEAKS COMPOSED PRIMARILY OF THREAD LEAKS ON ABOVE GROUND METER SETS."	RODDY ROGERS	4718318504	3/4/2004	3/8/2004		
2003	20030528	"ST. JAMES GAS DEPT., CITY OF"	924	200 N BOURBEUSE BOX 426	ST. JAMES 	PHELPS	MO	65559						 MO	0	0	0	0	47	0	0	0	0	0	47	0	0	0	0	1080	0	0	0	0	0	1080	0	0	0	0	0	0	0	0	0	0	0	0	0	0	0	0	0	0	0	0	0	0	0	0	0	0	0	0	0	0	0	0	0	0	0	0	18	25	4	0	0	47	0	0	0	0	0	0	0	0	0	0	0	0	0	0	0	0	0	0	0	0	0	0	18	25	4	0	0	47	85	0	0	0	0	0	0	0	0	0	0	0	0	0	0	0	0	0	0	0	0	0	0	0	0	0	0	0	0	0	0	0	0	0	0	0	0	1062	15	3	0	0	1080	0	0	0	0	0	0	0	0	0	0	0	0	0	0	0	0	0	0	0	0	0	0	1062	15	3	0	0	1080	0	0	0	0	0	0	0	0	0	0	0	0	0	0	1.8		JIM HOLT / LADONNA BAILEY	5732657011	3/4/2004	3/8/2004		
2003	20030529	"ST. ROBERT, CITY OF"	30865	194 EASTLAWN AVE STE A	SAINT ROBERT	PULASKI	MO	65584						 MO	0	0	0	0	26	0	0	0	0	0	26	0	0	0	0	419	0	0	0	0	0	419	0	0	0	0	0	0	0	0	0	0	0	0	0	0	0	0	0	0	0	0	0	0	0	0	0	0	0	0	0	0	0	0	0	0	0	0	13	8	5	0	0	26	0	0	0	0	0	0	0	0	0	0	0	0	0	0	0	0	0	0	0	0	0	0	13	8	5	0	0	26	100	0	0	0	0	0	0	0	0	0	0	0	0	0	0	0	0	0	0	0	0	0	0	0	0	0	0	0	0	0	0	0	0	0	0	0	0	372	47	0	0	0	419	0	0	0	0	0	0	0	0	0	0	0	0	0	0	0	0	0	0	0	0	0	0	372	47	0	0	0	419	0	0	0	0	1	1	0	0	0	0	0	0	0	0	1		MATT F. WOOD	5734512000	3/4/2004	3/8/2004		
2003	20030530	"STANBERRY GAS DEPT, CITY OF"	18596	130 WEST FIRST STREET	STANBERRY	GENTRY	MO	64489						 MO	0	0	0	16	1	0	0	0	0	0	17	0	0	0	530	108	0	0	0	0	0	638	0	8	8	0	0	0	16	0	0	0	0	0	0	0	0	0	0	0	0	0	0	0	0	0	0	0	0	0	0	0	0	0	0	0	0	0	0	0	0	0	0	0	0	1	0	0	0	0	1	0	0	0	0	0	0	0	0	0	0	0	0	0	0	0	9	8	0	0	0	17	75	0	491	39	0	0	0	530	0	0	0	0	0	0	0	0	0	0	0	0	0	0	0	0	0	0	0	0	0	0	0	0	0	0	0	0	0	108	0	0	0	0	108	0	0	0	0	0	0	0	0	0	0	0	0	0	0	0	0	0	0	0	0	0	0	599	39	0	0	0	638	0	0	0	0	0	1	0	0	0	0	0	0	0	0	4.4		BENNIE BUCKALEW	6607832725	3/4/2004	3/8/2004		
2003	20030531	TRIGEN-ST. LOUIS ENERGY CORP 	31260	ONE ASHLEY PLACE	ST. LOUIS		MO	63102						 MO	0	0	0	3	0	0	0	0	0	0	3	0	0	0	0	0	0	0	0	0	0	0	0	0	0	0	0	3	3	0	0	0	0	0	0	0	0	0	0	0	0	0	0	0	0	0	0	0	0	0	0	0	0	0	0	0	0	0	0	0	0	0	0	0	0	0	0	0	0	0	0	0	0	0	0	0	0	0	0	0	0	0	0	0	0	0	0	0	0	0	3	3	0	0	0	0	0	0	0	0	0	0	0	0	0	0	0	0	0	0	0	0	0	0	0	0	0	0	0	0	0	0	0	0	0	0	0	0	0	0	0	0	0	0	0	0	0	0	0	0	0	0	0	0	0	0	0	0	0	0	0	0	0	0	0	0	0	0	0	0	0	0	0	0	0	0	0	0	0	0	0	0	0	0	0	0	0	0	THIS FEEDER LINE SUPPLIES NATURAL GAS ONLY TO TRIGEN-ST LOUIS ENERGY CORP AND IS FED THROUGH A SINGLE METER AT ITS BORDER STATION.	"ROBERT ERXLEBEN, JR."	6185483316	3/4/2004	3/8/2004		
2003	20030532	UNIONVILLE MUNICIPLE NATURAL GAS SYSTEM	20190	1717 MAIN ST PO BOX 206	UNIONVILLE	PUTNAM	MO	63565	P.O. BOX 206	UNIONVILLE		MO	63565	 MO	0	0	0	16	1	0	0	0	0	0	17	0	0	0	765	364	0	0	0	0	0	1129	0	14	1	1	0	0	16	0	0	0	0	0	0	0	0	0	0	0	0	0	0	0	0	0	0	0	0	0	0	0	0	0	0	0	0	0	1	0	0	0	0	1	0	0	0	0	0	0	0	0	0	0	0	0	0	0	0	0	0	0	0	0	0	0	15	1	1	0	0	17	60	0	765	0	0	0	0	765	0	0	0	0	0	0	0	0	0	0	0	0	0	0	0	0	0	0	0	0	0	0	0	0	0	0	0	0	0	364	0	0	0	0	364	0	0	0	0	0	0	0	0	0	0	0	0	0	0	0	0	0	0	0	0	0	0	1129	0	0	0	0	1129	0	0	0	0	0	0	0	0	0	14	0	0	0	0	0		LINDA VALENTINE	6609473116	3/4/2004	3/8/2004		
2003	20030533	"WAYNESVILLE, CITY OF"	30866	201 NORTH ST	WAYNESVILLE	PULASKI	MO	65583						 MO	0	0	0	8	22	0	0	0	0	0	30	0	0	0	0	553	0	0	0	0	0	553	0	0	8	0	0	0	8	0	0	0	0	0	0	0	0	0	0	0	0	0	0	0	0	0	0	0	0	0	0	0	0	0	0	0	0	0	9	13	0	0	0	22	0	0	0	0	0	0	0	0	0	0	0	0	0	0	0	0	0	0	0	0	0	0	9	21	0	0	0	30	75	0	0	0	0	0	0	0	0	0	0	0	0	0	0	0	0	0	0	0	0	0	0	0	0	0	0	0	0	0	0	0	0	0	0	0	0	539	14	0	0	0	553	0	0	0	0	0	0	0	0	0	0	0	0	0	0	0	0	0	0	0	0	0	0	539	14	0	0	0	553	0	0	0	0	0	1	0	0	0	0	0	0	0	0	2.5		GREG DERHEIM	5737745009	3/4/2004	3/8/2004		
2003	20030534	WHEATON MUNICIPAL GAS	30561	219 E. MAIN	WHEATON 	BARRY	MO	64874						 MO	0	0	0	0	21	0	0	0	0	0	21	0	0	0	0	368	0	0	0	0	0	368	0	0	0	0	0	0	0	0	0	0	0	0	0	0	0	0	0	0	0	0	0	0	0	0	0	0	0	0	0	0	0	0	0	0	0	0	10	3	8	0	0	21	0	0	0	0	0	0	0	0	0	0	0	0	0	0	0	0	0	0	0	0	0	0	10	3	8	0	0	21	147	0	0	0	0	0	0	0	0	0	0	0	0	0	0	0	0	0	0	0	0	0	0	0	0	0	0	0	0	0	0	0	0	0	0	0	0	325	43	0	0	0	368	0	0	0	0	0	0	0	0	0	0	0	0	0	0	0	0	0	0	0	0	0	0	325	43	0	0	0	368	0	0	0	0	0	0	0	0	0	0	0	0	0	0	0		JERRY MCBRIDE	4716523314	3/4/2004	3/8/2004		
2003	20030535	KNG ENERGY INC	30930	1700 WESTFIELD DR	FINDLAY	HANCOCK	OH	45840						 OH	0	0	0	7	49	0	0	0	0	0	56	0	0	0	4	720	0	0	0	0	0	724	0	0	1	6	0	0	7	0	0	0	0	0	0	0	0	0	0	0	0	0	0	0	0	0	0	0	0	0	0	0	0	0	0	0	0	0	30	18	1	0	0	49	0	0	0	0	0	0	0	0	0	0	0	0	0	0	0	0	0	0	0	0	0	0	30	19	7	0	0	56	46	0	0	4	0	0	0	4	0	0	0	0	0	0	0	0	0	0	0	0	0	0	0	0	0	0	0	0	0	0	0	0	0	0	0	0	0	0	720	0	0	0	720	0	0	0	0	0	0	0	0	0	0	0	0	0	0	0	0	0	0	0	0	0	0	0	724	0	0	0	724	0	0	0	1	2	2	2	6	1	8	0	0	1	0	0.5		KAY NAITKER	4194243427	3/9/2004	3/10/2004		
2003	20030536	MCCOMB NATURAL GAS CO	30876	1700 WESTFIELD DR	FINDLAY 	HANCOCK	OH	45840	P.O. BOX 340 HANCOCK	MCCOMB		OH	45858	 OH	0	0	4	1	7	0	0	0	0	0	12	0	0	298	61	215	0	0	0	0	0	574	0	3	1	1	0	0	5	0	0	0	0	0	0	0	0	0	0	0	0	0	0	0	0	0	0	0	0	0	0	0	0	0	0	0	0	0	6	1	0	0	0	7	0	0	0	0	0	0	0	0	0	0	0	0	0	0	0	0	0	0	0	0	0	0	9	2	1	0	0	12	40	0	0	359	0	0	0	359	0	0	0	0	0	0	0	0	0	0	0	0	0	0	0	0	0	0	0	0	0	0	0	0	0	0	0	0	0	0	215	0	0	0	215	0	0	0	0	0	0	0	0	0	0	0	0	0	0	0	0	0	0	0	0	0	0	0	574	0	0	0	574	4	2	0	0	0	2	0	2	0	0	0	0	2	0	0.75		KAY NAITKER	4194243427	3/9/2004	3/10/2004		
2003	20030537	SIERRA PACIFIC POWER CO	18308	P.O. BOX 10100	RENO	WASHOE	NV	89520						 NV	0	0	0	724	701	0	0	0	0	0	1425	0	0	116	28874	58303	0	0	0	0	0	87293	0	341	160	161	51	11	724	0	0	0	0	0	0	0	0	0	0	0	0	0	0	0	0	0	0	0	0	0	0	0	0	0	0	0	0	0	477	201	23	0	0	701	0	0	0	0	0	0	0	0	0	0	0	0	0	0	0	0	0	0	0	0	0	0	818	361	184	51	11	1425	75	0	28218	728	42	2	0	28990	0	0	0	0	0	0	0	0	0	0	0	0	0	0	0	0	0	0	0	0	0	0	201	0	0	0	0	201	0	56344	1709	48	1	0	58102	0	0	0	0	0	0	0	0	0	0	0	0	0	0	0	0	0	0	0	0	0	0	84763	2437	90	3	0	87293	10	11	3	7	11	84	22	8	0	7	164	19	1	0	1.41		"KENNETH M. SAAREM, GAS COMPLIANCE CONSULTANT"	7758343157	3/8/2004	3/10/2004		
2003	20030538	DECATUR UTILITIES - GAS DEPARTMENT	3183	1002 CENTRAL PARKWAY SW	DECATUR	MORGAN	AL	35601						 AL	0	0	0	56	303	10	6	0	0	0	375	0	0	0	1729	12132	0	0	0	0	0	13861	0	12	20	24	0	0	56	0	0	4	2	0	0	6	0	0	0	0	0	0	0	0	0	5	5	0	0	10	0	0	0	0	0	0	0	0	220	70	13	0	0	303	0	0	0	0	0	0	0	0	0	0	0	0	0	0	0	0	0	0	0	0	0	0	232	99	44	0	0	375	135	0	1641	76	8	4	0	1729	0	0	0	0	0	0	0	0	0	0	0	0	0	0	0	0	0	0	0	0	0	0	0	0	0	0	0	0	0	12048	80	4	0	0	12132	0	0	0	0	0	0	0	0	0	0	0	0	0	0	0	0	0	0	0	0	0	0	13689	156	12	4	0	13861	0	1	1	1	11	40	0	1	1	0	5	68	5	0	0		JERRY B. PARKER	2565521404	3/8/2004	3/10/2004		
2003	20030539	ELIZABETHTOWN GAS CO	4350	1085 MORRIS AVENUE	UNION	UNION	NJ	7083						 NJ	1	6	9	978	1139	826	21	0	0	0	2980	172	13578	0	22687	115119	0	9	43254	0	0	194819	0	383	196	315	82	18	994	0	0	16	5	0	0	21	0	0	0	0	0	0	0	0	0	502	250	44	30	826	0	0	0	0	0	0	0	0	651	283	203	1	1	1139	0	0	0	0	0	0	0	0	0	0	0	0	0	0	0	0	0	0	0	0	0	0	1034	997	773	127	49	2980	52	0	16770	19022	579	66	0	36437	0	0	0	7	2	0	9	0	42599	280	375	0	0	43254	0	0	0	0	0	0	0	0	0	0	0	0	0	0	0	92048	22514	524	33	0	115119	0	0	0	0	0	0	0	0	0	0	0	0	0	0	0	0	0	0	0	0	0	0	151417	41816	1485	101	0	194819	44	85	30	10	27	104	6	7	120	30	195	33	354	0	3.77		ANDREW A. LEWANDOWSKI	9082895000	3/2/2004	3/10/2004		
2003	20030540	MT PLEASANT GAS SYSTEM	25126	100 PUBLIC SQUARE	MT. PLEASANT	MAURY	TN	38474	P.O. BOX 426	MT. PLEASANT	MAURY	TN	38474	 TN	0	0	0	25	42	0	0	0	0	0	67	0	0	0	576	998	0	0	0	0	0	1574	0	20	5	0	0	0	25	0	0	0	0	0	0	0	0	0	0	0	0	0	0	0	0	0	0	0	0	0	0	0	0	0	0	0	0	0	27	13	2	0	0	42	0	0	0	0	0	0	0	0	0	0	0	0	0	0	0	0	0	0	0	0	0	0	47	18	2	0	0	67	65	0	570	6	0	0	0	576	0	0	0	0	0	0	0	0	0	0	0	0	0	0	0	0	0	0	0	0	0	0	0	0	0	0	0	0	0	982	14	2	0	0	998	0	0	0	0	0	0	0	0	0	0	0	0	0	0	0	0	0	0	0	0	0	0	1552	20	2	0	0	1574	0	3	0	0	0	0	0	0	0	5	3	20	0	0	0	ACCOUNTED FOR GAS -1.2%	LANDON RUMMAGE	9313797717	3/9/2004	3/10/2004		
2003	20030541	PHILADELPHIA GAS WORKS	15469	800 W. MONTGOMERY AVENUE	PHILADELPHIA	PHILADELPHIA	PA	19122						 PA	0	516	0	486	192	1680	136	0	0	0	3010	184053	19006	0	29068	267577	0	0	49	0	0	499753	0	53	277	448	101	122	1001	0	0	56	76	5	0	137	0	0	0	0	0	0	0	0	0	339	1034	131	176	1680	0	0	0	0	0	0	0	0	17	120	55	0	0	192	0	0	0	0	0	0	0	0	0	0	0	0	0	0	0	0	0	0	0	0	0	0	70	792	1613	237	298	3010	32	0	132	227606	3367	1006	16	232127	0	0	0	0	0	0	0	0	49	0	0	0	0	49	0	0	0	0	0	0	0	0	0	0	0	0	0	0	0	252998	11867	2537	175	0	267577	0	0	0	0	0	0	0	0	0	0	0	0	0	0	0	0	0	0	0	0	0	0	253179	239473	5904	1181	16	499753	113	4552	2384	1	35	115	2	0	7	101	21	3	15	0	2.5		PAUL A. MONDIMORE	2156846372	3/9/2004	3/10/2004		
2003	20030542	ESKRIDGE GAS SYSTEM	4540	110 S. MAIN STREET	ESKRIDGE	WABAUNSEE	KS	66423						 KS	0	0	15	19	21	0	0	0	0	0	55	0	0	0	478	257	0	0	0	0	0	735	0	12	16	6	0	0	34	0	0	0	0	0	0	0	0	0	0	0	0	0	0	0	0	0	0	0	0	0	0	0	0	0	0	0	0	0	0	7	14	0	0	21	0	0	0	0	0	0	0	0	0	0	0	0	0	0	0	0	0	0	0	0	0	0	12	23	20	0	0	55	0	0	0	478	0	0	0	478	0	0	0	0	0	0	0	0	0	0	0	0	0	0	0	0	0	0	0	0	0	0	0	0	0	0	0	0	0	0	32	0	0	0	32	0	0	0	0	0	0	0	0	0	0	0	0	0	0	0	0	0	0	0	0	0	0	0	500	0	0	0	500	0	0	0	0	2	0	0	0	0	0	0	0	0	0	3.3		DEE JAY MCCOLLUM	7854497219	3/8/2004	3/10/2004		
2003	20030543	ASHFORD GAS CO	705	P.O. BOX 6746	CHARLESTON	KANAWHA	WV	25362	8127 SISSONVILLE DRIVE	SISSONVILLE	KANAWHA	WV	25320	 WV	1	0	0	0	18	0	0	0	0	0	19	4	0	0	0	114	0	0	0	0	0	118	0	1	0	0	0	0	1	0	0	0	0	0	0	0	0	0	0	0	0	0	0	0	0	0	0	0	0	0	0	17	1	0	0	0	18	0	0	0	0	0	0	0	0	0	0	0	0	0	0	0	0	0	0	0	0	0	0	0	0	0	0	0	0	0	18	1	0	0	0	19	28	0	4	2	0	0	0	6	0	0	0	0	0	0	0	0	0	0	0	0	0	0	0	0	0	0	0	0	0	0	0	0	0	0	0	0	0	102	17	0	0	0	119	0	0	0	0	0	0	0	0	0	0	0	0	0	0	0	0	0	0	0	0	0	0	106	19	0	0	0	125	2	9	1	0	2	1	0	0	0	0	0	0	1	0	0		WAYNE B. REED	3043440474	3/4/2004	3/10/2004		
2003	20030544	SAC CITY MUNICIPAL GAS UTIL	18020	P.O. BOX 37 	SAC	SAC	IA	50583						 IA	0	0	0	44	0	0	0	0	0	0	44	0	0	0	1190	0	0	0	0	0	0	1190	0	38	4	2	0	0	44	0	0	0	0	0	0	0	0	0	0	0	0	0	0	0	0	0	0	0	0	0	0	0	0	0	0	0	0	0	0	0	0	0	0	0	0	0	0	0	0	0	0	0	0	0	0	0	0	0	0	0	0	0	0	0	0	0	38	4	2	0	0	44	60	0	1108	81	1	0	0	1190	0	0	0	0	0	0	0	0	0	0	0	0	0	0	0	0	0	0	0	0	0	0	0	0	0	0	0	0	0	0	0	0	0	0	0	0	0	0	0	0	0	0	0	0	0	0	0	0	0	0	0	0	0	0	0	0	0	1108	81	1	0	0	1190	0	0	0	0	0	0	0	0	0	0	0	0	0	0	0.898		GARY C. MAHANNAH	7126627593	3/4/2004	3/10/2004		
2003	20030545	SOUTHEAST INDIANA NATURAL GAS CO	18464	106 E MAIN ST PO BOX 1007	MORRISTOWN	SHELBY	IN	46161						 IN	0	0	0	34	41	0	0	0	0	0	75	0	0	0	399	1877	0	0	0	0	0	2276	0	16	18	0	0	0	34	0	0	0	0	0	0	0	0	0	0	0	0	0	0	0	0	0	0	0	0	0	0	0	0	0	0	0	0	0	36	5	0	0	0	41	0	0	0	0	0	0	0	0	0	0	0	0	0	0	0	0	0	0	0	0	0	0	52	23	0	0	0	75	109	0	396	3	0	0	0	399	0	0	0	0	0	0	0	0	0	0	0	0	0	0	0	0	0	0	0	0	0	0	198	1	0	0	0	199	0	1677	1	0	0	0	1678	0	0	0	0	0	0	0	0	0	0	0	0	0	0	0	0	0	0	0	0	0	0	2271	5	0	0	0	2276	0	1	2	3	0	17	0	8	2	9	3	72	7	0	0		ROBERT WORTMAN	7657636393	3/5/2004	3/11/2004		
2003	20030546	"MORGANFIELD GAS SYSTEM, CITY OF"	12778	526 N COURT ST	MORGANFIELD		KY	42437						 KY	0	0	0	85	26	0	0	0	0	0	111	0	0	0	1461	927	0	0	0	0	0	2388	0	29	15	41	0	0	85	0	0	0	0	0	0	0	0	0	0	0	0	0	0	0	0	0	0	0	0	0	0	0	0	0	0	0	0	0	24	2	0	0	0	26	0	0	0	0	0	0	0	0	0	0	0	0	0	0	0	0	0	0	0	0	0	0	53	17	41	0	0	111	0	0	1436	23	2	1	0	1462	0	0	0	0	0	0	0	0	0	0	0	0	0	0	0	0	0	0	0	0	0	0	0	0	0	0	0	0	0	905	21	0	0	0	926	0	0	0	0	0	0	0	0	0	0	0	0	0	0	0	0	0	0	0	0	0	0	2341	44	2	1	0	2388	1	3	0	0	2	0	0	0	0	0	0	0	0	0	1.5		BILLIE M. YOUNG-UTILITIES SUPERINTENDENT	2703892186	3/5/2004	3/11/2004		
2003	20030547	"LOXLEY, TOWN OF"	11864	1089 S HICKORY ST BOX 9	LOXLEY	BALDWIN	AL	36551						 AK	0	0	0	18	2	0	0	0	0	0	20	0	0	0	332	33	0	0	0	0	0	365	0	0	18	0	0	0	18	0	0	0	0	0	0	0	0	0	0	0	0	0	0	0	0	0	0	0	0	0	0	0	0	0	0	0	0	0	0	2	0	0	0	2	0	0	0	0	0	0	0	0	0	0	0	0	0	0	0	0	0	0	0	0	0	0	0	20	0	0	0	20	0	0	324	8	0	0	0	332	0	0	0	0	0	0	0	0	0	0	0	0	0	0	0	0	0	0	0	0	0	0	0	0	0	0	0	0	0	33	0	0	0	0	33	0	0	0	0	0	0	0	0	0	0	0	0	0	0	0	0	0	0	0	0	0	0	357	8	0	0	0	365	0	0	0	0	0	0	0	1	0	0	0	0	0	0	1		JAMES E. WILSON	2519645162	3/5/2004	3/11/2004		
2003	20030548	"VIRGINIA DEPT OF PUBLIC UTILITY, CITY OF"	21340	620 2ND STREET SOUTH 	VIRGINIA	ST. LOUIS	MN	55792						 MN	0	0	0	5	46	0	0	0	0	0	51	0	0	0	26	1735	0	0	1	0	0	1762	0	1	1	2	1	0	5	0	0	0	0	0	0	0	0	0	0	0	0	0	0	0	0	0	0	0	0	0	0	0	0	0	0	0	0	0	24	20	1	1	0	46	0	0	0	0	0	0	0	0	0	0	0	0	0	0	0	0	0	0	0	0	0	0	25	21	3	2	0	51	70	0	24	2	0	0	0	26	0	0	0	0	0	0	0	0	1	0	0	0	0	1	0	0	0	0	0	0	0	0	0	0	0	0	0	0	0	1669	59	7	0	0	1735	0	0	0	0	0	0	0	0	0	0	0	0	0	0	0	0	0	0	0	0	0	0	1694	61	7	0	0	1762	1	0	0	2	2	3	0	0	0	0	1	1	0	0	0		MICHAEL PELLETIER/NORTHSTAR UTILITY CONSULTING	2187412169	3/5/2004	3/11/2004		
2003	20030549	"CASSODAY GAS DEPT, CITY OF"	2144	PO BOX 90	CASSODAY	BUTLER	KS	66842						 KS	0	0	0	3	0	0	0	0	0	0	3	0	0	0	137	0	0	0	0	0	0	137	0	3	0	0	0	0	3	0	0	0	0	0	0	0	0	0	0	0	0	0	0	0	0	0	0	0	0	0	0	0	0	0	0	0	0	0	0	0	0	0	0	0	0	0	0	0	0	0	0	0	0	0	0	0	0	0	0	0	0	0	0	0	0	0	3	0	0	0	0	3	0	0	136	0	0	0	0	136	0	0	0	0	0	0	0	0	0	0	0	0	0	0	0	0	0	0	0	0	0	0	0	0	0	0	0	0	0	0	0	0	0	0	0	0	0	0	0	0	0	0	0	0	1	0	0	0	1	0	0	0	0	0	0	0	0	136	1	0	0	0	137	0	0	0	0	0	0	0	0	0	0	0	0	0	0	0		RAYE VAUGHT	6207354252	3/5/2004	3/11/2004		
2003	20030550	JACKSON UTILITY DIV GAS DEPT	9040	119 E COLLEGEST BOX 68	JACKSON	MADISON	TN	38302						 TN	0	1	0	373	305	17	0	0	0	0	696	0	149	0	14551	13057	0	0	409	0	0	28166	0	117	127	81	49	0	374	0	0	0	0	0	0	0	0	0	0	0	0	0	0	0	0	17	0	0	0	17	0	0	0	0	0	0	0	0	126	120	59	0	0	305	0	0	0	0	0	0	0	0	0	0	0	0	0	0	0	0	0	0	0	0	0	0	243	264	140	49	0	696	99	4518	10092	0	77	12	1	14700	0	0	0	0	0	0	0	0	409	0	0	0	0	409	0	0	0	0	0	0	0	0	0	0	0	0	0	0	0	11588	1421	46	2	0	13057	0	0	0	0	0	0	0	0	0	0	0	0	0	0	0	0	0	0	0	0	0	4518	22089	1421	123	14	1	28166	24	33	3	8	13	22	5	24	15	20	0	0	158	0	1.67		ERIC JOHNSON-GAS SYSTEM ENGINEER	7314227470	3/8/2004	3/11/2004		
2003	20030551	"GORDO WATER GAS & SEWER BOARD, TOWN OF"	6460	PO BOX 348	GORDO	PICKEN	AL	35466						 AL	0	0	0	6	7	7	0	0	0	0	20	0	165	0	45	376	2	0	0	0	0	588	0	2	4	0	0	0	6	0	0	0	0	0	0	0	0	0	0	0	0	0	0	0	0	7	0	0	0	7	0	0	0	0	0	0	0	0	5	2	0	0	0	7	0	0	0	0	0	0	0	0	0	0	0	0	0	0	0	0	0	0	0	0	0	0	7	13	0	0	0	20	100	0	210	0	0	0	0	210	0	0	0	0	0	0	0	0	0	0	0	0	0	0	0	0	0	2	0	0	2	0	0	0	0	0	0	0	0	372	3	1	0	0	376	0	0	0	0	0	0	0	0	0	0	0	0	0	0	0	0	0	0	0	0	0	0	582	3	3	0	0	588	1	0	0	0	0	0	0	0	0	0	16	2	0	0	7		MIKE SKELTON	2053647111	3/8/2004	3/11/2004		
2003	20030552	BERKSHIRE GAS CO	1344	115 CHESHIRE ROAD	PITTSFIELD	BERSHIRE	MA	1201						 MA	43	63	0	323	192	100	0	0	0	0	721	5401	3131	0	6278	14776	3	0	340	0	0	29929	0	186	122	115	5	1	429	0	0	0	0	0	0	0	0	0	0	0	0	0	0	0	0	65	30	4	1	100	0	0	0	0	0	0	0	0	131	49	12	0	0	192	0	0	0	0	0	0	0	0	0	0	0	0	0	0	0	0	0	0	0	0	0	0	317	236	157	9	2	721	77	0	6824	7821	150	15	0	14810	0	0	0	0	0	0	0	0	340	0	0	0	0	340	0	0	0	3	0	0	3	0	0	0	0	0	0	0	0	11002	3693	77	4	0	14776	0	0	0	0	0	0	0	0	0	0	0	0	0	0	0	0	0	0	0	0	0	0	18166	11514	230	19	0	29929	21	18	14	2	2	5	0	1	29	9	4	2	40	0	0.9		DAVID M. GRANDE	4134450265	3/8/2004	3/11/2004		
2003	20030553	"COALINGA, CITY OF"	2524	155 W. DURIAN	COALINGA	FRESNO	CA	93210						 CA	0	0	0	19	20	0	0	0	0	0	39	0	0	0	2156	1328	0	0	0	0	0	3484	0	18	1	0	0	0	19	0	0	0	0	0	0	0	0	0	0	0	0	0	0	0	0	0	0	0	0	0	0	0	0	0	0	0	0	0	19	1	0	0	0	20	0	0	0	0	0	0	0	0	0	0	0	0	0	0	0	0	0	0	0	0	0	0	37	2	0	0	0	39	20	0	2098	58	0	0	0	2156	0	0	0	0	0	0	0	0	0	0	0	0	0	0	0	0	0	0	0	0	0	0	0	0	0	0	0	0	0	1298	26	5	0	0	1329	0	0	0	0	0	0	0	0	0	0	0	0	0	0	0	0	0	0	0	0	0	0	3396	84	5	0	0	3485	0	14	0	0	0	0	0	0	0	0	6	70	0	0	3	"THE LEAKS LISTED FOR ""OTHER"" ARE PIPE FITTINGS AT METER SETS."	"RANDY ARP, FIELD SERVICES MANAGER"	5599351533	3/8/2004	3/11/2004		
2003	20030554	PIKE NATURAL GAS CO	15546	144 BOWERS AVE BOX 249	HILLSBORO	HIGHLAND	OH	45133						 OH	0	0	0	142	117	0	0	0	0	0	259	0	0	0	3001	4476	0	0	0	0	0	7477	0	58	32	52	0	0	142	0	0	0	0	0	0	0	0	0	0	0	0	0	0	0	0	0	0	0	0	0	0	0	0	0	0	0	0	0	66	44	7	0	0	117	0	0	0	0	0	0	0	0	0	0	0	0	0	0	0	0	0	0	0	0	0	0	124	76	59	0	0	259	75	0	2878	120	3	0	0	3001	0	0	0	0	0	0	0	0	0	0	0	0	0	0	0	0	0	0	0	0	0	0	0	0	0	0	0	0	0	4373	97	6	0	0	4476	0	0	0	0	0	0	0	0	0	0	0	0	0	0	0	0	0	0	0	0	0	0	7251	217	9	0	0	7477	10	47	0	0	8	14	0	0	0	0	0	3	0	0	0.99	11 SERVICE LINES ABANDONED  42 SERVICE LINES REPLACED WITH PLATIC  135 NEW SERVICE LINES ADDED	TOM MYERS	9373931901	3/8/2004	3/11/2004		
2003	20030555	OAK RIDGE UTIL DIST	14010	101 BUS TERMINAL ROAD	OAK RIDGE	ANDERSON	TN	37830						 TN	0	0	0	141	225	0	0	0	0	0	366	0	0	0	1526	10387	0	0	0	0	0	11913	0	12	93	33	1	2	141	0	0	0	0	0	0	0	0	0	0	0	0	0	0	0	0	0	0	0	0	0	0	0	0	0	0	0	0	0	134	56	31	4	0	225	0	0	0	0	0	0	0	0	0	0	0	0	0	0	0	0	0	0	0	0	0	0	146	149	64	5	2	366	153	0	1489	36	1	0	0	1526	0	0	0	0	0	0	0	0	0	0	0	0	0	0	0	0	0	0	0	0	0	0	0	0	0	0	0	0	0	10321	63	3	0	0	10387	0	0	0	0	0	0	0	0	0	0	0	0	0	0	0	0	0	0	0	0	0	0	11810	99	4	0	0	11913	0	2	0	0	13	49	9	168	3	7	3	0	0	0	0.4		JEFF PATTERSON-OPERATIONS MANAGER	8654824552	3/8/2004	3/11/2004		
2003	20030556	FERRELLGAS	13772	400 N OLD DIXIE HWY	JUPITER	PALM BEACH	FL	33458	1 LIBERTY PLAZA	LIBERTY		MO	64068	 FL	0	0	0	3	0	0	0	0	0	0	3	0	0	0	175	0	0	0	0	0	0	175	0	3	0	0	0	0	3	0	0	0	0	0	0	0	0	0	0	0	0	0	0	0	0	0	0	0	0	0	0	0	0	0	0	0	0	0	0	0	0	0	0	0	0	0	0	0	0	0	0	0	0	0	0	0	0	0	0	0	0	0	0	0	0	0	3	0	0	0	0	3	0	0	0	175	0	0	0	175	0	0	0	0	0	0	0	0	0	0	0	0	0	0	0	0	0	0	0	0	0	0	0	0	0	0	0	0	0	0	0	0	0	0	0	0	0	0	0	0	0	0	0	0	0	0	0	0	0	0	0	0	0	0	0	0	0	0	175	0	0	0	175	0	3	0	1	0	1	0	0	0	0	0	18	0	0	1		LISA EILERS	5617464534	3/8/2004	3/11/2004		
2003	20030557	WISCONSIN PUBLIC SERVICE CORP	22791	700 N. ADAMS STREET	GREEN BAY	BROWN	WI	54301						 MI	0	0	0	41	54	0	0	0	0	0	95	0	0	0	724	4332	0	0	0	0	0	5056	0	29	5	5	2	0	41	0	0	0	0	0	0	0	0	0	0	0	0	0	0	0	0	0	0	0	0	0	0	0	0	0	0	0	0	0	48	6	0	0	0	54	0	0	0	0	0	0	0	0	0	0	0	0	0	0	0	0	0	0	0	0	0	0	77	11	5	2	0	95	78	0	580	133	7	4	0	724	0	0	0	0	0	0	0	0	0	0	0	0	0	0	0	0	0	0	0	0	0	0	0	0	0	0	0	0	0	4290	40	2	0	0	4332	0	0	0	0	0	0	0	0	0	0	0	0	0	0	0	0	0	0	0	0	0	0	4870	173	9	4	0	5056	1	0	0	0	0	5	0	7	0	33	0	103	0	0	0	UNACCOUNTED FOR GAS -.24%	DAVE VAN DEN ELZEN	9204331046	3/9/2004	3/11/2004		
2003	20030558	WISCONSIN PUBLIC SERVICE CORP	22791	700 N. ADAMS STREET	GREEN BAY	BROWN	WI	54301						 WI	0	0	0	1869	4711	0	0	0	0	0	6580	0	0	0	40018	234695	0	0	0	0	0	274713	0	896	621	312	27	13	1869	0	0	0	0	0	0	0	0	0	0	0	0	0	0	0	0	0	0	0	0	0	0	0	0	0	0	0	0	0	3696	788	227	0	0	4711	0	0	0	0	0	0	0	0	0	0	0	0	0	0	0	0	0	0	0	0	0	0	4592	1409	539	27	13	6580	92	0	35678	4120	156	61	3	40018	0	0	0	0	0	0	0	0	0	0	0	0	0	0	0	0	0	0	0	0	0	0	0	0	0	0	0	0	0	232498	2044	142	11	0	234695	0	0	0	0	0	0	0	0	0	0	0	0	0	0	0	0	0	0	0	0	0	0	268176	6164	298	72	3	274713	0	7	0	10	77	403	15	121	57	946	72	4751	0	0	0	UNACCOUNTED FOR GAS -.24%	DAVE VAN DEN ELZEN	9204331046	3/9/2004	3/11/2004		
2003	20030559	DELTA NATURAL GAS CO INC	3260	3617 LEXINGTON ROAD	WINCHESTER	CLARK	KY	40391						 KY	73	0	0	199	1183	0	0	0	0	0	1455	478	0	0	7727	37215	0	0	46	0	0	45466	0	113	97	61	0	0	271	0	0	0	0	0	0	0	0	0	0	0	0	0	0	0	0	0	0	0	0	0	0	0	0	0	0	0	0	0	931	235	18	0	0	1184	0	0	0	0	0	0	0	0	0	0	0	0	0	0	0	0	0	0	0	0	0	0	1044	332	79	0	0	1455	62	0	2998	5198	7	2	0	8205	0	0	0	0	0	0	0	0	46	0	0	0	0	46	0	0	0	0	0	0	0	0	0	0	0	0	0	0	0	37088	116	11	0	0	37215	0	0	0	0	0	0	0	0	0	0	0	0	0	0	0	0	0	0	0	0	0	0	40132	5314	18	2	0	45466	111	119	2	10	125	326	7	6	5	16	18	254	243	0	0.86		"JONATHAN W. MORPHEW, MANAGER-ENGINEERING"	8597446171	3/9/2004	3/11/2004		
2003	20030560	GREENVILLE UTILITIES COMMISSION	6790	801 MUMFORD ROAD	GREENVILLE		NC	27835	200 MLK JR. DRIVE	GREENVILLE		NC	27834	 NC	0	0	0	63	442	0	0	0	0	0	505	0	0	0	921	17292	0	0	0	0	0	18213	0	26	13	22	2	0	63	0	0	0	0	0	0	0	0	0	0	0	0	0	0	0	0	0	0	0	0	0	0	1	0	0	0	0	1	0	326	110	5	0	0	441	0	0	0	0	0	0	0	0	0	0	0	0	0	0	0	0	0	0	0	0	0	0	353	123	27	2	0	505	102	0	906	15	0	0	0	921	0	0	0	0	0	0	0	0	0	0	0	0	0	0	0	0	0	0	0	0	0	0	19	0	0	0	0	19	0	16659	611	3	0	0	17273	0	0	0	0	0	0	0	0	0	0	0	0	0	0	0	0	0	0	0	0	0	0	17584	626	3	0	0	18213	0	5	1	1	24	107	1	0	0	5	4	6	1	0	0.014		CHRISTOPHER P. WROCKLAGE	2525511592	3/9/2004	3/11/2004		
2003	20030561	LINEVILLE NATURAL GAS SYSTEM	11529	1717 MAIN ST. PO BOX 206 	UNIONVILLE	PUTNAM	MO	63565	PO BOX 206	UNIONVILLE		MO	63565	 AK	0	0	0	6	1	0	0	0	0	0	7	0	0	0	100	91	0	0	0	0	0	191	0	6	0	0	0	0	6	0	0	0	0	0	0	0	0	0	0	0	0	0	0	0	0	0	0	0	0	0	0	0	0	0	0	0	0	0	1	0	0	0	0	1	0	0	0	0	0	0	0	0	0	0	0	0	0	0	0	0	0	0	0	0	0	0	7	0	0	0	0	7	60	0	100	0	0	0	0	100	0	0	0	0	0	0	0	0	0	0	0	0	0	0	0	0	0	0	0	0	0	0	0	0	0	0	0	0	0	91	0	0	0	0	91	0	0	0	0	0	0	0	0	0	0	0	0	0	0	0	0	0	0	0	0	0	0	191	0	0	0	0	191	0	0	0	0	0	0	0	0	0	0	0	0	0	0	0		LINDA VALENTINE	6609473316	3/9/2004	3/11/2004		
2003	20030562	WEST BATON ROUGE PARISH NATURAL GAS SYSTEM	22364	BOX 53 880 N ALEXANDER AV	PORT ALLEN	WEST BATON ROUGE PARISH 	LA	70767						 LA	0	0	0	80	76	0	0	0	0	0	156	0	0	0	1983	1786	0	0	0	0	0	3769	0	68	12	0	0	0	80	0	0	0	0	0	0	0	0	0	0	0	0	0	0	0	0	0	0	0	0	0	0	0	0	0	0	0	0	0	35	30	11	0	0	76	0	0	0	0	0	0	0	0	0	0	0	0	0	0	0	0	0	0	0	0	0	0	103	42	11	0	0	156	75	0	1983	0	0	0	0	1983	0	0	0	0	0	0	0	0	0	0	0	0	0	0	0	0	0	0	0	0	0	0	0	0	0	0	0	0	0	1768	18	0	0	0	1786	0	0	0	0	0	0	0	0	0	0	0	0	0	0	0	0	0	0	0	0	0	0	3751	18	0	0	0	3769	0	2	0	0	1	3	0	2	0	19	0	0	0	0	1.85		PAM KEOWEN	2253362406	3/9/2004	3/11/2004		
2003	20030563	CITY OF RIENZI MUNICIPAL GAS	31525	PO BOX 53 84 S FRONT ST	RIENZI	ALCORN	MI	38865						 AK	0	0	0	0	18	0	0	0	0	0	18	0	0	0	0	321	0	0	0	0	0	321	0	0	0	0	0	0	0	0	0	0	0	0	0	0	0	0	0	0	0	0	0	0	0	0	0	0	0	0	0	0	0	0	0	0	0	0	5	13	0	0	0	18	0	0	0	0	0	0	0	0	0	0	0	0	0	0	0	0	0	0	0	0	0	0	5	13	0	0	0	18	0	0	0	0	0	0	0	0	0	0	0	0	0	0	0	0	0	0	0	0	0	0	0	0	0	0	0	0	0	0	0	0	0	0	0	0	0	321	0	0	0	0	321	0	0	0	0	0	0	0	0	0	0	0	0	0	0	0	0	0	0	0	0	0	0	321	0	0	0	0	321	0	0	0	0	0	0	0	0	0	2	0	0	0	0	8.1		TRENT JOHNSON	6627286259	3/9/2004	3/11/2004		
2003	20030564	MITCHELL COUNTY UTILITY CO	12618	5353 LCR 256	COLORADO CITY		TX	79512						 TX	0	0	0	3	37	0	0	0	0	0	40	0	0	0	0	534	0	0	0	0	0	534	0	0	0	0	3	0	3	0	0	0	0	0	0	0	0	0	0	0	0	0	0	0	0	0	0	0	0	0	0	29	5	0	0	0	34	0	3	0	0	0	0	3	0	0	0	0	0	0	0	0	0	0	0	0	0	0	0	0	0	0	0	0	0	0	32	5	0	3	0	40	0	0	0	0	0	0	0	0	0	0	0	0	0	0	0	0	0	0	0	0	0	0	0	0	0	0	0	0	0	0	521	0	0	0	0	521	0	0	0	0	0	0	0	0	13	0	0	0	0	13	0	0	0	0	0	0	0	0	0	0	0	0	0	0	0	534	0	0	0	0	534	2	2	10	0	0	1	0	0	0	0	0	0	0	0	4		MIKE HEMPHILL	3257285092	3/9/2004	3/11/2004		
2003	20030565	"THIBODAUX GAS DEPT, CITY OF"	19360	1219 HENRY S THIBODAUX ST	THIBODAUX	LAFOURCHE	LA	70301	P.O. BOX 5418	THIBODAUX	LAFOURCHE	LA	70302	 LA	0	0	0	10	66	20	0	0	0	0	96	0	0	0	6	3713	8	0	389	0	0	4116	0	2	6	2	0	0	10	0	0	0	0	0	0	0	0	0	0	0	0	0	0	0	16	2	2	0	0	20	0	0	0	0	0	0	0	0	43	22	1	0	0	66	0	0	0	0	0	0	0	0	0	0	0	0	0	0	0	0	0	0	0	0	0	0	61	30	5	0	0	96	30	0	0	6	0	0	0	6	0	0	0	0	0	0	0	0	389	0	0	0	0	389	0	0	8	0	0	0	8	0	0	0	0	0	0	0	0	3713	0	0	0	0	3713	0	0	0	0	0	0	0	0	0	0	0	0	0	0	0	0	0	0	0	0	0	0	4102	14	0	0	0	4116	0	0	3	6	0	0	1	2	2	105	0	11	2	0	1.76		SHERMAN D. DUET	9854467216	3/9/2004	3/11/2004		
2003	20030566	AVISTA CORP	31232	580 BUSINESS PARK DRIVE	MEDFORD	JACKSON	OR	97504	PO BOX 3727	SPOKANE	SPOKANE	WA	99220	 OR	0	0	3	753	985	0	0	0	0	0	1741	0	0	0	32662	63517	0	0	0	0	0	96179	0	516	157	80	3	0	756	0	0	0	0	0	0	0	0	0	0	0	0	0	0	0	0	0	0	0	0	0	0	0	0	0	0	0	0	0	835	139	11	0	0	985	0	0	0	0	0	0	0	0	0	0	0	0	0	0	0	0	0	0	0	0	0	0	1351	296	91	3	0	1741	77	0	32082	556	22	2	0	32662	0	0	0	0	0	0	0	0	0	0	0	0	0	0	0	0	0	0	0	0	0	0	0	0	0	0	0	0	0	62022	1419	73	3	0	63517	0	0	0	0	0	0	0	0	0	0	0	0	0	0	0	0	0	0	0	0	0	0	94104	1975	95	5	0	96179	5	9	2	1	75	249	18	15	11	8	28	47	104	0	0.17		KATHY CARPENTER	5418584741	3/8/2004	3/11/2004		
2003	20030567	AVISTA CORP	31232	580 BUSINESS PARK DRIVE	MEDFORD	JACKSON	OR	97504	PO BOX 3727 	SPOKANE	SPOKANE	WA	99220	 CA	0	0	0	124	109	0	0	0	0	0	233	0	0	0	7833	8264	0	0	0	0	0	16097	0	75	13	36	0	0	124	0	0	0	0	0	0	0	0	0	0	0	0	0	0	0	0	0	0	0	0	0	0	0	0	0	0	0	0	0	97	12	0	0	0	109	0	0	0	0	0	0	0	0	0	0	0	0	0	0	0	0	0	0	0	0	0	0	172	25	36	0	0	233	70	0	7806	27	0	0	0	7833	0	0	0	0	0	0	0	0	0	0	0	0	0	0	0	0	0	0	0	0	0	0	0	0	0	0	0	0	0	8241	18	3	2	0	8264	0	0	0	0	0	0	0	0	0	0	0	0	0	0	0	0	0	0	0	0	0	0	16047	45	3	2	0	16097	0	0	0	0	7	44	0	0	0	0	0	0	0	0	4.79		KATHY CARPENTER	5418584741	3/8/2004	3/11/2004		
2003	20030568	CHILDERSBURG GAS BOARD	2304	117 6TH AVENUE S.W.	CHILDERSBURG	TALLADEGA	AL	35044						 AL	0	0	0	27	47	11	0	0	0	0	85	188	48	157	365	1365	0	0	0	0	0	2123	0	6	12	9	0	0	27	0	0	0	0	0	0	0	0	0	0	0	0	0	0	0	0	9	2	0	0	11	0	0	0	0	0	0	0	0	23	21	3	0	0	47	0	0	0	0	0	0	0	0	0	0	0	0	0	0	0	0	0	0	0	0	0	0	29	42	14	0	0	85	100	0	738	18	2	0	0	758	0	0	0	0	0	0	0	0	0	0	0	0	0	0	0	0	0	0	0	0	0	0	0	0	0	0	0	0	0	1351	14	0	0	0	1365	0	0	0	0	0	0	0	0	0	0	0	0	0	0	0	0	0	0	0	0	0	0	2089	32	2	0	0	2123	1	3	0	1	2	5	3	3	3	5	0	0	16	0	3		MICHAEL S. MADDOX	2563786063	3/8/2004	3/11/2004		
2003	20030569	"THOMASVILLE WATER & LIGHT DEPT, CITY OF"	19380	111 VICTORIA PL BOX 1397	THOMASVILLE	THOMAS	GA	31799						 GA	0	0	0	135	16	0	0	0	0	0	151	0	0	0	831	4544	0	0	0	0	0	5375	0	76	45	14	0	0	135	0	0	0	0	0	0	0	0	0	0	0	0	0	0	0	0	0	0	0	0	0	0	0	0	0	0	0	0	0	14	2	0	0	0	16	0	0	0	0	0	0	0	0	0	0	0	0	0	0	0	0	0	0	0	0	0	0	90	47	14	0	0	151	100	0	775	52	4	0	0	831	0	0	0	0	0	0	0	0	0	0	0	0	0	0	0	0	0	0	0	0	0	0	0	0	0	0	0	0	0	4530	12	2	0	0	4544	0	0	0	0	0	0	0	0	0	0	0	0	0	0	0	0	0	0	0	0	0	0	5305	64	6	0	0	5375	0	0	1	2	0	10	0	0	0	0	2	26	0	0	1		MIKE ATKINSON	2292777038	3/9/2004	3/11/2004		
2003	20030570	NI - ENERGY SERVICES TRANSPORTATION CO	31446	PO BOX 226 220 E 7TH ST	AUBURN	DEKALB	IN	46706	801 E 86TH ST	MERRILLVILLE	LAKE	IN	46410	 OH	0	0	0	6	0	0	0	0	0	0	6	0	0	0	0	0	0	0	0	0	0	0	0	0	0	6	0	0	6	0	0	0	0	0	0	0	0	0	0	0	0	0	0	0	0	0	0	0	0	0	0	0	0	0	0	0	0	0	0	0	0	0	0	0	0	0	0	0	0	0	0	0	0	0	0	0	0	0	0	0	0	0	0	0	0	0	0	0	6	0	0	6	0	0	0	0	0	0	0	0	0	0	0	0	0	0	0	0	0	0	0	0	0	0	0	0	0	0	0	0	0	0	0	0	0	0	0	0	0	0	0	0	0	0	0	0	0	0	0	0	0	0	0	0	0	0	0	0	0	0	0	0	0	0	0	0	0	0	0	0	0	0	0	0	0	0	0	0	0	0	0	0	0	0	0	0	0	0		DAVID E. MUELLER	2609252700	3/9/2004	3/11/2004		
2003	20030571	STROMSBURG GAS DEPARTMENT	18664	122 E THIRD STREET	STROMSBURG	POLK	NE	68666						 NE	0	0	0	9	3	0	0	0	0	0	12	0	0	0	26	513	0	0	0	0	0	539	0	8	1	0	0	0	9	0	0	0	0	0	0	0	0	0	0	0	0	0	0	0	0	0	0	0	0	0	0	0	0	0	0	0	0	0	3	0	0	0	0	3	0	0	0	0	0	0	0	0	0	0	0	0	0	0	0	0	0	0	0	0	0	0	11	1	0	0	0	12	75	0	17	10	0	0	0	27	0	0	0	0	0	0	0	0	0	0	0	0	0	0	0	0	0	0	0	0	0	0	0	0	0	0	0	0	0	506	6	0	0	0	512	0	0	0	0	0	0	0	0	0	0	0	0	0	0	0	0	0	0	0	0	0	0	523	16	0	0	0	539	0	0	0	0	0	0	1	1	0	0	0	0	2	0	0		GLEN BOWER JR.	4027642561	3/9/2004	3/11/2004		
2003	20030572	STURGIS NATURAL GAS SYSTEM	18676	524 N ADAMS ST	STURGIS	UNION	KY	42459						 KY	0	0	0	41	4	0	0	0	0	0	45	0	0	0	1117	38	0	0	0	0	0	1155	0	15	14	12	0	0	41	0	0	0	0	0	0	0	0	0	0	0	0	0	0	0	0	0	0	0	0	0	0	0	0	0	0	0	0	0	3	1	0	0	0	4	0	0	0	0	0	0	0	0	0	0	0	0	0	0	0	0	0	0	0	0	0	0	18	15	12	0	0	45	0	0	1081	7	0	0	0	1088	0	0	0	0	0	0	0	0	0	0	0	0	0	0	0	0	0	0	0	0	0	0	0	0	0	0	0	0	0	36	0	0	0	0	36	0	0	0	0	0	0	0	0	0	0	0	0	0	0	0	0	0	0	0	0	0	0	1117	7	0	0	0	1124	0	9	0	0	2	0	0	0	0	0	0	0	0	0	0		BOB ALJEY/VERNON BROOKS	2703332166	3/9/2004	3/11/2004		
2003	20030573	"ARGONIA MUNICIPAL SYSTEM, CITY OF"	576	210 S MAIN	ARGONIA	SUMNER	KS	67004						 KS	0	0	0	11	1	0	0	0	0	0	12	0	0	0	279	18	0	0	0	0	0	297	0	5	6	0	0	0	11	0	0	0	0	0	0	0	0	0	0	0	0	0	0	0	0	0	0	0	0	0	0	0	0	0	0	0	0	0	1	0	0	0	0	1	0	0	0	0	0	0	0	0	0	0	0	0	0	0	0	0	0	0	0	0	0	0	6	6	0	0	0	12	0	0	279	0	0	0	0	279	0	0	0	0	0	0	0	0	0	0	0	0	0	0	0	0	0	0	0	0	0	0	0	0	0	0	0	0	0	0	0	0	0	0	0	0	0	0	0	0	0	0	0	0	0	0	0	0	0	0	18	0	0	0	0	18	0	297	0	0	0	0	297	1	1	0	0	0	0	1	0	0	0	0	0	0	0	10		RICHARD PIATT	6204356417	3/9/2004	3/11/2004		
2003	20030574	ELK RIVER PUBLIC UTIL DIST	4370	217 S. JACKSON STREET	TULLAHOMA	COFFEE	TN	37388						 TN	0	0	0	247	413	0	0	0	0	0	660	0	0	0	3608	11700	0	0	0	0	0	15308	0	112	33	102	0	0	247	0	0	0	0	0	0	0	0	0	0	0	0	0	0	0	0	0	0	0	0	0	0	0	0	0	0	0	0	0	147	227	39	0	0	413	0	0	0	0	0	0	0	0	0	0	0	0	0	0	0	0	0	0	0	0	0	0	259	260	141	0	0	660	100	0	3529	77	1	0	0	3607	0	0	0	0	0	0	0	0	0	0	0	0	0	0	0	0	0	0	0	0	0	0	0	0	0	0	0	0	0	11588	108	5	0	0	11701	0	0	0	0	0	0	0	0	0	0	0	0	0	0	0	0	0	0	0	0	0	0	15117	185	6	0	0	15308	13	23	0	3	16	41	4	11	9	1	0	0	14	0	0.92		EDDIE MOFFITT	9314559311	3/9/2004	3/11/2004		
2003	20030575	MAURY CITY MUNICIPAL GAS SYSTEM	12234	PO BOX 245 332 N BROADWAY	MAURY CITY	CROCKETT	TN	38050						 TN	0	0	0	18	33	0	0	0	0	0	51	0	0	0	554	331	0	0	0	0	0	885	0	0	18	0	0	0	18	0	0	0	0	0	0	0	0	0	0	0	0	0	0	0	0	0	0	0	0	0	0	0	0	0	0	0	0	0	11	13	9	0	0	33	0	0	0	0	0	0	0	0	0	0	0	0	0	0	0	0	0	0	0	0	0	0	11	31	9	0	0	51	0	0	550	4	0	0	0	554	0	0	0	0	0	0	0	0	0	0	0	0	0	0	0	0	0	0	0	0	0	0	0	0	0	0	0	0	0	331	0	0	0	0	331	0	0	0	0	0	0	0	0	0	0	0	0	0	0	0	0	0	0	0	0	0	0	881	4	0	0	0	885	0	0	0	0	0	0	0	0	0	0	0	0	0	0	1		JOE HALL	7316562119	3/9/2004	3/11/2004		
2003	20030576	"SALEM, CITY OF"	18088	101 SOUTH BROADWAY	SALEM 	MARION	IL	62881						 IL	0	0	0	56	34	0	0	0	0	0	90	0	0	0	107	2035	0	0	1180	0	0	3322	0	13	33	10	0	0	56	0	0	0	0	0	0	0	0	0	0	0	0	0	0	0	0	0	0	0	0	0	0	0	0	0	0	0	0	0	17	17	0	0	0	34	0	0	0	0	0	0	0	0	0	0	0	0	0	0	0	0	0	0	0	0	0	0	30	50	10	0	0	90	50	0	99	0	8	0	0	107	0	0	0	0	0	0	0	0	1180	0	0	0	0	1180	0	0	0	0	0	0	0	0	0	0	0	0	0	0	0	2031	4	0	0	0	2035	0	0	0	0	0	0	0	0	0	0	0	0	0	0	0	0	0	0	0	0	0	0	3310	4	8	0	0	3322	0	4	0	0	10	8	4	6	0	0	0	0	0	0	0	"UNACCOUNTED FOR GAS -3%    1. ACTUAL NUMBER OF COOPER SERVICES IN PART ""B"" 1 &3, FROM FIELD SURVEY."	"ROBERT ERXLEBEN, JR."	6185483116	3/9/2004	3/11/2004		
2003	20030577	WASHINGTON NATURAL GAS SYSTEM	22196	405 N. WASHINGTON ST.	WASHINGTON	ST LANDRY	LA	70589						 LA	0	0	0	13	21	0	0	0	0	0	34	0	0	0	297	529	0	0	0	0	0	826	0	3	10	0	0	0	13	0	0	0	0	0	0	0	0	0	0	0	0	0	0	0	0	0	0	0	0	0	0	0	0	0	0	0	0	0	21	0	0	0	0	21	0	0	0	0	0	0	0	0	0	0	0	0	0	0	0	0	0	0	0	0	0	0	24	10	0	0	0	34	50	0	295	2	0	0	0	297	0	0	0	0	0	0	0	0	0	0	0	0	0	0	0	0	0	0	0	0	0	0	0	0	0	0	0	0	0	527	2	0	0	0	529	0	0	0	0	0	0	0	0	0	0	0	0	0	0	0	0	0	0	0	0	0	0	822	4	0	0	0	826	0	0	0	0	3	1	0	0	0	0	0	22	0	0	0.07	6 SIX LEAKS WERE FORM LEAK SURVEY  16 SIXTEEN LEAKS WERE FROM TELEPHONE CALLS	BERNARD J. NEVILLS	3378263626	3/9/2004	3/11/2004		
2003	20030578	MIDDLE TENNESSEE NATURAL GAS UTIL DIST	12438	1036 WEST BROAD STREET	SMITHVILLE	DEKALB	TN	37166						 TN	0	0	0	890	2176	0	0	0	0	0	3066	0	0	0	11020	48792	0	0	0	0	0	59812	0	333	243	272	42	0	890	0	0	0	0	0	0	0	0	0	0	0	0	0	0	0	0	0	0	0	0	0	0	0	0	0	0	0	0	0	1838	330	8	0	0	2176	0	0	0	0	0	0	0	0	0	0	0	0	0	0	0	0	0	0	0	0	0	0	2171	573	280	42	0	3066	184	0	10984	31	2	3	0	11020	0	0	0	0	0	0	0	0	0	0	0	0	0	0	0	0	0	0	0	0	0	0	0	0	0	0	0	0	0	48510	269	13	0	0	48792	0	0	0	0	0	0	0	0	0	0	0	0	0	0	0	0	0	0	0	0	0	0	59494	300	15	3	0	59812	6	8	8	22	77	330	18	19	4	3	4	1	134	0	0		"HELEN MORSE, P.E. ENGINEER"	6155974300	3/9/2004	3/11/2004		
2003	20030579	GRAETTINGER MUNICIPAL GAS SYSTEM	6470	104 S. CEDAR AVENUE	GRAETTINGER	IOWA	IA	51342						 IA	0	0	0	7	3	0	0	0	0	0	10	0	0	0	343	86	0	0	0	0	0	429	0	4	2	1	0	0	7	0	0	0	0	0	0	0	0	0	0	0	0	0	0	0	0	0	0	0	0	0	0	0	0	0	0	0	0	0	3	0	0	0	0	3	0	0	0	0	0	0	0	0	0	0	0	0	0	0	0	0	0	0	0	0	0	0	7	2	1	0	0	10	83	0	316	26	2	0	0	344	0	0	0	0	0	0	0	0	0	0	0	0	0	0	0	0	0	0	0	0	0	0	0	0	0	0	0	0	0	81	4	0	0	0	85	0	0	0	0	0	0	0	0	0	0	0	0	0	0	0	0	0	0	0	0	0	0	397	30	2	0	0	429	0	0	0	0	0	0	0	1	0	0	0	0	0	0	0		PAUL KROENKE	7128593742	3/9/2004	3/11/2004		
2003	20030580	"KUTTAWA NATURAL GAS, CITY OF"	10350	90 BEECH STREET	KUTTAWA	LYON	KY	42055						 KY	0	0	0	53	4	0	0	0	0	0	57	0	0	0	700	34	0	0	0	0	0	734	0	2	51	0	0	0	53	0	0	0	0	0	0	0	0	0	0	0	0	0	0	0	0	0	0	0	0	0	0	0	0	0	0	0	0	0	4	0	0	0	0	4	0	0	0	0	0	0	0	0	0	0	0	0	0	0	0	0	0	0	0	0	0	0	6	51	0	0	0	57	80	0	700	0	0	0	0	700	0	0	0	0	0	0	0	0	0	0	0	0	0	0	0	0	0	0	0	0	0	0	0	0	0	0	0	0	0	34	0	0	0	0	34	0	0	0	0	0	0	0	0	0	0	0	0	0	0	0	0	0	0	0	0	0	0	734	0	0	0	0	734	1	1	0	0	0	0	2	0	0	0	0	0	0	0	0	UNACCOUNTED FOR GAS -0.17% 	WILLIAM C. ROBERTSON	2703887151	3/9/2004	3/11/2004		
2003	20030581	"ENUMCLAW GAS DEPT, CITY OF"	4500	2041 RAILROAD STREET	ENUMCLAW	KING	WA	98022						 WA	0	0	0	63	34	0	0	0	0	0	97	0	174	0	932	2691	0	0	0	0	0	3797	0	40	10	13	0	0	63	0	0	0	0	0	0	0	0	0	0	0	0	0	0	0	0	0	0	0	0	0	0	0	0	0	0	0	0	0	34	0	0	0	0	34	0	0	0	0	0	0	0	0	0	0	0	0	0	0	0	0	0	0	0	0	0	0	74	10	13	0	0	97	75	0	1095	11	0	0	0	1106	0	0	0	0	0	0	0	0	0	0	0	0	0	0	0	0	0	0	0	0	0	0	0	0	0	0	0	0	0	2687	4	0	0	0	2691	0	0	0	0	0	0	0	0	0	0	0	0	0	0	0	0	0	0	0	0	0	0	3782	15	0	0	0	3797	0	2	0	0	0	9	0	3	0	0	0	1	0	0	1		VICKIE FORLER	3608253593	3/9/2004	3/11/2004		
2003	20030582	WALTHALL NATURAL GAS CO INC	22119	PO BOX 444 613 BEULAH AVE	TYLERTOWN	WALTHALL	MS	39667						 MS	0	0	0	17	6	0	0	0	0	0	23	0	0	0	668	146	0	0	0	0	0	814	0	11	3	3	0	0	17	0	0	0	0	0	0	0	0	0	0	0	0	0	0	0	0	0	0	0	0	0	0	0	0	0	0	0	0	0	6	0	0	0	0	6	0	0	0	0	0	0	0	0	0	0	0	0	0	0	0	0	0	0	0	0	0	0	17	3	3	0	0	23	100	0	655	12	1	0	0	668	0	0	0	0	0	0	0	0	0	0	0	0	0	0	0	0	0	0	0	0	0	0	0	0	0	0	0	0	0	136	10	0	0	0	146	0	0	0	0	0	0	0	0	0	0	0	0	0	0	0	0	0	0	0	0	0	0	791	22	1	0	0	814	0	0	0	0	0	3	1	0	0	1	0	6	0	0	1.35		TONY O. ARD	6018763415	3/9/2004	3/11/2004		
2003	20030583	ORLANDO PUBLIC WORKS AUTH	14355	PO BOX 27 500 4TH ST	ORLANDO	LOGAN	OK	73073						 OK	0	0	0	0	4	0	0	0	0	0	4	0	0	0	0	85	0	0	0	0	0	85	0	0	0	0	0	0	0	0	0	0	0	0	0	0	0	0	0	0	0	0	0	0	0	0	0	0	0	0	0	0	0	0	0	0	0	0	4	0	0	0	0	4	0	0	0	0	0	0	0	0	0	0	0	0	0	0	0	0	0	0	0	0	0	0	4	0	0	0	0	4	20	0	0	0	0	0	0	0	0	0	0	0	0	0	0	0	0	0	0	0	0	0	0	0	0	0	0	0	0	0	0	0	0	0	0	0	0	82	3	0	0	0	85	0	0	0	0	0	0	0	0	0	0	0	0	0	0	0	0	0	0	0	0	0	0	82	3	0	0	0	85	0	0	0	0	0	0	0	0	0	0	0	0	0	0	2.4		KYLA GOLAY	5804552403	3/9/2004	3/11/2004		
2003	20030584	MOUNTAINEER GAS CO	12878	2401 SISSONVILLE DRIVE	CHARLESTON		WV	25312	10435 DOWNSVILLE	HAGERSTOWN		MD	21740	 WV	1521	138	16	898	1594	0	0	0	0	0	4167	53749	1261	4619	45371	115039	0	0	163	0	0	220202	0	586	1431	459	82	15	2573	0	0	0	0	0	0	0	0	0	0	0	0	0	0	0	0	0	0	0	0	0	0	0	0	0	0	0	0	0	866	615	112	1	0	1594	0	0	0	0	0	0	0	0	0	0	0	0	0	0	0	0	0	0	0	0	0	0	1452	2046	571	83	15	4167	21	0	104063	0	910	27	0	105000	0	0	0	0	0	0	0	0	157	6	0	0	0	163	0	0	0	0	0	0	0	0	0	0	0	0	0	0	0	111789	2996	247	5	2	115039	0	0	0	0	0	0	0	0	0	0	0	0	0	0	0	0	0	0	0	0	0	0	216009	3002	1157	32	2	220202	1847	698	58	100	68	130	18	15	24	47	476	224	1152	0	2.88	"INCLUDES THE ASSETS OF LARGER GAS CO-OP ASSOCIATION, LAEGER, WV."	DAVID R. OLIVER-SENIOR ENGINEER	3043470549	3/9/2004	3/11/2004		
2003	20030585	SOUTHERN CONNECTICUT GAS CO	18496	855 MAIN STREET	BRIDGEPORT	FAIRFIELD	CT	6604						 CT	95	26	0	630	697	753	8	0	0	0	2209	42365	4700	0	6662	71045	0	0	240	0	0	125012	0	179	158	220	144	50	751	0	0	0	8	0	0	8	0	0	0	0	0	0	0	0	0	255	393	93	12	753	0	0	0	0	0	0	0	0	291	190	214	2	0	697	0	0	0	0	0	0	0	0	0	0	0	0	0	0	0	0	0	0	0	0	0	0	470	603	835	239	62	2209	60	0	16911	35868	935	12	1	53727	0	0	0	0	0	0	0	0	176	64	0	0	0	240	0	0	0	0	0	0	0	0	0	0	0	0	0	0	0	36888	33379	759	19	0	71045	0	0	0	0	0	0	0	0	0	0	0	0	0	0	0	0	0	0	0	0	0	0	53975	69311	1694	31	1	125012	16	330	116	18	6	125	4	5	0	2	200	61	402	0	2.29		"EDWARD V. ANDRUSKIWEC, JR."	2037957781	3/9/2004	3/11/2004		
2003	20030586	HARTWELL GAS DEPT	7120	500 E. HOWELL STREET	GEORGIA	HART	GA	30643						 GA	0	0	19	36	59	0	0	0	0	0	114	0	22	323	904	1265	0	0	0	0	0	2514	0	40	10	5	0	0	55	0	0	0	0	0	0	0	0	0	0	0	0	0	0	0	0	0	0	0	0	0	0	0	0	0	0	0	0	25	32	2	0	0	0	59	0	0	0	0	0	0	0	0	0	0	0	0	0	0	0	0	0	0	0	0	0	25	72	12	5	0	0	114	100	0	1193	54	2	0	0	1249	0	0	0	0	0	0	0	0	0	0	0	0	0	0	0	0	0	0	0	0	0	0	0	0	0	0	0	0	0	1241	20	4	0	0	1265	0	0	0	0	0	0	0	0	0	0	0	0	0	0	0	0	0	0	0	0	0	0	2434	74	6	0	0	2514	3	13	2	1	3	6	0	6	1	9	2	2	44	0	1.5	"THIS REPORT PREPARED BY:   MUNICIPAL GAS AUTHORITY OF GEORGIA 104 TOWNPARK DRIVE KENNESAW, GA 30144 678/819-0904    THIS REPORT COMPILED FROM INFORMATION SUPPLIED BY:  AUDIE LAVIOLETTE, GAS SUPERINTENDENT CITY OF HARTWELL, GEORGIA"	CHRIS STRIPPELHOFF	6788190904	3/9/2004	3/11/2004		
2003	20030587	VIROQUA GAS CO	12906	"PO BOX 109, 526 E DECKER "	VIROGUA 	VERNON	WI	54665	133 S BLAIR ST					 WI	0	0	0	16	26	0	0	0	0	0	42	0	0	0	547	1250	0	0	0	0	0	1797	0	9	4	3	0	0	16	0	0	0	0	0	0	0	0	0	0	0	0	0	0	0	0	0	0	0	0	0	0	0	0	0	0	0	0	0	20	6	0	0	0	26	0	0	0	0	0	0	0	0	0	0	0	0	0	0	0	0	0	0	0	0	0	0	29	10	3	0	0	42	0	0	537	10	0	0	0	547	0	0	0	0	0	0	0	0	0	0	0	0	0	0	0	0	0	0	0	0	0	0	0	0	0	0	0	0	0	1248	2	0	0	0	1250	0	0	0	0	0	0	0	0	0	0	0	0	0	0	0	0	0	0	0	0	0	0	1785	12	0	0	0	1797	0	0	0	0	0	1	0	0	0	0	0	0	0	0	0		MICHAEL R. POWERS	6086373139	3/9/2004	3/11/2004		
2003	20030589	OXFORD HOUSING AUTH	14425	101 HILLSIDE DRIVE	OXFORD	GRANVILLE	NC	27565						 AK	0	0	0	2	0	0	0	0	0	0	2	0	0	0	138	26	0	0	0	0	0	164	0	2	0	0	0	0	2	0	0	0	0	0	0	0	0	0	0	0	0	0	0	0	0	0	0	0	0	0	0	0	0	0	0	0	0	0	0	0	0	0	0	0	0	0	0	0	0	0	0	0	0	0	0	0	0	0	0	0	0	0	0	0	0	0	2	0	0	0	0	2	10	0	138	0	0	0	0	138	0	0	0	0	0	0	0	0	0	0	0	0	0	0	0	0	0	0	0	0	0	0	0	0	0	0	0	0	0	26	0	0	0	0	26	0	0	0	0	0	0	0	0	0	0	0	0	0	0	0	0	0	0	0	0	0	0	164	0	0	0	0	164	0	0	0	0	0	0	0	0	0	0	0	17	0	0	0.05		DANNY HOLLOWAY MAINTENANCE SUPERVISOR	9196936936	3/9/2004	3/11/2004		
2003	20030590	"TRUSSVILLE, UTILITIES BOARD, CITY OF"	19740	127 MAIN STREET	TRUSSVILLE	JEFFERSON	AL	35173						 AL	0	0	0	285	176	0	0	0	0	0	461	0	0	0	3948	16793	0	0	0	0	0	20741	0	0	0	0	0	0	0	0	39	194	52	0	0	285	0	0	0	0	0	0	0	0	0	0	0	0	0	0	0	0	0	0	0	0	0	0	110	66	0	0	0	176	0	0	0	0	0	0	0	0	0	0	0	0	0	0	0	0	0	0	0	0	0	0	149	260	52	0	0	461	95	0	3910	37	1	0	0	3948	0	0	0	0	0	0	0	0	0	0	0	0	0	0	0	0	0	0	0	0	0	0	0	0	0	0	0	0	0	16777	15	1	0	0	16793	0	0	0	0	0	0	0	0	0	0	0	0	0	0	0	0	0	0	0	0	0	0	20687	52	2	0	0	20741	0	5	9	74	4	12	1	5	1	7	0	0	0	0	0.015		PAT SIMS	2056553211	3/9/2004	4/28/2004		
2003	20030591	SYLACAUGA GAS SYSTEM	18784	1414 EDWARDS STREET	SYLACAUGA	TALLADEGA	AL	35150	PO BOX 207	SYLACAUGA	TALLADEGA	AL	35150	 AL	0	0	0	350	169	55	0	0	0	0	574	0	0	2299	2002	2476	0	0	0	0	0	6777	0	50	183	84	33	0	350	0	0	0	0	0	0	0	0	0	0	0	0	0	0	0	13	42	0	0	0	55	0	0	0	0	0	0	0	0	136	33	0	0	0	169	0	0	0	0	0	0	0	0	0	0	0	0	0	0	0	0	0	0	0	0	0	0	199	258	84	33	0	574	105	0	3846	393	60	2	0	4301	0	0	0	0	0	0	0	0	0	0	0	0	0	0	0	0	0	0	0	0	0	0	0	0	0	0	0	0	0	2466	9	1	0	0	2476	0	0	0	0	0	0	0	0	0	0	0	0	0	0	0	0	0	0	0	0	0	0	6312	402	61	2	0	6777	35	46	1	1	21	24	7	35	3	79	0	2	4	0	0		MITCHELL S. MILLER	2562490372	3/9/2004	3/11/2004		
2003	20030592	ALLERTON GAS CO	315	120 N. CENTRAL AVE.	ALLERTON	WAYNE	IA	50008						 IA	0	0	0	6	0	0	0	0	0	0	6	0	0	0	335	0	0	0	0	0	0	335	0	4	1	1	0	0	6	0	0	0	0	0	0	0	0	0	0	0	0	0	0	0	0	0	0	0	0	0	0	0	0	0	0	0	0	0	0	0	0	0	0	0	0	0	0	0	0	0	0	0	0	0	0	0	0	0	0	0	0	0	0	0	0	0	4	1	1	0	0	6	79	0	305	30	0	0	0	335	0	0	0	0	0	0	0	0	0	0	0	0	0	0	0	0	0	0	0	0	0	0	0	0	0	0	0	0	0	0	0	0	0	0	0	0	0	0	0	0	0	0	0	0	0	0	0	0	0	0	0	0	0	0	0	0	0	305	30	0	0	0	335	0	0	0	0	0	0	0	0	0	0	0	13	0	0	0		WILLIAM BUSS	6414374478	3/9/2004	3/11/2004		
2003	20030593	MONTEZUMA NATURAL GAS DEPT	12732	501 E. NAIN PO BOX 567	MONTEZUMA	POWESHIEK	IA	50171						 IA	0	0	0	15	1	0	0	0	0	0	16	0	0	0	810	36	0	0	0	0	0	846	0	11	2	0	0	0	13	0	0	0	0	0	0	0	0	0	0	0	0	0	0	0	0	0	0	0	0	0	0	0	0	0	0	0	0	0	2	1	0	0	0	3	0	0	0	0	0	0	0	0	0	0	0	0	0	0	0	0	0	0	0	0	0	0	13	3	0	0	0	16	104	0	664	139	5	0	0	808	0	0	0	0	0	0	0	0	0	0	0	0	0	0	0	0	0	0	0	0	0	0	0	0	0	0	0	0	0	34	4	0	0	0	38	0	0	0	0	0	0	0	0	0	0	0	0	0	0	0	0	0	0	0	0	0	0	698	143	5	0	0	846	0	0	0	0	0	0	0	0	0	0	0	7	7	0	0		"HALL ENGINEERING CO., ENGINEERS FOR MONTEZ NATURAL GAS DEPT."	6414374477	3/9/2004	3/11/2004		
2003	20030594	BALTIMORE GAS & ELECTRIC CO	1088	1699 LEADENHALL STREET	BALTIMORE		MD	21230						 MD	101	0	0	2789	2124	1386	0	0	0	0	6400	85135	0	0	103510	276477	0	0	29019	0	0	494141	0	1387	564	730	154	55	2890	0	0	0	0	0	0	0	0	0	0	0	0	0	0	0	0	427	666	158	135	1386	0	0	0	0	0	0	0	0	1528	477	118	1	0	2124	0	0	0	0	0	0	0	0	0	0	0	0	0	0	0	0	0	0	0	0	0	0	2915	1468	1514	313	190	6400	75	0	70737	115069	2482	265	92	188645	0	0	0	0	0	0	0	0	29011	8	0	0	0	29019	0	0	0	0	0	0	0	0	0	0	0	0	0	0	0	250105	25885	415	60	12	276477	0	0	0	0	0	0	0	0	0	0	0	0	0	0	0	0	0	0	0	0	0	0	349853	140962	2897	325	104	494141	272	2458	190	29	109	461	0	0	0	0	1886	1410	505	0	1.25	NOTE 1: ALL DATA NOW PROVIDED BY A NEW ACCOUNTING SYSTEM (ATLAS).	"DANIEL R. DELMONICO, GAS TECHNICAL SPECIALIST"	4102914791	3/9/2004	3/11/2004		
2003	20030595	DES ARC MUNICIPAL GAS CO	3330	107 S. THIRD STREET	DES ARC	PRAIRIE	AR	72040						 AR	0	0	0	23	25	0	0	0	0	0	48	0	0	0	530	184	0	0	0	0	0	714	0	5	18	0	0	0	23	0	0	0	0	0	0	0	0	0	0	0	0	0	0	0	0	0	0	0	0	0	0	0	0	0	0	0	0	0	18	7	0	0	0	25	0	0	0	0	0	0	0	0	0	0	0	0	0	0	0	0	0	0	0	0	0	0	23	25	0	0	0	48	53	0	523	7	0	0	0	530	0	0	0	0	0	0	0	0	0	0	0	0	0	0	0	0	0	0	0	0	0	0	0	0	0	0	0	0	0	177	7	0	0	0	184	0	0	0	0	0	0	0	0	0	0	0	0	0	0	0	0	0	0	0	0	0	0	700	14	0	0	0	714	0	2	0	0	1	0	0	0	0	2	0	0	0	0	8		ROBERT CHRISTENSEN	9704343622	3/9/2004	3/11/2004		
2003	20030596	ETOWAH UTILITIES	4567	1317 TENN AVE BOX 927    	ETOWAH	MCMINN	TN	37331						 TN	0	0	0	31	69	0	0	0	0	0	100	0	0	0	254	1651	0	0	439	0	0	2344	0	10	7	14	0	0	31	0	0	0	0	0	0	0	0	0	0	0	0	0	0	0	0	0	0	0	0	0	0	0	0	0	0	0	0	0	61	6	2	0	0	69	0	0	0	0	0	0	0	0	0	0	0	0	0	0	0	0	0	0	0	0	0	0	71	13	16	0	0	100	0	0	241	10	0	3	0	254	0	0	0	0	0	0	0	0	439	0	0	0	0	439	0	0	0	0	0	0	0	0	0	0	0	0	0	0	0	1646	5	0	0	0	1651	0	0	0	0	0	0	0	0	0	0	0	0	0	0	0	0	0	0	0	0	0	0	2326	15	0	3	0	2344	0	1	1	0	2	2	0	0	0	0	0	0	0	0	1		BOB LAMBERT JR.	4232639441	3/9/2004	3/11/2004		
2003	20030597	WESTFIELD GAS & ELECTRIC LIGHT DEPT	22511	40 TURNPIKE IND PARK ROAD	WESTFIELD	HAMPDEN	MA	1085	100 ELM STREET	WESTFIELD	HAMPDEN	MA	1085	 MA	0	0	0	53	79	58	0	0	0	0	190	2097	0	0	479	4478	3	0	0	0	0	7057	0	3	34	16	0	0	53	0	0	0	0	0	0	0	0	0	0	0	0	0	0	0	0	25	30	3	0	58	0	0	0	0	0	0	0	0	40	31	8	0	0	79	0	0	0	0	0	0	0	0	0	0	0	0	0	0	0	0	0	0	0	0	0	0	43	90	54	3	0	190	76	34	95	2430	17	0	0	2576	0	0	0	0	0	0	0	0	0	0	0	0	0	0	0	0	0	2	1	0	3	0	0	0	0	0	0	0	0	3278	1188	12	0	0	4478	0	0	0	0	0	0	0	0	0	0	0	0	0	0	0	0	0	0	0	0	0	34	3373	3618	31	1	0	7057	6	8	10	4	0	0	0	1	0	0	29	7	73	0	3.74	THE WESTFIELD GAS & ELECTRIC NORMALLY SURVEYS ONE THIRD OF ITS DISTRIBUTION SYSTEM EVERY YEAR WHICH PROVIDES EACH AREA TO BE SURVEYED ON A THREE YEAR BASIS.  PROACTIVELY THE DEPARTMENT SURVEYED ITS ENTIRE DISTRIBUTION SYSTEM IN 2003.  THE INCREASE IN LEAKS FROM 2002 IS A RESULT OF THIS MORE ENCOMPASSING SURVEY APPROACH.	THOMAS BRODERICK	4135720223	3/9/2004	3/11/2004		
2003	20030598	"TOMBALL GAS DEPT, CITY OF"	19520	501 JAMES STREET	TOMBALL	HARRIS	TX	77375	401 MARKET STREET	TOMBALL	HARRIS	TX	77375	 TX	0	0	0	2	50	0	0	0	0	0	52	0	0	0	8	2425	0	0	0	0	0	2433	0	0	1	1	0	0	2	0	0	0	0	0	0	0	0	0	0	0	0	0	0	0	0	0	0	0	0	0	0	0	0	0	0	0	0	0	33	16	1	0	0	50	0	0	0	0	0	0	0	0	0	0	0	0	0	0	0	0	0	0	0	0	0	0	33	17	2	0	0	52	30	0	8	0	0	0	0	8	0	0	0	0	0	0	0	0	0	0	0	0	0	0	0	0	0	0	0	0	0	0	0	0	0	0	0	0	0	2385	40	0	0	0	2425	0	0	0	0	0	0	0	0	0	0	0	0	0	0	0	0	0	0	0	0	0	0	2393	40	0	0	0	2433	0	0	0	0	2	1	0	2	0	0	0	0	0	0	3.08		RODNEY LEBLANC	2813515484	3/9/2004	3/16/2004		
2003	20030599	ST JOE NATURAL GAS CO INC	25136	301 LONG AVENUE	PORT ST. JOE		FL	32456						 FL	0	0	0	71	78	0	0	0	0	0	149	0	0	0	1054	2755	0	0	0	0	0	3809	0	19	28	24	0	0	71	0	0	0	0	0	0	0	0	0	0	0	0	0	0	0	0	0	0	0	0	0	0	0	0	0	0	0	0	0	70	8	0	0	0	78	0	0	0	0	0	0	0	0	0	0	0	0	0	0	0	0	0	0	0	0	0	0	89	36	24	0	0	149	97	0	1036	13	4	1	0	1054	0	0	0	0	0	0	0	0	0	0	0	0	0	0	0	0	0	0	0	0	0	0	0	0	0	0	0	0	0	2746	9	0	0	0	2755	0	0	0	0	0	0	0	0	0	0	0	0	0	0	0	0	0	0	0	0	0	0	3782	22	4	1	0	3809	0	5	0	1	0	24	0	5	0	12	0	0	4	0	0		STUART SHOAF	8502298216	3/12/2004	3/16/2004		
2003	20030600	"WAGON MOUND GAS SYSTEM, VILLAGE OF"	22021	600 CATRON AVE PO BOX 87	WAGON MOUND	MORA	NM	87752						 NM	0	0	0	0	4	0	0	0	0	0	4	0	0	0	4	130	0	0	0	0	0	134	0	0	0	0	0	0	0	0	0	0	0	0	0	0	0	0	0	0	0	0	0	0	0	0	0	0	0	0	0	0	0	0	0	0	0	0	3	1	0	0	0	4	0	0	0	0	0	0	0	0	0	0	0	0	0	0	0	0	0	0	0	0	0	0	3	1	0	0	0	4	10	0	4	0	0	0	0	4	0	0	0	0	0	0	0	0	0	0	0	0	0	0	0	0	0	0	0	0	0	0	0	0	0	0	0	0	0	130	0	0	0	0	130	0	0	0	0	0	0	0	0	0	0	0	0	0	0	0	0	0	0	0	0	0	0	134	0	0	0	0	134	0	0	0	0	0	1	0	0	0	0	0	0	0	0	0.33		"FRANCES LOVATO, OFFICE AIDE"	5056662408	3/4/2004	3/16/2004		
2003	20030601	BOSTON GAS CO	1640	52 SECOND AVENUE	WALTHAM		MA	2541						 MA	996	325	165	1013	1192	2366	0	0	1	3	6061	165350	9426	0	82062	168230	4050	0	13845	75770	0	518733	0	898	750	615	157	82	2502	0	0	0	0	0	0	0	0	0	0	0	0	0	0	0	33	903	1082	237	111	2366	0	0	0	0	0	0	0	0	358	339	490	5	0	1192	0	0	0	0	0	0	0	1	0	0	0	0	0	1	0	0	0	0	0	0	0	1	1289	1992	2187	399	193	6061	39	3907	60555	185971	5744	620	41	256838	0	0	0	0	0	0	0	89	12070	1683	2	1	0	13845	119	1390	2413	117	11	0	4050	0	0	0	0	0	0	0	108	98997	65408	3242	467	8	168230	0	0	0	0	0	0	0	26565	4574	43749	818	62	2	75770	0	0	0	0	0	0	0	30788	177586	299224	9923	1161	51	518733	1863	1550	2806	783	98	671	28	41	622	174	1396	563	1814	0	2.6		ATAUN BOSSARANGSI	7814665217	3/10/2004	3/16/2004		
2003	20030602	CAPE COD GAS CO (DIV OF COLONIAL GAS CO)	2066	52 SECOND AVENUE	WALTHAM		MA	2541						 MA	202	53	46	667	1387	0	0	0	0	0	2355	4744	8232	449	21218	59072	0	0	0	3091	0	96806	0	690	147	74	57	0	968	0	0	0	0	0	0	0	0	0	0	0	0	0	0	0	0	0	0	0	0	0	0	0	0	0	0	0	0	0	1077	207	103	0	0	1387	0	0	0	0	0	0	0	0	0	0	0	0	0	0	0	0	0	0	0	0	0	0	1767	354	177	57	0	2355	18	0	34401	239	3	0	0	34643	0	0	0	0	0	0	0	0	0	0	0	0	0	0	0	0	0	0	0	0	0	0	0	0	0	0	0	0	0	58280	777	14	1	0	59072	0	0	0	0	0	0	0	3033	58	0	0	0	0	3091	0	0	0	0	0	0	0	3033	92739	1016	17	1	0	96806	223	112	4	19	28	104	6	5	5	6	16	50	52	0	1.2		ATAUN BOSSARANGSI	7814665217	3/10/2004	3/16/2004		
2003	20030603	COLONIAL GAS CO - LOWELL DIV	11856	52 SECOND AVENUE	WALTHAM		MA	2541						 MA	54	32	8	605	522	133	0	0	0	1	1355	6012	13752	0	19425	29455	0	0	0	2852	0	71496	0	291	234	158	17	0	700	0	0	0	0	0	0	0	0	0	0	0	0	0	0	0	0	60	54	15	4	133	0	0	0	0	0	0	0	0	338	142	42	0	0	522	0	0	0	0	0	0	0	0	0	0	0	0	0	0	0	0	0	0	0	0	0	0	629	436	254	32	4	1355	19	0	21576	17458	146	9	0	39189	0	0	0	0	0	0	0	0	0	0	0	0	0	0	0	0	0	0	0	0	0	0	0	0	0	0	0	0	0	24589	4751	110	2	3	29455	0	0	0	0	0	0	0	2852	0	0	0	0	0	2852	0	0	0	0	0	0	0	2852	46165	22209	256	11	3	71496	86	144	38	13	13	114	0	1	20	33	81	45	11	0	1.2		ATAUN BOSSARANGSI	7814665217	3/10/2004	3/16/2004		
2003	20030604	ESSEX COUNTY GAS CO	4547	52 SECOND AVENUE	WALTHAM		MA	2541						 MA	21	38	16	291	364	98	0	0	0	3	831	4997	2876	0	3271	23541	12	0	0	8188	0	42885	0	133	109	89	31	7	369	0	0	0	0	0	0	0	0	0	0	0	0	0	0	0	10	53	23	11	1	98	0	0	0	0	0	0	0	0	218	87	59	0	0	364	0	0	0	0	0	0	0	0	0	0	0	0	0	0	0	0	0	0	0	0	0	0	361	249	171	42	8	831	73	4	4940	6059	140	1	0	11144	0	0	0	0	0	0	0	0	0	0	0	0	0	0	0	1	6	5	0	0	12	0	0	0	0	0	0	0	12	17228	6225	72	4	0	23541	0	0	0	0	0	0	0	8113	56	16	3	0	0	8188	0	0	0	0	0	0	0	8129	22225	12306	220	5	0	42885	60	79	49	24	21	61	1	9	10	22	28	37	1	0	0.6		ATAUN BOSSARANGSI	7816665217	3/10/2004	3/16/2004		
2003	20030605	"GALLAWAY GAS DEPT, CITY OF"	6035	607 WATSON DR PO BOX 168	GALLAWAY	FAYETTE	TN	38036						 TN	0	0	0	0	13	0	0	0	0	0	13	0	0	0	0	207	0	0	0	0	0	207	0	0	1	0	0	0	1	0	0	0	0	0	0	0	0	0	0	0	0	0	0	0	0	0	0	0	0	0	0	3	12	0	0	0	15	0	0	0	0	0	0	0	0	0	0	0	0	0	0	0	0	0	0	0	0	0	0	0	0	0	0	0	0	0	3	13	0	0	0	16	30	0	0	0	0	0	0	0	0	0	0	0	0	0	0	0	0	0	0	0	0	0	0	0	0	0	0	0	0	0	200	6	1	0	0	207	0	0	0	0	0	0	0	0	0	0	0	0	0	0	0	0	0	0	0	0	0	0	0	0	0	0	0	0	0	200	6	1	0	0	207	0	0	0	0	0	0	0	0	0	0	0	0	0	0	0.21		BRADLEY JOHNSON	9018673333	3/10/2004	3/16/2004		
2003	20030606	ENERGY WEST WYOMING	2537	2320 MOUNTAIN VIEW DRIVE	CODY PARK 		WY		#1 FIRST AVENUE SOUTH 	GREAT FALLS 	CASCADE	MT	59401	 WY	0	0	72	94	137	0	0	0	0	0	303	0	0	306	3317	2619	0	0	0	0	0	6242	0	152	13	1	0	0	166	0	0	0	0	0	0	0	0	0	0	0	0	0	0	0	0	0	0	0	0	0	0	133	4	0	0	0	137	0	0	0	0	0	0	0	0	0	0	0	0	0	0	0	0	0	0	0	0	0	0	0	0	0	0	0	0	0	285	17	1	0	0	303	0	2568	1026	5	0	0	0	3599	0	0	0	0	0	0	0	0	0	0	0	0	0	0	0	0	0	0	0	0	0	0	2619	24	0	0	0	2643	0	0	0	0	0	0	0	0	0	0	0	0	0	0	0	0	0	0	0	0	0	0	0	0	0	0	0	0	2568	3645	29	0	0	0	6242	9	17	0	0	0	0	0	0	0	0	0	0	80	0	3.81		STACEY EVE	4067917541	3/10/2004	3/16/2004		
2003	20030607	SANBORN MUNICIPLE GAS DISTRICT	18108	102 MAIN STREET	SANBORN	O'BRIEN	IA	51248						 IA	0	0	0	17	0	0	0	0	0	0	17	0	0	0	578	0	0	0	0	0	0	578	0	13	2	1	0	0	16	0	0	0	0	0	0	0	0	0	0	0	0	0	0	0	0	0	0	0	0	0	0	0	0	0	0	0	0	0	0	1	0	0	0	1	0	0	0	0	0	0	0	0	0	0	0	0	0	0	0	0	0	0	0	0	0	0	13	3	1	0	0	17	75	0	570	5	1	0	0	576	0	0	0	0	0	0	0	0	0	0	0	0	0	0	0	0	0	0	0	0	0	0	0	0	0	0	0	0	0	2	0	0	0	0	2	0	0	0	0	0	0	0	0	0	0	0	0	0	0	0	0	0	0	0	0	0	0	572	5	1	0	0	578	0	0	0	0	0	0	0	0	0	0	0	0	0	0	0		JIM ZEUTENHORST	7129303842	3/10/2004	3/16/2004		
2003	20030608	SUNRAY UTILITIES SYSTEM	18736	PO BOX 250 415 MAIN 	SUNRAY		TX	79086						 TX	4	6	0	0	12	0	0	0	0	0	22	0	0	0	637	198	0	0	0	0	0	835	0	6	4	0	0	0	10	0	0	0	0	0	0	0	0	0	0	0	0	0	0	0	0	0	0	0	0	0	0	0	0	0	0	0	0	0	5	7	0	0	0	12	0	0	0	0	0	0	0	0	0	0	0	0	0	0	0	0	0	0	0	0	0	0	11	11	0	0	0	22	0	0	629	8	0	0	0	637	0	0	0	0	0	0	0	0	0	0	0	0	0	0	0	0	0	0	0	0	0	0	0	0	0	0	0	0	0	196	2	0	0	0	198	0	0	0	0	0	0	0	0	0	0	0	0	0	0	0	0	0	0	0	0	0	0	825	10	0	0	0	835	6	0	0	0	0	0	0	0	21	0	0	0	0	0	12.86		GREG SMITH	8069484111	3/10/2004	3/16/2004		
2003	20030609	SOUTHERN CALIFORNIA GAS CO	18484	BOX 527 #1 PEBBLY BEACH 	AVALON	LOS ANGELES	CA	90704						 CA	0	0	0	9	0	0	0	0	0	0	9	0	0	0	816	164	0	0	0	0	0	980	0	5	2	2	0	0	9	0	0	0	0	0	0	0	0	0	0	0	0	0	0	0	0	0	0	0	0	0	0	0	0	0	0	0	0	0	0	0	0	0	0	0	0	0	0	0	0	0	0	0	0	0	0	0	0	0	0	0	0	0	0	0	0	0	5	2	2	0	0	9	0	0	816	0	0	0	0	816	0	0	0	0	0	0	0	0	0	0	0	0	0	0	0	0	0	0	0	0	0	0	0	0	0	0	0	0	0	163	1	0	0	0	164	0	0	0	0	0	0	0	0	0	0	0	0	0	0	0	0	0	0	0	0	0	0	979	1	0	0	0	980	0	0	0	0	0	0	0	0	0	0	0	0	0	0	0.98	"ANNUAL GAS SURVEY WAS CONDUCTED BY 3RD PARTY, HEATH CONSULTANTS, IN NOVEMBER 2003.  NO LEAKS WERE DISCOVERED."	"GARY B. HUFFMAN, JR."	3105104315	3/10/2004	3/16/2004		
2003	20030610	RESERVE GAS CO INC	17240	BOX 207 13441 RAILROAD ST	ALDEN	ERIE	NY	14004						 NY	4	0	0	2	28	0	0	0	0	0	34	90	0	0	2	523	0	0	0	0	0	615	0	0	6	0	0	0	6	0	0	0	0	0	0	0	0	0	0	0	0	0	0	0	0	0	0	0	0	0	0	0	0	0	0	0	0	0	14	12	2	0	0	28	0	0	0	0	0	0	0	0	0	0	0	0	0	0	0	0	0	0	0	0	0	0	14	18	2	0	0	34	100	0	0	87	4	1	0	92	0	0	0	0	0	0	0	0	0	0	0	0	0	0	0	0	0	0	0	0	0	0	0	0	0	0	0	0	0	471	50	2	0	0	523	0	0	0	0	0	0	0	0	0	0	0	0	0	0	0	0	0	0	0	0	0	0	471	137	6	1	0	615	6	4	0	1	0	0	0	0	0	0	0	4	11	0	2		"RONALD S. DIETZ, JR."	7169379484	3/10/2004	3/16/2004		
2003	20030611	"NEWELLTON, TOWN OF - ST JOSEPH JOINT LINE"	13440	PO BOX 477	NEWELLTON		LA	71357						 LA	0	0	13	15	0	0	0	0	0	0	28	0	0	49	599	0	0	0	0	0	0	648	0	2	13	0	0	0	15	0	0	0	0	0	0	0	0	0	0	0	0	0	0	0	0	0	0	0	0	0	0	1	0	0	0	0	1	0	10	2	0	0	0	12	0	0	0	0	0	0	0	0	0	0	0	0	0	0	0	0	0	0	0	0	0	0	13	15	0	0	0	28	0	0	49	9	0	0	0	58	0	0	0	0	0	0	0	0	0	0	0	0	0	0	0	0	0	0	0	0	0	0	2	0	0	0	0	2	0	588	0	0	0	0	588	0	0	0	0	0	0	0	0	0	0	0	0	0	0	0	0	0	0	0	0	0	0	639	9	0	0	0	648	0	6	0	0	0	0	0	0	0	2	0	11	3	0	0		RHONDA KING		3/10/2004	3/16/2004		
2003	20030612	PERHAM MUNICIPAL GAS SYSTEM	15371	125 2ND AVE NE BOX 130   	PERHAM 	OTTERTAIL	MN	56573						 MN	0	0	0	44	96	0	0	0	0	0	140	0	0	0	924	1327	0	0	0	0	0	2251	0	16	26	1	1	0	44	0	0	0	0	0	0	0	0	0	0	0	0	0	0	0	0	0	0	0	0	0	0	0	0	0	0	0	0	0	57	37	2	0	0	96	0	0	0	0	0	0	0	0	0	0	0	0	0	0	0	0	0	0	0	0	0	0	73	63	3	1	0	140	160	0	895	25	4	0	0	924	0	0	0	0	0	0	0	0	0	0	0	0	0	0	0	0	0	0	0	0	0	0	0	0	0	0	0	0	0	1314	13	0	0	0	1327	0	0	0	0	0	0	0	0	0	0	0	0	0	0	0	0	0	0	0	0	0	0	2209	38	4	0	0	2251	0	0	0	0	0	4	0	0	0	0	0	0	0	0	0.94	PRIVATE CONTRACTORS HIT GAS LINES WHILE DOING CONSTRUCTION.	MARY HOLZER	2183464455	3/10/2004	3/16/2004		
2003	20030613	PRESTONSBURG CITY UTILITIES	15854	2560 SOUTH LAKE DRIVE	PRESTONBURG	FLOYD	KY	41653						 KY	0	0	0	0	54	0	0	0	0	0	54	0	0	0	0	968	0	0	0	0	0	968	0	0	0	0	0	0	0	0	0	0	0	0	0	0	0	0	0	0	0	0	0	0	0	0	0	0	0	0	0	0	0	0	0	0	0	0	19	19	16	0	0	54	0	0	0	0	0	0	0	0	0	0	0	0	0	0	0	0	0	0	0	0	0	0	19	19	16	0	0	54	30	0	0	0	0	0	0	0	0	0	0	0	0	0	0	0	0	0	0	0	0	0	0	0	0	0	0	0	0	0	0	0	0	0	0	0	0	941	24	2	1	0	968	0	0	0	0	0	0	0	0	0	0	0	0	0	0	0	0	0	0	0	0	0	0	941	24	2	1	0	968	0	0	1	1	2	6	0	0	0	0	2	1	0	0	0.031		DWIGHT SLONE	6068866871	3/10/2004	3/16/2004		
2003	20030614	TOWN OF FRANKLINTON	31860	301 11TH AVENUE	FRANKLINTON	WASHINGTON(PARISH)	LA	70438						 LA	0	0	0	28	2	0	0	0	0	0	30	0	0	0	1305	65	0	0	0	0	0	1370	0	24	0	4	0	0	28	0	0	0	0	0	0	0	0	0	0	0	0	0	0	0	0	0	0	0	0	0	0	0	0	0	0	0	0	0	2	0	0	0	0	2	0	0	0	0	0	0	0	0	0	0	0	0	0	0	0	0	0	0	0	0	0	0	26	0	4	0	0	30	32	0	1289	8	0	0	0	1297	0	0	0	0	0	0	0	0	0	0	0	0	0	0	0	0	0	0	0	0	0	0	0	0	0	0	0	0	0	72	1	0	0	0	73	0	0	0	0	0	0	0	0	0	0	0	0	0	0	0	0	0	0	0	0	0	0	1361	9	0	0	0	1370	1	0	0	0	0	0	0	0	0	0	0	0	0	0	5		LINWOOD CARKERN	9858399416	3/10/2004	3/16/2004		
2003	20030615	"BAGLEY NATURAL GAS, CITY OF"	31099	18 MAIN AVE. S.	BAGLEY 	CLEARWATER	MN	56621	PO BOX M	BAGLEY	CLEARWATER	MN	56621	 MN	0	0	0	8	16	0	0	0	0	0	24	0	0	0	0	432	0	0	0	0	0	432	0	0	8	0	0	0	8	0	0	0	0	0	0	0	0	0	0	0	0	0	0	0	0	0	0	0	0	0	0	0	0	0	0	0	0	0	11	5	0	0	0	16	0	0	0	0	0	0	0	0	0	0	0	0	0	0	0	0	0	0	0	0	0	0	11	13	0	0	0	24	100	0	0	0	0	0	0	0	0	0	0	0	0	0	0	0	0	0	0	0	0	0	0	0	0	0	0	0	0	0	0	0	0	0	0	0	0	427	5	0	0	0	432	0	0	0	0	0	0	0	0	0	0	0	0	0	0	0	0	0	0	0	0	0	0	427	5	0	0	0	432	0	0	0	0	0	4	0	0	0	1	0	16	0	0	0	"     THE THIRD PARTY LEAKS WERE GAS SERVICES DAMAGED BY A WATER/SEWER CONTRACTER ON THE LOMOND ANNEXATION.         THE MATERIAL DEFECT WAS A STICKING REGULATOR, WHICH WAS REPLACED.         OTHER LEAKS WERE FOUND UP AT METER SETS, AND DETERMINED TO BE CAUSED FROM DETERIORATION OF PIPE DOPE AND POSSIBLE PIPE MOVEMENT FROM SETTLING/FROST MOVEMENT."	DENNIS DANIELSON	2186942300	3/10/2004	3/16/2004		
2003	20030616	PRESQUE ISLE ELECTRIC & GAS COOPERATIVE	15845	19831 M-68 HWY	ONAWAY	PRESQUE ISLE	MI	49765						 MI	0	0	0	0	565	0	0	0	0	0	565	0	0	0	0	7848	0	0	0	0	0	7848	0	0	0	0	0	0	0	0	0	0	0	0	0	0	0	0	0	0	0	0	0	0	0	0	0	0	0	0	0	0	0	0	0	0	0	0	275	207	83	0	0	565	0	0	0	0	0	0	0	0	0	0	0	0	0	0	0	0	0	0	0	0	0	0	275	207	83	0	0	565	160	0	0	0	0	0	0	0	0	0	0	0	0	0	0	0	0	0	0	0	0	0	0	0	0	0	0	0	0	0	0	0	0	0	0	0	0	7809	38	1	0	0	7848	0	0	0	0	0	0	0	0	0	0	0	0	0	0	0	0	0	0	0	0	0	0	7809	38	1	0	0	7848	0	0	0	0	2	17	4	2	0	0	0	0	0	0	0		PETE ROSE	9897338515	3/10/2004	3/17/2004		
2003	20030617	"CORINTH GAS DEPT, CITY OF"	2788	PO BOX 1870	CORINTH	ALCORN	MS	38835						 MS	0	0	0	42	265	1	3	0	0	0	311	0	0	0	1196	6412	0	0	0	0	0	7608	0	19	11	12	0	0	42	0	0	0	3	0	0	3	0	0	0	0	0	0	0	0	0	0	1	0	0	1	0	0	0	0	0	0	0	0	176	68	21	0	0	265	0	0	0	0	0	0	0	0	0	0	0	0	0	0	0	0	0	0	0	0	0	0	195	79	37	0	0	311	116	0	1185	8	2	1	0	1196	0	0	0	0	0	0	0	0	0	0	0	0	0	0	0	0	0	0	0	0	0	0	0	0	0	0	0	0	0	6399	13	0	0	0	6412	0	0	0	0	0	0	0	0	0	0	0	0	0	0	0	0	0	0	0	0	0	0	7584	21	2	1	0	7608	0	0	0	0	0	0	0	0	0	0	4	0	0	0	2.1		BILL CALDWELL 	6622862263	3/10/2004	3/17/2004		
2003	20030618	MOULTON MUNICIPAL GAS SYSTEM	12823	111 S. MAIN STREET	MOULTON	APPANOOSE	IA	52572						 IA	0	0	0	0	5	0	0	0	0	0	5	0	0	0	4	341	0	0	0	0	0	345	0	0	0	0	0	0	0	0	0	0	0	0	0	0	0	0	0	0	0	0	0	0	0	0	0	0	0	0	0	0	0	0	0	0	0	0	4	1	0	0	0	5	0	0	0	0	0	0	0	0	0	0	0	0	0	0	0	0	0	0	0	0	0	0	4	1	0	0	0	5	0	0	4	0	0	0	0	4	0	0	0	0	0	0	0	0	0	0	0	0	0	0	0	0	0	0	0	0	0	0	0	0	0	0	0	0	0	332	9	0	0	0	341	0	0	0	0	0	0	0	0	0	0	0	0	0	0	0	0	0	0	0	0	0	0	336	9	0	0	0	345	0	0	1	0	0	0	0	0	0	0	0	0	0	0	24.4		ROGER HOUSER	6416423328	3/10/2004	3/17/2004		
2003	20030619	CHELSEA GAS AUTH	2292	635 OLIVER STREET	CHELSEA	ROGERS	OK	74016						 OK	0	0	0	81	97	0	0	0	0	0	178	0	0	0	1510	693	0	0	0	0	0	2203	0	23	5	53	0	0	81	0	0	0	0	0	0	0	0	0	0	0	0	0	0	0	0	0	0	0	0	0	0	5	0	0	0	0	5	0	46	25	9	12	0	92	0	0	0	0	0	0	0	0	0	0	0	0	0	0	0	0	0	0	0	0	0	0	74	30	62	12	0	178	26	0	1505	5	0	0	0	1510	0	0	0	0	0	0	0	0	0	0	0	0	0	0	0	0	0	0	0	0	0	0	100	0	0	0	0	100	0	590	2	1	0	0	593	0	0	0	0	0	0	0	0	0	0	0	0	0	0	0	0	0	0	0	0	0	0	2195	7	1	0	0	2203	1	0	0	0	1	3	0	0	0	0	3	5	0	0	4.25		MARSHALL BOLAND	9187892404	3/10/2004	3/17/2004		
2003	20030620	"CAIRO GAS SYSTEMS, CITY OF"	2012	200 1ST AVENUE SW	CAIRO	GRADY	GA	39828						 GA	0	0	69	10	0	0	0	0	0	0	79	0	0	0	2394	0	0	0	0	0	0	2394	0	55	10	4	0	0	69	0	0	0	0	0	0	0	0	0	0	0	0	0	0	0	0	0	0	0	0	0	0	0	0	0	0	0	0	0	8	2	0	0	0	10	0	0	0	0	0	0	0	0	0	0	0	0	0	0	0	0	0	0	0	0	0	0	63	12	4	0	0	79	78	0	0	0	0	0	0	0	0	0	0	0	0	0	0	0	0	0	0	0	0	0	0	0	0	0	0	0	0	0	0	0	0	0	0	0	0	2394	0	0	0	0	2394	0	0	0	0	0	0	0	0	0	0	0	0	0	0	0	0	0	0	0	0	0	0	2394	0	0	0	0	2394	10	0	0	0	0	0	0	35	0	0	0	40	5	0	7.78		"WANDA BEARDEN, SECRETARY"	2293776028	3/10/2004	3/17/2004		
2003	20030621	HAWLEY UTILITIES COMM	7180	305 6TH STREET 	HAWLEY 	CLAY	MN	56549						 MN	0	0	0	13	3	0	0	0	0	0	16	0	0	0	415	182	0	0	0	0	0	597	0	6	7	0	0	0	13	0	0	0	0	0	0	0	0	0	0	0	0	0	0	0	0	0	0	0	0	0	0	0	0	0	0	0	0	0	3	0	0	0	0	3	0	0	0	0	0	0	0	0	0	0	0	0	0	0	0	0	0	0	0	0	0	0	9	7	0	0	0	16	100	0	408	7	0	0	0	415	0	0	0	0	0	0	0	0	0	0	0	0	0	0	0	0	0	0	0	0	0	0	0	0	0	0	0	0	0	182	0	0	0	0	182	0	0	0	0	0	0	0	0	0	0	0	0	0	0	0	0	0	0	0	0	0	0	590	7	0	0	0	597	0	0	0	0	0	2	0	0	0	0	0	0	0	0	2		KEVIN BERG	2184833331	3/10/2004	3/17/2004		
2003	20030622	DULUTH DEPT OF WATER & GAS	3590	520 GARFIELD AVENUE	DULUTH	ST. LOUIS	MN	55802						 MN	0	0	0	104	379	0	0	0	0	0	483	0	0	0	164	18021	0	0	0	0	0	18185	0	8	14	44	19	19	104	0	0	0	0	0	0	0	0	0	0	0	0	0	0	0	0	0	0	0	0	0	0	0	0	0	0	0	0	0	312	62	5	0	0	379	0	0	0	0	0	0	0	0	0	0	0	0	0	0	0	0	0	0	0	0	0	0	320	76	49	19	19	483	58	0	42	75	46	1	0	164	0	0	0	0	0	0	0	0	0	0	0	0	0	0	0	0	0	0	0	0	0	0	0	0	0	0	0	0	0	17830	180	9	2	0	18021	0	0	0	0	0	0	0	0	0	0	0	0	0	0	0	0	0	0	0	0	0	0	17872	255	55	3	0	18185	0	1	2	1	24	50	0	0	1	1	2	2	0	0	0.6		TIMOTHY J. BEBER	2187304001	3/10/2004	3/17/2004		
2003	20030623	"FOLEY UTILITY BOARD, CITY OF (RIVIERA UTIL)"	5340	413 E. LAUREL AVENUE	FOLEY	BALDWIN	AL	36536						 AL	0	0	0	216	76	0	0	0	0	0	292	0	0	0	2153	2091	0	0	0	0	0	4244	0	99	55	62	0	0	216	0	0	0	0	0	0	0	0	0	0	0	0	0	0	0	0	0	0	0	0	0	0	0	0	0	0	0	0	0	76	0	0	0	0	76	0	0	0	0	0	0	0	0	0	0	0	0	0	0	0	0	0	0	0	0	0	0	175	55	62	0	0	292	132	0	2141	11	1	0	0	2153	0	0	0	0	0	0	0	0	0	0	0	0	0	0	0	0	0	0	0	0	0	0	0	0	0	0	0	0	0	2079	12	0	0	0	2091	0	0	0	0	0	0	0	0	0	0	0	0	0	0	0	0	0	0	0	0	0	0	4220	23	1	0	0	4244	0	1	0	0	5	12	0	0	0	0	0	0	0	0	0	UNACCOUNTED FOR GAS -2.5%	STEVE BROOKS	2519435001	3/10/2004	3/17/2004		
2003	20030624	CITY OF SCRIBBER UTILITIES	31483	508 3RD STREET	SCRIBNER	DODGE	NE	68057						 NE	0	0	6	1	1	0	0	0	0	0	8	0	0	385	0	63	0	0	0	0	0	448	0	5	1	1	0	0	7	0	0	0	0	0	0	0	0	0	0	0	0	0	0	0	0	0	0	0	0	0	0	0	0	0	0	0	0	0	1	0	0	0	0	1	0	0	0	0	0	0	0	0	0	0	0	0	0	0	0	0	0	0	0	0	0	0	6	1	1	0	0	8	100	0	379	5	1	0	0	385	0	0	0	0	0	0	0	0	0	0	0	0	0	0	0	0	0	0	0	0	0	0	0	0	0	0	0	0	0	63	0	0	0	0	63	0	0	0	0	0	0	0	0	0	0	0	0	0	0	0	0	0	0	0	0	0	0	442	5	1	0	0	448	0	2	0	0	0	0	1	0	0	1	0	6	0	0	0.029		KEVIN MORRISON	4026643123	3/10/2004	3/17/2004		
2003	20030625	"LOGANSPORT GAS DEPT, TOWN OF"	11656	PO BOX 400 309 MAIN ST	LOGANSPORT	DESOTO	LA	71049						 LA	0	0	0	0	22	0	0	0	0	0	22	0	0	0	0	487	0	0	0	0	0	487	0	0	0	0	0	0	0	0	0	0	0	0	0	0	0	0	0	0	0	0	0	0	0	0	0	0	0	0	0	8	0	0	0	0	8	0	9	5	0	0	0	14	0	0	0	0	0	0	0	0	0	0	0	0	0	0	0	0	0	0	0	0	0	0	17	5	0	0	0	22	35	0	0	0	0	0	0	0	0	0	0	0	0	0	0	0	0	0	0	0	0	0	0	0	0	0	0	0	0	0	103	0	0	0	0	103	0	340	44	0	0	0	384	0	0	0	0	0	0	0	0	0	0	0	0	0	0	0	0	0	0	0	0	0	0	443	44	0	0	0	487	0	0	4	0	0	4	3	0	0	0	5	2	0	0	15	HIGH PERCENTAGE OF UNACCOUNTED GAS DUE TO ABOVE MARKED LEAKS.  BUT MOSTLY FROM OLD METERS FAILING TO REGISTER GAS USAGE CORRECTLY.	SHARON STEWART	3186975359	3/10/2004	3/17/2004		
2003	20030626	"SUNSET GAS CO, TOWN OF"	18740	855 NAPOLEON AVE.	SUNSET	ST. LANDRY	LA	70584						 LA	0	0	0	29	1	0	0	0	0	0	30	0	0	0	508	0	0	0	0	0	0	508	0	20	9	0	0	0	29	0	0	0	0	0	0	0	0	0	0	0	0	0	0	0	0	0	0	0	0	0	0	0	0	0	0	0	0	0	1	0	0	0	0	1	0	0	0	0	0	0	0	0	0	0	0	0	0	0	0	0	0	0	0	0	0	0	21	9	0	0	0	30	25	0	488	16	4	0	0	508	0	0	0	0	0	0	0	0	0	0	0	0	0	0	0	0	0	0	0	0	0	0	0	0	0	0	0	0	0	0	0	0	0	0	0	0	0	0	0	0	0	0	0	0	0	0	0	0	0	0	0	0	0	0	0	0	0	488	16	4	0	0	508	0	2	0	2	0	1	1	0	0	2	0	5	0	0	2		MERLIN POTIER	3376625296	3/10/2004	3/17/2004		
2003	20030627	MAINE NATURAL GAS	31487	4 INDUSTRIAL PKWY BOX 99 	BRUNSWICK	CUMBERLAND	ME	4011						 ME	0	0	0	14	57	0	0	0	0	0	71	0	0	0	0	932	0	0	0	0	0	932	0	0	0	14	0	0	14	0	0	0	0	0	0	0	0	0	0	0	0	0	0	0	0	0	0	0	0	0	0	0	0	0	0	0	0	0	22	16	19	0	0	57	0	0	0	0	0	0	0	0	0	0	0	0	0	0	0	0	0	0	0	0	0	0	22	16	33	0	0	71	99	0	0	0	0	0	0	0	0	0	0	0	0	0	0	0	0	0	0	0	0	0	0	0	0	0	0	0	0	0	0	0	0	0	0	0	0	892	37	3	0	0	932	0	0	0	0	0	0	0	0	0	0	0	0	0	0	0	0	0	0	0	0	0	0	892	37	3	0	0	932	0	0	0	0	3	0	2	0	0	0	0	0	0	0	0		OLIVA G. GOREY	2077290420	3/10/2004	3/17/2004		
2003	20030628	"BENTON GAS SYSTEM, CITY OF"	1328	1009 MAIN STREET UNIT 2	BENTON		KY	42025						 KY	0	0	0	82	174	0	0	0	0	0	256	0	0	0	1728	3904	0	0	0	0	0	5632	0	39	24	19	0	0	82	0	0	0	0	0	0	0	0	0	0	0	0	0	0	0	0	0	0	0	0	0	0	0	0	0	0	0	0	0	131	37	6	0	0	174	0	0	0	0	0	0	0	0	0	0	0	0	0	0	0	0	0	0	0	0	0	0	170	61	25	0	0	256	150	0	1720	8	0	0	0	1728	0	0	0	0	0	0	0	0	0	0	0	0	0	0	0	0	0	0	0	0	0	0	0	0	0	0	0	0	0	3875	29	0	0	0	3904	0	0	0	0	0	0	0	0	0	0	0	0	0	0	0	0	0	0	0	0	0	0	5595	37	0	0	0	5632	1	3	1	0	1	4	4	10	0	7	0	1	0	0	1.98		KELLY COLLINS	2705273717	3/10/2004	3/17/2004		
2003	20030629	"WAVELAND WATER & GAS DEPT, CITY OF"	22259	PO BOX 509 301 COLEMAN AV	WAVELAND	HANCOCK	MS	39576						 MS	0	0	0	54	11	0	0	0	0	0	65	0	0	0	552	380	0	0	0	0	0	932	0	0	54	0	0	0	54	0	0	0	0	0	0	0	0	0	0	0	0	0	0	0	0	0	0	0	0	0	0	11	0	0	0	0	11	0	0	0	0	0	0	0	0	0	0	0	0	0	0	0	0	0	0	0	0	0	0	0	0	0	0	0	0	0	11	54	0	0	0	65	15	552	18	0	0	0	0	570	0	0	0	0	0	0	0	0	0	0	0	0	0	0	0	0	0	0	0	0	0	0	0	0	0	0	0	0	362	0	0	0	0	0	362	0	0	0	0	0	0	0	0	0	0	0	0	0	0	0	0	0	0	0	0	0	914	18	0	0	0	0	932	18	39	0	0	0	0	0	0	0	0	0	21	0	0	0.05		MARILYN SMITH	6014679248	3/10/2004	3/17/2004		
2003	20030630	"FREEMAN MUNICIPAL GAS, CITY OF"	31095	185 EAST THIRD STREET	FREEMAN	HUTCHINSON	SD	57029						 SD	0	0	0	0	13	0	0	0	0	0	13	0	0	0	0	427	0	0	0	0	0	427	0	0	0	0	0	0	0	0	0	0	0	0	0	0	0	0	0	0	0	0	0	0	0	0	0	0	0	0	0	0	0	0	0	0	0	0	0	1	0	0	0	1	0	0	0	0	0	0	0	0	0	0	0	0	0	0	0	0	0	0	0	0	0	0	0	1	0	0	0	1	105	0	0	0	0	0	0	0	0	0	0	0	0	0	0	0	0	0	0	0	0	0	0	0	0	0	0	0	0	0	0	0	0	0	0	0	0	411	14	1	0	0	426	0	0	0	0	0	0	0	0	0	0	0	0	0	0	0	0	0	0	0	0	0	0	411	14	1	0	0	426	0	0	0	0	0	0	0	0	0	0	0	0	0	0	0.08		SID GULBRANSON	6053537462	3/10/2004	3/17/2004		
2003	20030631	CONSUMERS GAS COOPERATIVE	31521	PO BOX 2495	NORTH CANTON	STARK	OH	44720						 OH	0	0	0	0	2	0	0	0	0	0	2	0	0	0	279	21	0	0	0	0	0	300	0	0	0	0	0	0	0	0	0	0	0	0	0	0	0	0	0	0	0	0	0	0	0	0	0	0	0	0	0	0	0	0	0	0	0	0	2	0	0	0	0	2	0	0	0	0	0	0	0	0	0	0	0	0	0	0	0	0	0	0	0	0	0	0	2	0	0	0	0	2	50	0	275	4	0	0	0	279	0	0	0	0	0	0	0	0	0	0	0	0	0	0	0	0	0	0	0	0	0	0	0	0	0	0	0	0	0	21	0	0	0	0	21	0	0	0	0	0	0	0	0	0	0	0	0	0	0	0	0	0	0	0	0	0	0	296	4	0	0	0	300	0	0	0	0	0	0	0	0	0	0	0	0	0	0	0		DAN BURKHART	3302449649	3/10/2004	3/17/2004		
2003	20030632	LEWISBURG GAS DEPARTMENT	11416	505 N. ELLINGTON PKWY	LEWISBURG	MARHALL	TN	37091						 TN	0	0	0	32	42	9	9	0	0	0	92	283	0	0	1014	2657	1	0	0	0	0	3955	0	11	6	15	0	0	32	0	0	7	2	0	0	9	0	0	0	0	0	0	0	0	2	5	2	0	0	9	0	0	0	0	0	0	0	0	24	10	8	0	0	42	0	0	0	0	0	0	0	0	0	0	0	0	0	0	0	0	0	0	0	0	0	0	37	28	27	0	0	92	100	0	1285	8	2	2	0	1297	0	0	0	0	0	0	0	0	0	0	0	0	0	0	0	0	1	0	0	0	1	0	0	0	0	0	0	0	0	2568	71	14	4	0	2657	0	0	0	0	0	0	0	0	0	0	0	0	0	0	0	0	0	0	0	0	0	0	3853	80	16	6	0	3955	3	1	0	0	1	3	1	0	0	0	3	184	9	0	1.53		LAMARR HAISLIP	9313594016	3/10/2004	3/17/2004		
2003	20030633	SOUTHWEST GAS CORP	18536	BOX 98510 5241 SPRING MT.	LAS VEGAS	CLARK	NV	89193						 CA	0	0	0	480	1985	0	0	0	0	0	2465	0	0	0	4893	120951	0	0	0	0	0	125844	0	134	219	111	16	0	480	0	0	0	0	0	0	0	0	0	0	0	0	0	0	0	0	0	0	0	0	0	0	519	0	0	0	0	519	0	1215	239	12	0	0	1466	0	0	0	0	0	0	0	0	0	0	0	0	0	0	0	0	0	0	0	0	0	0	1868	458	123	16	0	2465	80	0	4822	67	4	0	0	4893	0	0	0	0	0	0	0	0	0	0	0	0	0	0	0	0	0	0	0	0	0	0	6894	30	0	0	0	6924	0	113765	259	3	0	0	114027	0	0	0	0	0	0	0	0	0	0	0	0	0	0	0	0	0	0	0	0	0	0	125481	356	7	0	0	125844	1	12	5	15	51	222	85	132	1	0	10	16	9	0	0		JIM MATTHEWS	7023643350	3/10/2004	3/17/2004		
2003	20030634	SOUTHWEST GAS CORP	18536	BOX 98510 5241 SPRING MT.	LAS VEGAS	CLARK	NV	89193						 AR	1	0	664	4840	10318	0	0	0	0	0	15823	74	0	20777	134849	675251	0	0	0	0	0	830951	0	3744	1414	303	44	0	5505	0	0	0	0	0	0	0	0	0	0	0	0	0	0	0	0	0	0	0	0	0	0	838	0	0	0	0	838	0	7668	1566	203	0	0	9437	0	43	0	0	0	0	43	0	0	0	0	0	0	0	0	0	0	0	0	0	0	0	12293	2980	506	44	0	15823	69	0	153650	1893	146	8	3	155700	0	0	0	0	0	0	0	0	0	0	0	0	0	0	0	0	0	0	0	0	0	0	7338	773	0	0	0	8111	0	660678	6252	99	2	0	667031	0	101	8	0	0	0	109	0	0	0	0	0	0	0	0	0	0	0	0	0	0	0	821767	8926	245	10	3	830951	108	432	41	180	380	899	54	29	1	4	460	633	758	18	0		JIM MATHEWS	7023643350	3/10/2004	3/17/2004		
2003	20030635	SOUTHWEST GAS CORP	18536	BOX 98510 5241 SPRING MT.	LAS VEGAS	CLARK	NV	89193						 NV	0	0	0	616	5473	0	0	0	0	0	6089	0	0	0	5186	461269	0	0	0	0	0	466455	0	157	253	149	45	11	615	0	0	0	0	0	0	0	0	0	0	0	0	0	0	0	0	0	0	0	0	0	0	460	0	0	0	0	460	0	3963	1001	50	0	0	5014	0	0	0	0	0	0	0	0	0	0	0	0	0	0	0	0	0	0	0	0	0	0	4580	1254	199	45	11	6089	62	0	4949	197	33	7	0	5186	0	0	0	0	0	0	0	0	0	0	0	0	0	0	0	0	0	0	0	0	0	0	33800	72	0	0	0	33872	0	424925	2398	74	0	0	427397	0	0	0	0	0	0	0	0	0	0	0	0	0	0	0	0	0	0	0	0	0	0	463674	2667	107	7	0	466455	33	67	7	4	350	1053	125	266	2	4	20	45	35	0	0.08		JIM MATHEWS	7023643350	3/10/2004	3/17/2004		
2003	20030636	"ENTERGY NEW ORLEANS, INC"	13360	3700 TULANE AVENUE	NEW ORLEANS	ORLEANS	LA	70119	1600 PERDIDO STREET	NEW ORLEANS	ORLEANS	LA	70112	 LA	0	0	0	1028	126	328	0	0	0	0	1482	0	78157	0	43866	10586	0	0	0	0	0	132609	0	429	153	370	41	34	1027	0	0	0	0	0	0	0	0	0	0	0	0	0	0	0	1	42	222	40	24	329	0	0	0	0	0	0	0	0	104	22	0	0	0	126	0	0	0	0	0	0	0	0	0	0	0	0	0	0	0	0	0	0	0	0	0	0	534	217	592	81	58	1482	41	0	41653	79187	1083	94	6	122023	0	0	0	0	0	0	0	0	0	0	0	0	0	0	0	0	0	0	0	0	0	0	17	0	0	0	0	17	0	9368	1187	13	1	0	10569	0	0	0	0	0	0	0	0	0	0	0	0	0	0	0	0	0	0	0	0	0	0	51038	80374	1096	95	6	132609	4	281	158	53	33	112	3	1	22	47	168	52	58	0	2.86		HARRY W. RITCHIE	5045953804	3/10/2004	3/17/2004		
2003	20030637	"MONTEAGLE GAS SYSTEMS, TOWN OF"	12694	16 DIXIE LEE AVE BOX 127	MONTEAGLE	MARION	TN	37356						 TN	0	11	0	0	0	0	0	0	12	0	23	0	95	0	0	0	0	0	0	546	0	641	0	8	3	0	0	0	11	0	0	0	0	0	0	0	0	0	0	0	0	0	0	0	0	0	0	0	0	0	0	0	0	0	0	0	0	0	6	6	0	0	0	12	0	0	0	0	0	0	0	0	0	0	0	0	0	0	0	0	0	0	0	0	0	0	14	9	0	0	0	23	0	0	94	1	0	0	0	95	0	0	0	0	0	0	0	0	0	0	0	0	0	0	0	0	0	0	0	0	0	0	0	0	0	0	0	0	0	531	15	0	0	0	546	0	0	0	0	0	0	0	0	0	0	0	0	0	0	0	0	0	0	0	0	0	0	625	16	0	0	0	641	0	1	0	0	0	2	0	0	0	1	0	2	0	0	4.5		TERRY W. TURNER	9319242265	3/10/2004	3/17/2004		
2003	20030638	AURORA UTILITIES	891	110 MAIN ST PO BOX 120	AURORA	DEARBORN	IN	47001						 IN	0	0	0	4	46	0	0	0	0	0	50	0	0	0	1	1114	0	0	0	0	0	1115	0	1	2	1	0	0	4	0	0	0	0	0	0	0	0	0	0	0	0	0	0	0	0	0	0	0	0	0	0	0	0	0	0	0	0	0	29	12	5	0	0	46	0	0	0	0	0	0	0	0	0	0	0	0	0	0	0	0	0	0	0	0	0	0	30	14	6	0	0	50	85	0	0	1	0	0	0	1	0	0	0	0	0	0	0	0	0	0	0	0	0	0	0	0	0	0	0	0	0	0	0	0	0	0	0	0	0	1082	24	8	0	0	1114	0	0	0	0	0	0	0	0	0	0	0	0	0	0	0	0	0	0	0	0	0	0	1082	25	8	0	0	1115	8	0	0	0	2	7	2	0	0	0	5	59	11	0	3.3		MARY ANN DAVIS	8129262745	3/10/2004	3/17/2004		
2003	20030639	"BAINBRIDGE MUNICIPAL GAS, CITY OF"	1056	201 GRANT AVE PO BOX 343	BAINBRIDGE	PUTNAM	IN	46105						 IN	0	0	0	8	1	0	0	0	0	0	9	0	0	0	282	21	0	0	0	0	0	303	0	4	4	0	0	0	8	0	0	0	0	0	0	0	0	0	0	0	0	0	0	0	0	0	0	0	0	0	0	0	0	0	0	0	0	0	1	0	0	0	0	1	0	0	0	0	0	0	0	0	0	0	0	0	0	0	0	0	0	0	0	0	0	0	5	4	0	0	0	9	60	0	280	2	0	0	0	282	0	0	0	0	0	0	0	0	0	0	0	0	0	0	0	0	0	0	0	0	0	0	0	0	0	0	0	0	0	20	1	0	0	0	21	0	0	0	0	0	0	0	0	0	0	0	0	0	0	0	0	0	0	0	0	0	0	300	3	0	0	0	303	0	0	0	0	0	1	0	0	0	0	0	0	0	0	0		JAMES R. NELSON	7655226238	3/10/2004	3/17/2004		
2003	20030640	BATESVILLE GAS UTILITY	1160	7 N. EASTERN AVE BOX 97	BATESVILLE	RIPLEY	IN	47006						 IN	0	0	0	52	18	0	0	0	0	0	70	0	0	0	1765	841	0	0	0	0	0	2606	0	37	15	0	0	0	52	0	0	0	0	0	0	0	0	0	0	0	0	0	0	0	0	0	0	0	0	0	0	0	0	0	0	0	0	0	7	11	0	0	0	18	0	0	0	0	0	0	0	0	0	0	0	0	0	0	0	0	0	0	0	0	0	0	44	26	0	0	0	70	141	0	1758	6	1	0	0	1765	0	0	0	0	0	0	0	0	0	0	0	0	0	0	0	0	0	0	0	0	0	0	0	0	0	0	0	0	0	833	8	0	0	0	841	0	0	0	0	0	0	0	0	0	0	0	0	0	0	0	0	0	0	0	0	0	0	2591	14	1	0	0	2606	0	4	0	0	1	5	0	0	0	0	0	3	0	0	0		SCOTT BAUER	8129343811	3/10/2004	3/17/2004		
2003	20030641	CHRISNEY MUNICIPAL GAS CO	2360	22 E. CHESTNUT STREET	CHRISNEY	SPENCER	IN	47611						 IN	0	0	0	7	3	0	0	0	0	0	10	0	0	0	237	53	0	0	0	0	0	290	0	5	2	0	0	0	7	0	0	0	0	0	0	0	0	0	0	0	0	0	0	0	0	0	0	0	0	0	0	0	0	0	0	0	0	0	3	0	0	0	0	3	0	0	0	0	0	0	0	0	0	0	0	0	0	0	0	0	0	0	0	0	0	0	8	2	0	0	0	10	125	0	232	5	0	0	0	237	0	0	0	0	0	0	0	0	0	0	0	0	0	0	0	0	0	0	0	0	0	0	0	0	0	0	0	0	0	52	1	0	0	0	53	0	0	0	0	0	0	0	0	0	0	0	0	0	0	0	0	0	0	0	0	0	0	284	6	0	0	0	290	1	0	0	0	0	0	0	0	0	0	1	1	8	0	6	"IN AUG. OF 2002 OUR GASPLANT HAD A MECHANICAL FAILURE OF A RELIEF VALVE WHICH RESULTED IN APPROX. 220 MCF LOSS.  THEN IN JAN. 2003, WE HAD A MECHANICAL FAILURE OF A MAIN VALVE AT THE INLET VALVE.  THIS RESULTED IN APPROX. 175 MCF LOSS AT THE GASPLANT.    PART C-TOTAL LEAKS-RECORDED UNDER ""OTHER"" MAINS LEAKS ACCOUNTS FOR MAIN VALVE THAT FAILED AT THE GASPLANT ALSO, WE HAVE NO ACCOUNTABILITY ON USGE OF GAS CONSUMPTION ON OUR BOILER HEATER. "	JOHN C. GRAHAM	8123628668	3/10/2004	3/17/2004		
2003	20030642	CITIZENS GAS & COKE UTILITY	2392	2020 NORTH MERIDIAN ST			IN	46202						 IN	22	0	0	2052	1680	129	0	0	0	0	3883	3664	0	0	21690	239743	0	0	0	0	0	265097	0	1182	394	382	78	38	2074	0	0	0	0	0	0	0	0	0	0	0	0	0	0	0	0	35	40	29	25	129	0	0	0	0	0	0	0	0	1218	459	2	1	0	1680	0	0	0	0	0	0	0	0	0	0	0	0	0	0	0	0	0	0	0	0	0	0	2400	888	424	108	63	3883	84	0	17603	7005	590	152	4	25354	0	0	0	0	0	0	0	0	0	0	0	0	0	0	0	0	0	0	0	0	0	0	0	0	0	0	0	0	0	228746	10490	507	0	0	239743	0	0	0	0	0	0	0	0	0	0	0	0	0	0	0	0	0	0	0	0	0	0	246349	17495	1097	152	4	265097	47	91	8	1	44	346	1	16	0	0	325	453	8	0	0.941		JEFFERY K. BREMER	3179276008	3/10/2004	3/17/2004		
2003	20030643	COMMUNITY NATURAL GAS INC	2676	118 N. DIVISION ST	MT. CARMEL	WABASH	IL	62863						 IN	0	0	0	112	201	0	0	0	0	0	313	0	0	0	1984	5191	0	0	493	0	0	7668	0	77	27	8	0	0	112	0	0	0	0	0	0	0	0	0	0	0	0	0	0	0	0	0	0	0	0	0	0	0	0	0	0	0	0	0	127	61	13	0	0	201	0	0	0	0	0	0	0	0	0	0	0	0	0	0	0	0	0	0	0	0	0	0	204	88	21	0	0	313	134	0	1957	27	0	0	0	1984	0	0	0	0	0	0	0	0	493	0	0	0	0	493	0	0	0	0	0	0	0	0	0	0	0	0	0	0	0	5147	43	1	0	0	5191	0	0	0	0	0	0	0	0	0	0	0	0	0	0	0	0	0	0	0	0	0	0	7597	70	1	0	0	7668	0	14	0	0	3	18	0	2	0	0	0	41	4	0	2.2		MANDY GOLDMAN	6182625108	3/10/2004	3/17/2004		
2003	20030644	FOUNTAINTOWN GAS CO INC	5520	106 E. MAIN ST BOX 1007	MORRISTOWN	SHELBY	IN	46161						 IA ID IL IN	0	0	0	48	113	0	0	0	0	0	161	0	0	0	854	2824	0	0	0	0	0	3678	0	21	24	3	0	0	48	0	0	0	0	0	0	0	0	0	0	0	0	0	0	0	0	0	0	0	0	0	0	0	0	0	0	0	0	0	71	42	0	0	0	113	0	0	0	0	0	0	0	0	0	0	0	0	0	0	0	0	0	0	0	0	0	0	92	66	3	0	0	161	164	0	839	10	5	0	0	854	0	0	0	0	0	0	0	0	0	0	0	0	0	0	0	0	0	0	0	0	0	0	0	0	0	0	0	0	0	2794	30	0	0	0	2824	0	0	0	0	0	0	0	0	0	0	0	0	0	0	0	0	0	0	0	0	0	0	3633	40	5	0	0	3678	1	0	0	0	0	10	0	0	0	0	8	142	7	0	0		GARY PURVIS	7657636393	3/10/2004	3/17/2004		
2003	20030645	GRANDVIEW MUNICIPAL GAS	6560	316 MAIN ST.	GRANDVIEW	SPENCER	IN	47615						 IN	0	0	0	7	0	0	0	0	0	0	7	0	0	0	327	23	0	0	0	0	0	350	0	6	1	0	0	0	7	0	0	0	0	0	0	0	0	0	0	0	0	0	0	0	0	0	0	0	0	0	0	0	0	0	0	0	0	0	0	0	0	0	0	0	0	0	0	0	0	0	0	0	0	0	0	0	0	0	0	0	0	0	0	0	0	0	6	1	0	0	0	7	75	0	327	0	0	0	0	327	0	0	0	0	0	0	0	0	0	0	0	0	0	0	0	0	0	0	0	0	0	0	0	0	0	0	0	0	0	23	0	0	0	0	23	0	0	0	0	0	0	0	0	0	0	0	0	0	0	0	0	0	0	0	0	0	0	350	0	0	0	0	350	1	0	0	0	0	0	0	0	0	10	0	0	0	0	16.9	COMBINATION OF BOTH MATERIAL DEFECT AND CORROSION	WILEY R. GRAHAM	8126492573	3/10/2004	3/17/2004		
2003	20030646	"HUNTINGBURG GAS SYSTEM, CITY OF"	7670	508 N. VANBUREN PO BOX 10	HUNTINGBURG	DUBIOS	IN							 IN	0	0	0	64	55	0	0	0	0	0	119	0	0	0	2160	1065	0	0	0	0	0	3225	0	30	21	13	0	0	64	0	0	0	0	0	0	0	0	0	0	0	0	0	0	0	0	0	0	0	0	0	0	2	0	0	0	0	2	0	46	7	0	0	0	53	0	0	0	0	0	0	0	0	0	0	0	0	0	0	0	0	0	0	0	0	0	0	78	28	13	0	0	119	100	0	1937	220	3	0	0	2160	0	0	0	0	0	0	0	0	0	0	0	0	0	0	0	0	0	0	0	0	0	0	9	1	0	0	0	10	0	1049	6	0	0	0	1055	0	0	0	0	0	0	0	0	0	0	0	0	0	0	0	0	0	0	0	0	0	0	2995	227	3	0	0	3225	0	3	6	1	6	0	0	6	0	12	0	0	20	0	3	"ALL REMAINING ""KNOWN SYSTEM LEAKS"" ARE FROM OUR ANNUAL LEAK SURVEY, COMPLETED IN THE FALL (ALL CLASS 3)."	RON T. (MAC) MCDONALD	8126833622	3/10/2004	3/17/2004		
2003	20030647	INDIANA GAS CO INC	8070	20 N.W. FOURTH STREET	EVANSVILLE	VANDERBURGH	IN	47708						 IN	988	76	0	4418	5651	185	19	0	0	0	11337	1061	31124	0	123636	427895	0	0	151	0	0	583867	0	1976	1611	1515	345	35	5482	0	0	2	12	5	0	19	0	0	0	0	0	0	0	0	6	131	44	2	2	185	0	0	0	0	0	0	0	0	4384	845	422	0	0	5651	0	0	0	0	0	0	0	0	0	0	0	0	0	0	0	0	0	0	0	0	0	0	6366	2589	1993	352	37	11337	83	0	137021	17011	1516	187	86	155821	0	0	0	0	0	0	0	0	151	0	0	0	0	151	0	0	0	0	0	0	0	0	0	0	0	0	0	0	0	410833	15995	887	180	0	427895	0	0	0	0	0	0	0	0	0	0	0	0	0	0	0	0	0	0	0	0	0	0	548005	33006	2403	367	86	583867	267	365	34	71	225	836	67	325	285	1139	664	2245	99	0	0.61	*OUTSTANDING GRADE 3 LEAKS ARE NOT INCLUDED IN NUMBER OF KNOWN SYSTEM LEAKS AT END OF YEAR SCHEDULED FOR REPAIR.	RICK L .SLAGLE	8124914611	3/10/2004	3/17/2004		
2003	20030648	INDIANA UTILITIES CORP	8090	123 W. CHESTNUT ST.	CORYDON	HARRISON	IN	47112						 IN KY	0	0	0	59	48	0	0	0	0	0	107	0	0	0	1498	1403	0	0	0	0	0	2901	0	23	11	25	0	0	59	0	0	0	0	0	0	0	0	0	0	0	0	0	0	0	0	0	0	0	0	0	0	0	0	0	0	0	0	0	36	7	5	0	0	48	0	0	0	0	0	0	0	0	0	0	0	0	0	0	0	0	0	0	0	0	0	0	59	18	30	0	0	107	130	0	1468	24	6	0	0	1498	0	0	0	0	0	0	0	0	0	0	0	0	0	0	0	0	0	0	0	0	0	0	0	0	0	0	0	0	0	1339	62	2	0	0	1403	0	0	0	0	0	0	0	0	0	0	0	0	0	0	0	0	0	0	0	0	0	0	2807	86	8	0	0	2901	0	0	1	0	1	2	0	0	1	0	0	0	0	0	1.6		FRANK CZESCHIN	8127383235	3/10/2004	3/17/2004		
2003	20030649	JASPER MUNICIPAL UTILITIES	9140	825 E. SECOND AVENUE	JASPER	DUBOIS	IN	47546						 IN	0	0	0	88	2	0	0	0	0	0	90	0	0	0	3937	40	0	0	0	0	0	3977	0	47	37	4	0	0	88	0	0	0	0	0	0	0	0	0	0	0	0	0	0	0	0	0	0	0	0	0	0	0	0	0	0	0	0	0	1	1	0	0	0	2	0	0	0	0	0	0	0	0	0	0	0	0	0	0	0	0	0	0	0	0	0	0	48	38	4	0	0	90	90	0	3673	241	23	0	0	3937	0	0	0	0	0	0	0	0	0	0	0	0	0	0	0	0	0	0	0	0	0	0	0	0	0	0	0	0	0	38	2	0	0	0	40	0	0	0	0	0	0	0	0	0	0	0	0	0	0	0	0	0	0	0	0	0	0	3711	243	23	0	0	3977	0	0	0	0	0	0	0	0	0	0	0	18	36	0	3		ERNEST E. HINKLE	8124825252	3/10/2004	3/17/2004		
2003	20030650	KOKOMO GAS & FUEL CO	10320	900 E. BOULEVARD	KOKOMO	HOWARD	IN	46904						 IN	2	144	0	374	266	3	0	0	0	0	789	1371	6590	0	13300	14912	0	0	0	0	0	36173	0	155	190	118	55	2	520	0	0	0	0	0	0	0	0	0	0	0	0	0	0	0	1	1	1	0	0	3	0	0	0	0	0	0	0	0	163	103	0	0	0	266	0	0	0	0	0	0	0	0	0	0	0	0	0	0	0	0	0	0	0	0	0	0	319	294	119	55	2	789	96	0	14829	6289	118	25	0	21261	0	0	0	0	0	0	0	0	0	0	0	0	0	0	0	0	0	0	0	0	0	0	0	0	0	0	0	0	0	13335	1544	33	0	0	14912	0	0	0	0	0	0	0	0	0	0	0	0	0	0	0	0	0	0	0	0	0	0	28164	7833	151	25	0	36173	5	17	0	5	4	37	2	3	2	5	17	5	3	0	0.183		PETER J. BEKO	7654594101	3/10/2004	3/17/2004		
2003	20030651	LAPEL MUNICIPAL GAS CO	11224	720 SOUTH FORD STREET	LAPEL	MADISON	IN	46051						 IN	0	0	0	4	15	0	0	0	0	0	19	0	0	0	67	814	0	0	0	0	0	881	0	1	3	0	0	0	4	0	0	0	0	0	0	0	0	0	0	0	0	0	0	0	0	0	0	0	0	0	0	0	0	0	0	0	0	0	10	5	0	0	0	15	0	0	0	0	0	0	0	0	0	0	0	0	0	0	0	0	0	0	0	0	0	0	11	8	0	0	0	19	75	0	59	6	2	0	0	67	0	0	0	0	0	0	0	0	0	0	0	0	0	0	0	0	0	0	0	0	0	0	0	0	0	0	0	0	0	810	4	0	0	0	814	0	0	0	0	0	0	0	0	0	0	0	0	0	0	0	0	0	0	0	0	0	0	869	10	2	0	0	881	0	0	0	0	0	1	0	0	0	1	0	11	0	0	4.9		SHIRLEY BOND	7655343157	3/10/2004	3/17/2004		
2003	20030652	LAWRENCEBURG GAS CO	11288	139 EAST FOURTH STREET	CINCINNATI	HAMILTON	OH	45202	5715 W. STATE ROUTE 350	AURORA	DEARBORN	IN	47001	 IN	13	0	0	103	40	1	0	0	0	0	157	44	0	0	1863	4562	0	0	55	315	0	6839	0	41	46	29	0	0	116	0	0	0	0	0	0	0	0	0	0	0	0	0	0	0	0	1	0	0	0	1	0	0	0	0	0	0	0	0	23	14	3	0	0	40	0	0	0	0	0	0	0	0	0	0	0	0	0	0	0	0	0	0	0	0	0	0	64	61	32	0	0	157	65	0	1560	331	13	3	0	1907	0	0	0	0	0	0	0	0	41	14	0	0	0	55	0	0	0	0	0	0	0	0	0	0	0	0	0	0	0	4354	197	10	1	0	4562	0	0	0	0	0	0	0	315	0	0	0	0	0	315	0	0	0	0	0	0	0	315	5955	542	23	4	0	6839	3	3	14	42	8	34	0	2	0	8	0	0	2	0	1.45		SUSAN M. GILB	5132872752	3/10/2004	3/17/2004		
2003	20030653	LINTON MUNICIPAL GAS	11536	86 SOUTH MAIN STREET	LINTON	GREEN	IN	47441						 IN	0	0	0	4	65	0	0	0	0	0	69	0	0	0	74	2692	0	0	0	0	0	2766	0	3	0	1	0	0	4	0	0	0	0	0	0	0	0	0	0	0	0	0	0	0	0	0	0	0	0	0	0	0	0	0	0	0	0	0	37	28	0	0	0	65	0	0	0	0	0	0	0	0	0	0	0	0	0	0	0	0	0	0	0	0	0	0	40	28	1	0	0	69	30	0	0	71	3	0	0	74	0	0	0	0	0	0	0	0	0	0	0	0	0	0	0	0	0	0	0	0	0	0	0	0	0	0	0	0	0	2689	1	2	0	0	2692	0	0	0	0	0	0	0	0	0	0	0	0	0	0	0	0	0	0	0	0	0	0	2689	72	5	0	0	2766	0	0	0	0	0	0	0	0	0	0	0	11	0	0	5.1		BRENT SLOVER	8128474971	3/10/2004	3/17/2004		
2003	20030654	MIDWEST NATURAL GAS CORP	12486	107 S. E. THIRD STREET	WASHINGTON	DAVIESS	IN	47501						 IN	0	0	1	333	235	0	0	0	0	0	569	0	0	0	7618	10430	0	0	0	0	0	18048	0	144	116	74	0	0	334	0	0	0	0	0	0	0	0	0	0	0	0	0	0	0	0	0	0	0	0	0	0	0	0	0	0	0	0	0	201	34	0	0	0	235	0	0	0	0	0	0	0	0	0	0	0	0	0	0	0	0	0	0	0	0	0	0	345	150	74	0	0	569	102	0	7486	116	13	3	0	7618	0	0	0	0	0	0	0	0	0	0	0	0	0	0	0	0	0	0	0	0	0	0	0	0	0	0	0	0	0	10117	306	7	0	0	10430	0	0	0	0	0	0	0	0	0	0	0	0	0	0	0	0	0	0	0	0	0	0	17603	422	20	3	0	18048	0	0	0	0	13	41	0	0	1	1	0	0	0	0	0.45		ANN M. RIKER	8122545087	3/10/2004	3/17/2004		
2003	20030655	MONTEZUMA MUNICIPAL GAS UTILITIES DEPT	12738	1243 N JACKSON ST BOX 37 	MONTEZUMA	PARKE	IN	47862						 IN	0	0	0	0	10	0	0	0	0	0	10	0	0	0	0	597	0	0	0	0	0	597	0	0	0	0	0	0	0	0	0	0	0	0	0	0	0	0	0	0	0	0	0	0	0	0	0	0	0	0	0	0	0	0	0	0	0	0	8	2	0	0	0	10	0	0	0	0	0	0	0	0	0	0	0	0	0	0	0	0	0	0	0	0	0	0	8	2	0	0	0	10	73	0	0	0	0	0	0	0	0	0	0	0	0	0	0	0	0	0	0	0	0	0	0	0	0	0	0	0	0	0	0	0	0	0	0	0	0	594	1	2	0	0	597	0	0	0	0	0	0	0	0	0	0	0	0	0	0	0	0	0	0	0	0	0	0	594	1	2	0	0	597	0	0	0	0	0	0	0	0	0	0	0	0	0	0	6.9	(MILES) OF MAIN         10  (MILES OF SERVICES    8                                   ________                                        18 DISTRIBUTION MILES	ROBERT ALLEN	7652452759	3/10/2004	3/17/2004		
2003	20030656	NORTHERN INDIANA PUBLIC SERVICE CO	13730	801 E. 86TH AVENUE	MERRILLVILLE	LAKE	IN	46410						 IN	60	1	0	7030	6616	6	0	0	0	0	13713	0	0	0	214526	497685	0	0	0	0	0	712211	0	2912	2345	1513	310	11	7091	0	0	0	0	0	0	0	0	0	0	0	0	0	0	0	0	1	4	1	0	6	0	0	0	0	0	0	0	0	4783	1662	171	0	0	6616	0	0	0	0	0	0	0	0	0	0	0	0	0	0	0	0	0	0	0	0	0	0	7695	4008	1688	311	11	13713	100	0	177731	35434	1191	163	7	214526	0	0	0	0	0	0	0	0	0	0	0	0	0	0	0	0	0	0	0	0	0	0	0	0	0	0	0	0	0	413376	82812	1448	49	0	497685	0	0	0	0	0	0	0	0	0	0	0	0	0	0	0	0	0	0	0	0	0	0	591107	118246	2639	212	7	712211	76	229	240	0	329	1745	171	859	45	209	123	354	81	0	0.43		SHAWN L. PATTERSON	2196475007	3/10/2004	3/17/2004		
2003	20030657	NORTHERN INDIANA FUEL & LIGHT CO INC	13720	220 E. 7TH STREET	AUBURN	DEKALB	IN	46706						 IN	0	0	0	537	372	0	0	0	0	0	909	0	0	20	14839	24730	0	0	0	0	0	39589	0	214	105	150	68	0	537	0	0	0	0	0	0	0	0	0	0	0	0	0	0	0	0	0	0	0	0	0	0	0	0	0	0	0	0	0	258	114	0	0	0	372	0	0	0	0	0	0	0	0	0	0	0	0	0	0	0	0	0	0	0	0	0	0	472	219	150	68	0	909	102	0	14358	462	36	3	0	14859	0	0	0	0	0	0	0	0	0	0	0	0	0	0	0	0	0	0	0	0	0	0	0	0	0	0	0	0	0	24064	631	35	0	0	24730	0	0	0	0	0	0	0	0	0	0	0	0	0	0	0	0	0	0	0	0	0	0	38422	1093	71	3	0	39589	0	14	2	14	10	107	0	4	0	5	6	355	21	0	0.49		DAVID MUZZILLO	2609252700	3/10/2004	3/17/2004		
2003	20030658	OHIO VALLEY GAS INC	14190	111 ENERGY PARK DRIVE	WINCHESTER 	RANDOLPH	IN	47394						 IN	0	0	7	113	35	0	0	0	0	0	155	0	0	56	4405	1204	0	0	0	0	0	5665	0	72	41	7	0	0	120	0	0	0	0	0	0	0	0	0	0	0	0	0	0	0	0	0	0	0	0	0	0	0	0	0	0	0	0	0	24	11	0	0	0	35	0	0	0	0	0	0	0	0	0	0	0	0	0	0	0	0	0	0	0	0	0	0	96	52	7	0	0	155	66	0	4268	191	2	0	0	4461	0	0	0	0	0	0	0	0	0	0	0	0	0	0	0	0	0	0	0	0	0	0	0	0	0	0	0	0	0	1177	24	3	0	0	1204	0	0	0	0	0	0	0	0	0	0	0	0	0	0	0	0	0	0	0	0	0	0	5445	215	5	0	0	5665	0	5	0	1	0	0	0	3	0	2	2	10	0	0	0.84		MARK H. MAYFIELD	7655846842	3/10/2004	3/17/2004		
2003	20030659	OHIO VALLEY GAS CORP	14180	111 ENERGY PARK DRIVE	WINCHESTER	RANDOLPH	IN	47394						 IN OH	2	0	1	440	243	0	0	0	0	0	686	1407	1123	259	18057	8578	0	0	0	0	0	29424	0	174	157	111	1	0	443	0	0	0	0	0	0	0	0	0	0	0	0	0	0	0	0	0	0	0	0	0	0	0	0	0	0	0	0	0	144	99	0	0	0	243	0	0	0	0	0	0	0	0	0	0	0	0	0	0	0	0	0	0	0	0	0	0	318	256	111	1	0	686	66	0	14977	5792	77	0	0	20846	0	0	0	0	0	0	0	0	0	0	0	0	0	0	0	0	0	0	0	0	0	0	0	0	0	0	0	0	0	8232	339	7	0	0	8578	0	0	0	0	0	0	0	0	0	0	0	0	0	0	0	0	0	0	0	0	0	0	23209	6131	84	0	0	29424	12	33	0	1	0	0	2	6	2	30	10	37	43	0	1.21		MARK H. MAYFIELD	7655846842	3/10/2004	3/17/2004		
2003	20030660	OSGOOD GAS UTILITY	14400	147 WEST RIPLEY	OSGOOD		IN	47037						 IN	0	0	0	37	10	0	0	0	0	0	47	0	0	0	636	140	0	0	0	0	0	776	0	26	11	0	0	0	37	0	0	0	0	0	0	0	0	0	0	0	0	0	0	0	0	0	0	0	0	0	0	0	0	0	0	0	0	0	10	0	0	0	0	10	0	0	0	0	0	0	0	0	0	0	0	0	0	0	0	0	0	0	0	0	0	0	36	11	0	0	0	47	100	0	636	0	0	0	0	636	0	0	0	0	0	0	0	0	0	0	0	0	0	0	0	0	0	0	0	0	0	0	0	0	0	0	0	0	0	132	8	0	0	0	140	0	0	0	0	0	0	0	0	0	0	0	0	0	0	0	0	0	0	0	0	0	0	768	8	0	0	0	776	0	0	0	0	0	0	0	0	0	0	0	0	0	0	0		STEPHEN S. WILHOLT	8126894240	3/10/2004	3/17/2004		
2003	20030661	"RENSSELAER MUNICIPAL GAS SYSTEM, CITY OF"	17230	PO BOX 280	RENSSELAER	JASPER	IN	47978						 IN	0	0	0	40	16	0	0	0	0	0	56	0	0	0	2414	372	0	0	0	0	0	2786	0	20	10	10	0	0	40	0	0	0	0	0	0	0	0	0	0	0	0	0	0	0	0	0	0	0	0	0	0	0	0	0	0	0	0	0	11	5	0	0	0	16	0	0	0	0	0	0	0	0	0	0	0	0	0	0	0	0	0	0	0	0	0	0	31	15	10	0	0	56	88	0	2393	20	1	0	0	2414	0	0	0	0	0	0	0	0	0	0	0	0	0	0	0	0	0	0	0	0	0	0	0	0	0	0	0	0	0	363	8	1	0	0	372	0	0	0	0	0	0	0	0	0	0	0	0	0	0	0	0	0	0	0	0	0	0	2756	28	2	0	0	2786	3	51	0	0	1	0	0	0	0	0	0	0	0	0	1	51 LEAKS ABOVE GROUND  3 LEAKS BELOW GROUND	DORIS CLARKE	2198665206	3/10/2004	3/17/2004		
2003	20030662	ROACHDALE GAS DEPARTMENT	17520	205 N INDIANA ST BOX 198	ROACHDALE		IN	46172						 IN	0	0	0	11	2	0	0	0	0	0	13	0	0	0	0	77	0	0	379	0	4	460	0	5	1	5	0	0	11	0	0	0	0	0	0	0	0	0	0	0	0	0	0	0	0	0	0	0	0	0	0	0	0	0	0	0	0	0	2	0	0	0	0	2	0	0	0	0	0	0	0	0	0	0	0	0	0	0	0	0	0	0	0	0	0	0	7	1	5	0	0	13	45	0	0	0	0	0	0	0	0	0	0	0	0	0	0	0	379	0	0	0	0	379	0	0	0	0	0	0	0	0	0	0	0	0	0	0	0	77	0	0	0	0	77	0	0	0	0	0	0	0	0	0	0	0	0	0	0	0	0	3	1	0	0	4	0	456	3	1	0	0	460	0	0	0	0	0	0	0	0	0	0	1	8	0	0	2.4		THEODORE E. KNOWLING	7655221532	3/10/2004	3/17/2004		
2003	20030663	SOUTHERN INDIANA GAS & ELECTRIC CO	18508	20 N.W. FOURTH STREET	EVANSVILLE	VANDERBURGH	IN	47708						 IN	124	2	0	1039	1591	166	0	0	0	0	2922	506	2888	2389	57696	43429	0	0	0	0	0	106908	0	650	337	119	43	16	1165	0	0	0	0	0	0	0	0	0	0	0	0	0	0	0	0	110	36	17	3	166	0	0	0	0	0	0	0	0	1194	375	22	0	0	1591	0	0	0	0	0	0	0	0	0	0	0	0	0	0	0	0	0	0	0	0	0	0	1844	822	177	60	19	2922	99	0	44068	19114	287	10	0	63479	0	0	0	0	0	0	0	0	0	0	0	0	0	0	0	0	0	0	0	0	0	0	0	0	0	0	0	0	0	41640	1765	20	4	0	43429	0	0	0	0	0	0	0	0	0	0	0	0	0	0	0	0	0	0	0	0	0	0	85708	20879	307	14	0	106908	72	166	12	38	50	194	14	56	124	302	51	170	73	0	1.87	OUTSTANDING GRADE 3 LEAKS ARE NOT INCLUDED IN NUMBER OF KNOWN SYSTEM LEAKS AT END OF YEAR SCHEDULED FOR REPAIR.	RICK L. SLAGLE	8124914611	3/10/2004	3/17/2004		
2003	20030664	SNOW & OGDEN GAS CO INC	18372	14064 OLIVE BRANCH	HAGERSTOWN	WAYNE	IN	47346						 IN	1	0	0	0	0	1	0	0	0	0	2	11	0	0	0	4	0	0	0	0	0	15	0	1	0	0	0	0	1	0	0	0	0	0	0	0	0	0	0	0	0	0	0	0	1	0	0	0	0	1	0	0	0	0	0	0	0	0	0	0	0	0	0	0	0	0	0	0	0	0	0	0	0	0	0	0	0	0	0	0	0	0	0	0	0	0	2	0	0	0	0	2	100	0	11	0	0	0	0	11	0	0	0	0	0	0	0	0	0	0	0	0	0	0	0	0	0	0	0	0	0	0	0	0	0	0	0	0	0	4	0	0	0	0	4	0	0	0	0	0	0	0	0	0	0	0	0	0	0	0	0	0	0	0	0	0	0	15	0	0	0	0	15	0	0	0	0	0	0	0	0	0	0	0	0	0	0	0	SNOW AND OGDEN IS LOCATED IN HENRY COUNTY SPICELAND TOWNSHIP IN INDIANA SERVING 16 RESIDENTIAL HOMES WITH NATURAL GAS FROM PRIVATELY OWNED GAS WELL.	KENT E. HOUSE	7654895559	3/10/2004	3/17/2004		
2003	20030665	SWITZERLAND COUNTY NATURAL GAS CO	18780	309 FERRY ST PO BOX 47	VEVAY	SWITZERLAND	IN	47043						 IN	0	0	0	29	0	0	0	0	0	0	29	0	0	0	371	412	0	0	0	0	0	783	0	8	12	9	0	0	29	0	0	0	0	0	0	0	0	0	0	0	0	0	0	0	0	0	0	0	0	0	0	0	0	0	0	0	0	0	0	0	0	0	0	0	0	0	0	0	0	0	0	0	0	0	0	0	0	0	0	0	0	0	0	0	0	0	8	12	9	0	0	29	100	0	366	4	1	0	0	371	0	0	0	0	0	0	0	0	0	0	0	0	0	0	0	0	0	0	0	0	0	0	0	0	0	0	0	0	0	411	1	0	0	0	412	0	0	0	0	0	0	0	0	0	0	0	0	0	0	0	0	0	0	0	0	0	0	777	5	1	0	0	783	0	0	0	0	0	0	0	0	0	0	0	0	0	0	0.62		MARSHA CHASE	8124273332	3/10/2004	3/17/2004		
2003	20030666	WESTFIELD GAS CORP	22504	606 W PARK ST	WESTFIELD	HAMILTON	IN	46074						IN	0	0	0	10	48	0	0	0	0	0	58	0	0	0	594	1425	0	0	2	0	0	2021	0	9	1	0	0	0	10	0	0	0	0	0	0	0	0	0	0	0	0	0	0	0	0	0	0	0	0	0	0	0	0	0	0	0	0	0	35	9	4	0	0	48	0	0	0	0	0	0	0	0	0	0	0	0	0	0	0	0	0	0	0	0	0	0	44	10	4	0	0	58	44	0	582	10	1	1	0	594	0	0	0	0	0	0	0	0	2	0	0	0	0	2	0	0	0	0	0	0	0	0	0	0	0	0	0	0	0	1385	39	1	0	0	1425	0	0	0	0	0	0	0	0	0	0	0	0	0	0	0	0	0	0	0	0	0	0	1969	49	2	1	0	2021	0	0	0	0	3	6	0	0	9	51	0	0	0	0		UNACCOUNTED FOR GAS -.7%	SUSAN KRIEGBAUM	3178962581	5/27/2004	6/15/2004		
2003	20030667	SHADYSIDE GAS	31103	"P.O. BOX 24, MERIDIAN BRA"	BULTER	BULTER	PA	16001						PA	1	0	0	0	2	0	0	0	0	0	3	52	0	0	0	44	0	0	0	0	0	96	0	1	0	0	0	0	1	0	0	0	0	0	0	0	0	0	0	0	0	0	0	0	0	0	0	0	0	0	0	0	0	0	0	0	0	0	2	0	0	0	0	2	0	0	0	0	0	0	0	0	0	0	0	0	0	0	0	0	0	0	0	0	0	0	3	0	0	0	0	3	86	0	0	51	0	0	0	51	0	0	0	0	0	0	0	0	0	0	0	0	0	0	0	0	0	0	0	0	0	0	0	0	0	0	0	0	0	0	45	0	0	0	45	0	0	0	0	0	0	0	0	0	0	0	0	0	0	0	0	0	0	0	0	0	0	0	96	0	0	0	96	1	1	0	0	0	0	0	0	0	0	0	0	0	0	6		"JEFFREY J. FOLEY, VICE PRESIDENT"	7248673183	5/27/2004	6/15/2004		
2003	20030668	WESTERN RESOURCES INC (AKA KPL CO. OR GAS SERVICE)	10037	501 S.W. GAGE BOULEVARD	TOPEKA	SHAWNEE	KS	66601						 OK	126	0	63	178	242	0	0	0	0	0	609	10434	2367	241	54	23979	0	0	0	0	0	37075	0	179	147	39	2	0	367	0	0	0	0	0	0	0	0	0	0	0	0	0	0	0	0	0	0	0	0	0	0	0	0	0	0	0	0	0	164	77	1	0	0	242	0	0	0	0	0	0	0	0	0	0	0	0	0	0	0	0	0	0	0	0	0	0	343	224	40	2	0	609	19	8048	1187	3849	12	0	0	13096	0	0	0	0	0	0	0	0	0	0	0	0	0	0	0	0	0	0	0	0	0	2	0	0	0	0	0	2	1283	18542	4151	1	0	0	23977	0	0	0	0	0	0	0	0	0	0	0	0	0	0	0	0	0	0	0	0	0	9333	19729	8000	13	0	0	37075	48	96	0	4	30	82	0	0	0	1	161	177	676	1	2.27		DAVE SPEARS	7852713924	3/2/2004	3/18/2004		
2003	20030669	ORANGE CITY MUNCIPAL UTILITIES	31935	125 CENTRAL AVE SE	ORANGE CITY	SIOUX	IA	51041						 IA	0	0	0	31	30	0	0	0	0	0	61	0	0	0	813	993	0	0	0	0	0	1806	0	26	4	1	0	0	31	0	0	0	0	0	0	0	0	0	0	0	0	0	0	0	0	0	0	0	0	0	0	0	0	0	0	0	0	0	29	1	0	0	0	30	0	0	0	0	0	0	0	0	0	0	0	0	0	0	0	0	0	0	0	0	0	0	55	5	1	0	0	61	125	0	802	11	0	0	0	813	0	0	0	0	0	0	0	0	0	0	0	0	0	0	0	0	0	0	0	0	0	0	0	0	0	0	0	0	0	960	32	1	0	0	993	0	0	0	0	0	0	0	0	0	0	0	0	0	0	0	0	0	0	0	0	0	0	1762	43	1	0	0	1806	0	0	0	0	0	3	0	0	0	0	0	0	0	0	0	NONE	KENT ANDERSON 	7127074885	3/11/2004	3/26/2004		
2003	20030670	"SAWYER GAS OF GREEN COVE SPRINGS, FL"	31941	21 S. ORANGE AVE.	GREEN COVE SPRINGS	CLAY	FL	32043						 FL	0	0	0	0	4	0	0	0	0	0	4	0	0	0	0	165	0	0	0	0	0	165	0	0	0	0	0	0	0	0	0	0	0	0	0	0	0	0	0	0	0	0	0	0	0	0	0	0	0	0	0	0	0	0	0	0	0	0	0	4	0	0	0	4	0	0	0	0	0	0	0	0	0	0	0	0	0	0	0	0	0	0	0	0	0	0	0	4	0	0	0	4	65	0	0	0	0	0	0	0	0	0	0	0	0	0	0	0	0	0	0	0	0	0	0	0	0	0	0	0	0	0	0	0	0	0	0	0	0	165	0	0	0	0	165	0	0	0	0	0	0	0	0	0	0	0	0	0	0	0	0	0	0	0	0	0	0	165	0	0	0	0	165	0	0	0	0	0	0	0	0	0	0	0	0	0	0	1		"JERRY W. BOYETTE, DISTRICT MANAGER"	9042692118	3/11/2004	3/31/2004		
2003	20030671	ROCK CREEK ENERGY LLC	31993	26000 COMMERCENTRE DR	LAKE FOREST	 	CA	92630						 CA	0	0	0	1	15	0	0	0	0	0	16	0	0	0	1	81	0	0	0	0	0	82	0	0	0	0	0	0	0	0	0	0	0	0	0	0	0	0	0	0	0	0	0	0	0	0	0	0	0	0	0	0	0	0	0	0	0	0	3	12	0	0	0	15	0	0	0	0	0	0	0	0	0	0	0	0	0	0	0	0	0	0	0	0	0	0	3	12	1	0	0	16	80	0	0	0	0	1	0	1	0	0	0	0	0	0	0	0	0	0	0	0	0	0	0	0	0	0	0	0	0	0	0	0	0	0	0	0	0	81	0	0	0	0	81	0	0	0	0	0	0	0	0	0	0	0	0	0	0	0	0	0	0	0	0	0	0	81	0	0	1	0	82	0	0	0	0	1	1	0	0	0	0	0	0	0	0	0		"KEN TEAGUE, VICE PRESIDENT"	9494547105	3/11/2004	6/29/2004		
2003	20030672	HORTON HIGHWAY UTILITY DISTRICT	7365	102 S. MAIN STREET	CHAPEL HILL	MARSHALL	TN	37034						 TN	0	0	0	38	114	0	0	0	0	0	152	0	0	0	303	1505	0	0	0	0	0	1808	0	10	10	18	0	0	38	0	0	0	0	0	0	0	0	0	0	0	0	0	0	0	0	0	0	0	0	0	0	0	0	0	0	0	0	0	69	45	0	0	0	114	0	0	0	0	0	0	0	0	0	0	0	0	0	0	0	0	0	0	0	0	0	0	79	55	18	0	0	152	0	0	301	0	2	0	0	303	0	0	0	0	0	0	0	0	0	0	0	0	0	0	0	0	0	0	0	0	0	0	0	0	0	0	0	0	0	1495	10	0	0	0	1505	0	0	0	0	0	0	0	0	0	0	0	0	0	0	0	0	0	0	0	0	0	0	1796	10	2	0	0	1808	0	0	0	0	18	25	0	0	0	0	0	0	0	0	1.4		WECK H. MANKIN	9313642283	3/11/2004	3/18/2004		
2003	20030673	"WESTBY GAS SERVICE, TOWN OF"	22372	BOX 186 207 MAIN ST.	WESTBY	SHERIDAN	MT	59275						 MT	0	0	0	0	3	0	0	0	0	0	3	0	0	0	0	114	0	0	0	0	0	114	0	0	0	0	0	0	0	0	0	0	0	0	0	0	0	0	0	0	0	0	0	0	0	0	0	0	0	0	0	0	0	0	0	0	0	0	0	0	0	0	0	0	0	0	0	0	0	0	0	0	0	0	0	0	0	0	0	0	0	0	0	0	0	0	0	0	0	0	0	0	0	0	0	0	0	0	0	0	0	0	0	0	0	0	0	0	0	0	0	0	0	0	0	0	0	0	0	0	0	0	0	0	0	0	0	0	0	114	0	0	0	0	114	0	0	0	0	0	0	0	0	0	0	0	0	0	0	0	0	0	0	0	0	0	0	114	0	0	0	0	114	0	0	0	0	0	0	0	0	0	0	0	0	0	0	0		LYNDEN LAGERQUIST	4063852445	3/11/2004	3/18/2004		
2003	20030674	WALLY GAS CO INC	22091	105 FRONT STREET	CHICORA	BUTLER	PA	16025						 PA	1	0	0	0	7	0	0	0	0	0	8	32	0	0	0	168	0	0	0	0	0	200	0	1	0	0	0	0	1	0	0	0	0	0	0	0	0	0	0	0	0	0	0	0	0	0	0	0	0	0	0	0	0	0	0	0	0	0	6	1	0	0	0	7	0	0	0	0	0	0	0	0	0	0	0	0	0	0	0	0	0	0	0	0	0	0	7	1	0	0	0	8	0	0	32	0	0	0	0	32	0	0	0	0	0	0	0	0	0	0	0	0	0	0	0	0	0	0	0	0	0	0	0	0	0	0	0	0	0	168	0	0	0	0	168	0	0	0	0	0	0	0	0	0	0	0	0	0	0	0	0	0	0	0	0	0	0	200	0	0	0	0	200	1	1	0	0	0	0	0	0	0	0	0	0	1	0	0		RUTH M. CRAIG	7244453520	3/11/2004	3/18/2004		
2003	20030675	"HEMPHILL MUNICIPLE SYSTEM, CITY OF"	7205	210 STARR STREET	HEMPHILL 	SABINE	TX	75948	P.O. BOX 788	HEMPHILL	SABINE	TX	75948	 TX	0	0	0	6	17	0	0	0	0	0	23	0	0	0	38	577	0	0	0	0	0	615	0	0	6	0	0	0	6	0	0	0	0	0	0	0	0	0	0	0	0	0	0	0	0	0	0	0	0	0	0	0	0	0	0	0	0	0	16	1	0	0	0	17	0	0	0	0	0	0	0	0	0	0	0	0	0	0	0	0	0	0	0	0	0	0	16	7	0	0	0	23	0	0	38	0	0	0	0	38	0	0	0	0	0	0	0	0	0	0	0	0	0	0	0	0	0	0	0	0	0	0	0	0	0	0	0	0	0	566	11	0	0	0	577	0	0	0	0	0	0	0	0	0	0	0	0	0	0	0	0	0	0	0	0	0	0	604	11	0	0	0	615	0	0	0	0	0	1	0	0	0	0	0	7	0	0	3.82		DON ILES	4097872251	3/11/2004	3/18/2004		
2003	20030676	NEW ULM PUBLIC UTILITIES COMMISSION	13400	310 FIRST NORTH STREET	NEW ULM	BROWN	MN	56073						 MN	0	0	0	75	11	0	0	0	0	0	86	0	0	1	1446	3935	0	0	0	0	0	5382	0	0	64	8	3	0	75	0	0	0	0	0	0	0	0	0	0	0	0	0	0	0	0	0	0	0	0	0	0	0	0	0	0	0	0	0	1	10	0	0	0	11	0	0	0	0	0	0	0	0	0	0	0	0	0	0	0	0	0	0	0	0	0	0	1	74	8	3	0	86	100	0	1428	19	0	0	0	1447	0	0	0	0	0	0	0	0	0	0	0	0	0	0	0	0	0	0	0	0	0	0	0	0	0	0	0	0	0	3911	24	0	0	0	3935	0	0	0	0	0	0	0	0	0	0	0	0	0	0	0	0	0	0	0	0	0	0	5339	43	0	0	0	5382	0	0	1	0	0	1	0	0	0	0	0	0	0	0	0		DENNIS BRAULICK	5073598289	3/11/2004	3/18/2004		
2003	20030677	"HALLOCK GAS DEPT, VILLAGE OF"	7020	BOX 336 	HALLOCK	KITTSON	MN	56728						 MN	0	0	0	5	2	0	0	0	0	0	7	0	0	0	399	131	0	0	0	0	0	530	0	2	3	0	0	0	5	0	0	0	0	0	0	0	0	0	0	0	0	0	0	0	0	0	0	0	0	0	0	0	0	0	0	0	0	0	1	1	0	0	0	2	0	0	0	0	0	0	0	0	0	0	0	0	0	0	0	0	0	0	0	0	0	0	3	4	0	0	0	7	50	0	389	10	0	0	0	399	0	0	0	0	0	0	0	0	0	0	0	0	0	0	0	0	0	0	0	0	0	0	0	0	0	0	0	0	0	127	4	0	0	0	131	0	0	0	0	0	0	0	0	0	0	0	0	0	0	0	0	0	0	0	0	0	0	516	14	0	0	0	530	0	0	0	0	0	0	0	0	0	0	0	0	0	0	0.4		MYLES R. JOHNSON	2188432559	3/11/2004	3/18/2004		
2003	20030678	GREATER DICKSON GAS AUTHORITY	6716	600 EAST WALNUT STREET	DICKSON		TN	37055						 TN	0	0	0	262	408	0	0	0	0	0	670	0	0	0	3463	11265	0	0	0	0	0	14728	0	107	104	16	33	0	260	0	0	0	0	0	0	0	0	0	0	0	0	0	0	0	0	0	0	0	0	0	0	0	0	0	0	0	0	0	204	194	12	0	0	410	0	0	0	0	0	0	0	0	0	0	0	0	0	0	0	0	0	0	0	0	0	0	311	298	28	33	0	670	200	0	3143	310	10	0	0	3463	0	0	0	0	0	0	0	0	0	0	0	0	0	0	0	0	0	0	0	0	0	0	0	0	0	0	0	0	0	11185	80	0	0	0	11265	0	0	0	0	0	0	0	0	0	0	0	0	0	0	0	0	0	0	0	0	0	0	14328	390	10	0	0	14728	1	3	0	3	5	14	0	2	0	32	0	0	6	0	0	UNACCOUNTED FOR GAS -1.28%	JESSE DAVIS	6154412830	3/11/2004	3/18/2004		
2003	20030679	REUNION OPERATING CO	1025	15 S. A STREET	KIEFER	GREEK	OK	74041						 OK	2	0	0	0	9	0	0	0	0	0	11	10	0	0	0	504	0	0	0	0	0	514	0	2	0	0	0	0	2	0	0	0	0	0	0	0	0	0	0	0	0	0	0	0	0	0	0	0	0	0	0	7	2	0	0	0	9	0	0	0	0	0	0	0	0	0	0	0	0	0	0	0	0	0	0	0	0	0	0	0	0	0	0	0	0	0	9	2	0	0	0	11	15	0	0	0	0	0	0	0	0	0	0	0	0	0	0	0	0	0	0	0	0	0	0	0	0	0	0	0	0	0	0	0	0	0	0	0	0	504	10	0	0	0	514	0	0	0	0	0	0	0	0	0	0	0	0	0	0	0	0	0	0	0	0	0	0	504	10	0	0	0	514	0	0	0	1	0	2	0	0	0	0	0	3	3	0	0		LOWELL J. FOUSEL	9183215925	3/11/2004	3/18/2004		
2003	20030680	"LEFORS GAS DEPT, CITY OF"	11360	101 N COURT PO BOX 383   	LEFORS	GRAY	TX	79054						 TX	3	5	0	1	8	0	0	0	0	0	17	173	0	11	0	102	0	0	0	0	0	286	0	5	3	0	0	0	8	0	0	0	0	0	0	0	0	0	0	0	0	0	0	0	0	0	0	0	0	0	0	0	0	0	0	0	0	0	9	0	0	0	0	9	0	0	0	0	0	0	0	0	0	0	0	0	0	0	0	0	0	0	0	0	0	0	14	3	0	0	0	17	10	0	181	3	0	0	0	184	0	0	0	0	0	0	0	0	0	0	0	0	0	0	0	0	0	0	0	0	0	0	0	0	0	0	0	0	0	102	0	0	0	0	102	0	0	0	0	0	0	0	0	0	0	0	0	0	0	0	0	0	0	0	0	0	0	283	3	0	0	0	286	3	2	0	0	0	0	0	0	0	0	0	0	2	0	1.2		"BRUCE WITHERS, UTILITY SUPT."	8068352200	3/11/2004	3/18/2004		
2003	20030681	SCOTTSVILLE GAS CO	18144	201 WEST MAIN STREET	SCOTTSVILLE	ALLEN	KY	42164						 KY	0	0	0	27	0	0	0	0	0	0	27	0	0	0	1392	0	0	0	0	0	0	1392	0	11	13	3	0	0	27	0	0	0	0	0	0	0	0	0	0	0	0	0	0	0	0	0	0	0	0	0	0	0	0	0	0	0	0	0	0	0	0	0	0	0	0	0	0	0	0	0	0	0	0	0	0	0	0	0	0	0	0	0	0	0	0	0	11	13	3	0	0	27	0	0	1327	32	33	0	0	1392	0	0	0	0	0	0	0	0	0	0	0	0	0	0	0	0	0	0	0	0	0	0	0	0	0	0	0	0	0	0	0	0	0	0	0	0	0	0	0	0	0	0	0	0	0	0	0	0	0	0	0	0	0	0	0	0	0	1327	32	33	0	0	1392	0	0	0	0	1	0	3	13	0	12	0	0	0	0	1.2		GREG CARVER	2702373831	3/11/2004	3/18/2004		
2003	20030682	"NEW ROADS GAS SYSTEM, TOWN OF"	13370	211 WEST MAIN PO BOX 280	NEW ROADS	POINTE COUPEE	LA	70760						 LA	0	0	0	27	22	0	0	0	0	0	49	0	0	0	1730	360	0	0	0	0	0	2090	0	15	9	1	0	0	25	0	0	0	0	0	0	0	0	0	0	0	0	0	0	0	0	0	0	0	0	0	0	0	0	0	0	0	0	0	12	12	0	0	0	24	0	0	0	0	0	0	0	0	0	0	0	0	0	0	0	0	0	0	0	0	0	0	27	21	1	0	0	49	50	0	1732	8	0	0	0	1740	0	0	0	0	0	0	0	0	0	0	0	0	0	0	0	0	0	0	0	0	0	0	0	0	0	0	0	0	0	340	10	0	0	0	350	0	0	0	0	0	0	0	0	0	0	0	0	0	0	0	0	0	0	0	0	0	0	2072	18	0	0	0	2090	12	8	0	0	0	0	0	0	0	0	0	0	20	0	4	NONE	ELIE J. PART	2256385371	3/11/2004	3/18/2004		
2003	20030683	"MILFORD GAS SYSTEMS, VILLAGE OF"	12510	15 S. WEST AVE.	MILFORD	IROQUOIS	IL	60953						 IL	0	0	21	4	0	0	0	0	0	0	25	0	0	905	45	0	0	0	0	0	0	950	0	0	21	0	0	0	21	0	0	0	0	0	0	0	0	0	0	0	0	0	0	0	0	0	0	0	0	0	0	0	0	0	0	0	0	0	0	4	0	0	0	4	0	0	0	0	0	0	0	0	0	0	0	0	0	0	0	0	0	0	0	0	0	0	0	25	0	0	0	25	80	0	904	2	0	0	0	906	0	0	0	0	0	0	0	0	0	0	0	0	0	0	0	0	0	0	0	0	0	0	0	0	0	0	0	0	0	39	5	0	0	0	44	0	0	0	0	0	0	0	0	0	0	0	0	0	0	0	0	0	0	0	0	0	0	943	7	0	0	0	950	0	0	0	0	0	0	0	0	0	0	0	31	1	0	8		CHARLES TORBET	8158894581	3/11/2004	3/18/2004		
2003	20030684	"WEIR NATURAL GAS SYSTEM, TOWN OF"	22343	121 FRONT ST PO BOX 217	WIER 	CHOCTAW	MS	39772						 MS	0	0	0	7	2	0	0	0	0	0	9	0	0	0	88	81	0	0	0	0	0	169	0	5	2	0	0	0	7	0	0	0	0	0	0	0	0	0	0	0	0	0	0	0	0	0	0	0	0	0	0	0	0	0	0	0	0	0	2	0	0	0	0	2	0	0	0	0	0	0	0	0	0	0	0	0	0	0	0	0	0	0	0	0	0	0	7	2	0	0	0	9	50	0	86	2	0	0	0	88	0	0	0	0	0	0	0	0	0	0	0	0	0	0	0	0	0	0	0	0	0	0	0	0	0	0	0	0	0	78	2	0	0	0	80	0	0	0	0	0	0	0	0	0	0	0	0	0	0	0	0	0	0	0	0	0	0	164	4	0	0	0	168	0	0	0	0	0	0	0	1	0	0	0	0	0	0	0		"LARRY MCINTIRE, OPERATOR "	6625476123	3/11/2004	3/18/2004		
2003	20030685	EDINBURG GAS SYSTEM	4240	205 W WASHINGTON BOX 350 	EDINBURG	CHRISTIAN	IL	62531						 IL	0	0	0	9	0	0	0	0	0	0	9	0	0	0	506	0	0	0	0	0	0	506	0	0	9	0	0	0	9	0	0	0	0	0	0	0	0	0	0	0	0	0	0	0	0	0	0	0	0	0	0	0	0	0	0	0	0	0	0	0	0	0	0	0	0	0	0	0	0	0	0	0	0	0	0	0	0	0	0	0	0	0	0	0	0	0	0	9	0	0	0	9	0	0	478	25	3	0	0	506	0	0	0	0	0	0	0	0	0	0	0	0	0	0	0	0	0	0	0	0	0	0	0	0	0	0	0	0	0	0	0	0	0	0	0	0	0	0	0	0	0	0	0	0	0	0	0	0	0	0	0	0	0	0	0	0	0	478	25	3	0	0	506	0	0	0	0	0	0	0	0	0	0	0	0	0	0	1		JOYCE M. WHITLOW	2176235542	3/11/2004	3/18/2004		
2003	20030686	AUSTIN UTILITIES	918	400 4TH ST NE	AUSTIN	MOWER	MN	55912						 MN	9	0	4	96	68	0	0	0	0	0	177	1073	0	80	2376	6751	0	0	0	0	0	10280	0	48	45	7	8	1	109	0	0	0	0	0	0	0	0	0	0	0	0	0	0	0	0	0	0	0	0	0	0	0	0	0	0	0	0	0	25	41	1	1	0	68	0	0	0	0	0	0	0	0	0	0	0	0	0	0	0	0	0	0	0	0	0	0	73	86	8	9	1	177	75	423	2192	883	29	2	0	3529	0	0	0	0	0	0	0	0	0	0	0	0	0	0	0	0	0	0	0	0	0	0	0	0	0	0	0	0	0	4683	2068	0	0	0	6751	0	0	0	0	0	0	0	0	0	0	0	0	0	0	0	0	0	0	0	0	0	423	6875	2951	29	2	0	10280	5	1	0	0	1	5	0	0	0	0	0	0	0	0	1.58	"NOTE-PLASTIC MILES OF MAIN TOTAL 67, INDIVIDUAL MILEAGE OF SIZE CLASSES ADD UP TO 68 DUE TO ROUNDING.  NOTE - THIS SUPPLEMENTAL REPORT IS FILED TO CHANGE THE TOTAL NUMBER OF MILES OF PE IN PART B1 FROM 67 TO 68. THE ACTUAL TOTAL IS 67.1, BUT THE ROUNDING OF THE INDIVDUAL SIZE CLASSES IN PART B2 FORCES THE TOTAL OF THOSE CLASSES TO 68 MILES. TO MAKE THE TWO TOTALS BALANCE, THIS CHANGE WAS MADE.  THIS METHOD TO BALANCE THE TOTALS BETWEEN PART B1 AND B2 WAS AGREED TO WITH JEFFERSON TANCIL ON 9-20-04."	KEVEN J. MAXA	5074370845	3/11/2004	3/18/2004		
2003	20030687	WAVERLY GAS DEPT	22273	171 NORTH PEARL STREET	WAVERLY		IL	62692						 IL	0	0	10	0	1	0	0	0	0	0	11	0	0	602	0	25	0	0	0	0	0	627	0	3	6	1	0	0	10	0	0	0	0	0	0	0	0	0	0	0	0	0	0	0	0	0	0	0	0	0	0	0	0	0	0	0	0	0	1	0	0	0	0	1	0	0	0	0	0	0	0	0	0	0	0	0	0	0	0	0	0	0	0	0	0	0	4	6	1	0	0	11	50	0	590	10	2	0	0	602	0	0	0	0	0	0	0	0	0	0	0	0	0	0	0	0	0	0	0	0	0	0	0	0	0	0	0	0	0	23	0	2	0	0	25	0	0	0	0	0	0	0	0	0	0	0	0	0	0	0	0	0	0	0	0	0	0	613	10	4	0	0	627	0	3	0	0	0	1	0	0	0	0	0	0	0	0	1.19		STEVE EDWARDS	2174354111	3/11/2004	3/18/2004		
2003	20030688	"LIBERTY GAS SYSTEM, CITY OF"	11472	518 MIDDLEBURG ST BOX 127	LIBERTY	CASEY	KY	42539						 KY	0	2	0	13	18	0	0	0	0	0	33	0	13	0	58	595	0	0	0	0	0	666	0	2	13	0	0	0	15	0	0	0	0	0	0	0	0	0	0	0	0	0	0	0	0	0	0	0	0	0	0	17	1	0	0	0	18	0	0	0	0	0	0	0	0	0	0	0	0	0	0	0	0	0	0	0	0	0	0	0	0	0	0	0	0	0	19	14	0	0	0	33	0	0	71	0	0	0	0	71	0	0	0	0	0	0	0	0	0	0	0	0	0	0	0	0	0	0	0	0	0	0	595	0	0	0	0	595	0	0	0	0	0	0	0	0	0	0	0	0	0	0	0	0	0	0	0	0	0	0	0	0	0	0	0	0	0	666	0	0	0	0	666	0	1	0	0	0	2	0	0	0	4	0	0	0	0	1.73		BRIDGETT BLAKE	6067876691	3/11/2004	3/18/2004		
2003	20030689	LAWRENCE - COLBERT CITY GAS DISTRICT	11312	2711 AL HWY 20	TOWN CREEK	LAWERENCE	AL	35672						 AL	0	0	0	3	71	16	0	0	0	0	90	280	0	0	0	1420	0	0	0	0	0	1700	0	0	3	0	0	0	3	0	0	0	0	0	0	0	0	0	0	0	0	0	0	0	15	1	0	0	0	16	0	0	0	0	0	0	0	0	7	64	0	0	0	71	0	0	0	0	0	0	0	0	0	0	0	0	0	0	0	0	0	0	0	0	0	0	22	68	0	0	0	90	100	0	280	0	0	0	0	280	0	0	0	0	0	0	0	0	0	0	0	0	0	0	0	0	0	0	0	0	0	0	0	0	0	0	0	0	0	1419	1	0	0	0	1420	0	0	0	0	0	0	0	0	0	0	0	0	0	0	0	0	0	0	0	0	0	0	1699	1	0	0	0	1700	6	1	0	0	1	2	0	0	0	0	0	0	0	0	1		DAN SIMMONS	2566852708	3/11/2004	3/18/2004		
2003	20030690	BOAZ GAS BOARD	1584	138 NORTH MAIN STREET	BOAZ	MARSHALL	AL	35957	PO BOX 594	BOAZ	MARSHALL	AL	35957	 AL	0	0	0	151	92	0	0	0	0	0	243	0	0	0	860	3158	0	0	0	0	0	4018	0	62	75	14	0	0	151	0	0	0	0	0	0	0	0	0	0	0	0	0	0	0	0	0	0	0	0	0	0	0	0	0	0	0	0	0	89	3	0	0	0	92	0	0	0	0	0	0	0	0	0	0	0	0	0	0	0	0	0	0	0	0	0	0	151	78	14	0	0	243	225	0	835	23	2	0	0	860	0	0	0	0	0	0	0	0	0	0	0	0	0	0	0	0	0	0	0	0	0	0	0	0	0	0	0	0	0	3145	13	0	0	0	3158	0	0	0	0	0	0	0	0	0	0	0	0	0	0	0	0	0	0	0	0	0	0	3980	36	2	0	0	4018	0	2	0	0	1	13	1	0	0	0	0	0	0	0	0.03	"PURCHASE: 492,057  SALES:         474,219                       _______                       17,838/492,057=.03%    UNACCOUNTED FOR GAS RISE DUE TO INSTALLATION OF A NUMBER OF METERS MEAUSRING IN THOUSANDS BUT ENTER IN COMPUTER SYSTEM AS HUNDREDS."	CRAIG RIGSBY	2565936764	3/11/2004	3/18/2004		
2003	20030691	"PICAYUNE UTILITIES DEPT, CITY OF"	15497	101 WITTHAUER DR.	PICAYUNE	PEARL RIVER	MS	39466	203 GOODYEAR BLVD.	PICAYUNE	PEARL RIVER	MS	39466	 MS	0	0	12	44	30	1	0	0	0	0	87	0	0	336	1220	1208	0	0	0	0	0	2764	0	40	12	4	0	0	56	0	0	0	0	0	0	0	0	0	0	0	0	0	0	0	1	0	0	0	0	1	0	0	0	0	0	0	0	0	14	16	0	0	0	30	0	0	0	0	0	0	0	0	0	0	0	0	0	0	0	0	0	0	0	0	0	0	55	28	4	0	0	87	50	0	1555	0	0	0	0	1555	0	0	0	0	0	0	0	0	0	0	0	0	0	0	0	0	0	0	0	0	0	0	0	0	0	0	0	0	0	1186	0	0	0	0	1186	0	0	0	0	0	0	0	0	0	0	0	0	0	0	0	0	0	0	0	0	0	0	2741	22	1	0	0	2764	7	15	0	0	7	30	9	18	3	12	0	0	97	0	3.28	97 GRADE 3 LEAKS SCH. FOR REPAIR.	BILLY MCQUEEN	6017497012	3/11/2004	3/18/2004		
2003	20030692	ENERGY WEST AZ 	31432	200 W.LONGHORN ROAD	PAYSON	GILA	AZ	85541	1 FIRST AVENUE SOUTH	GREAT FALLS	CASCADE	MT	59401	 AZ	0	0	0	0	174	0	0	0	0	0	174	0	0	0	767	6759	0	0	0	0	0	7526	0	0	0	0	0	0	0	0	0	0	0	0	0	0	0	0	0	0	0	0	0	0	0	0	0	0	0	0	0	0	0	0	0	0	0	0	0	0	0	0	0	0	0	144	19	11	0	0	174	0	0	0	0	0	0	0	0	0	0	0	0	0	0	0	144	19	11	0	0	174	100	0	767	0	0	0	0	767	0	0	0	0	0	0	0	0	0	0	0	0	0	0	0	0	0	0	0	0	0	0	0	0	0	0	0	0	0	0	0	0	0	0	0	0	6741	18	0	0	0	6759	0	0	0	0	0	0	0	0	0	0	0	0	0	0	0	7508	18	0	0	0	7526	0	0	14	1	11	23	0	0	0	0	0	0	0	0	3		ROBERT TROUTMAN	9284742294	3/9/2004	3/18/2004		
2003	20030693	NORTHWEST NATURAL GAS CO	13840	220 NW SECOND AVENUE	PORTLAND	MULTNOMAH	OR	97209						 OR	40	0	44	6192	4232	0	0	0	0	0	10508	24844	0	963	201643	307724	0	0	0	0	0	535174	0	4834	913	479	50	0	6276	0	0	0	0	0	0	0	0	0	0	0	0	0	0	0	0	0	0	0	0	0	0	0	0	0	0	0	0	0	3586	566	80	0	0	4232	0	0	0	0	0	0	0	0	0	0	0	0	0	0	0	0	0	0	0	0	0	0	8420	1479	559	50	0	10508	76	0	219556	7580	266	42	6	227450	0	0	0	0	0	0	0	0	0	0	0	0	0	0	0	0	0	0	0	0	0	0	0	0	0	0	0	0	0	303033	4463	215	13	0	307724	0	0	0	0	0	0	0	0	0	0	0	0	0	0	0	0	0	0	0	0	0	0	522589	12043	481	55	6	535174	49	96	0	3	258	635	4	7	5	5	43	39	111	0	0.37		J.C. PEERY	5032264211	3/15/2004	3/18/2004		
2003	20030694	NORTHWEST NATURAL GAS CO	13840	220 NW SECOND AVENUE	PORTLAND	MULTNOMAH	OR	97209						 WA	7	0	3	369	1032	0	0	0	0	0	1411	39	0	20	5399	45278	0	0	0	0	0	50736	0	228	89	58	4	0	379	0	0	0	0	0	0	0	0	0	0	0	0	0	0	0	0	0	0	0	0	0	0	0	0	0	0	0	0	0	840	164	28	0	0	1032	0	0	0	0	0	0	0	0	0	0	0	0	0	0	0	0	0	0	0	0	0	0	1068	253	86	4	0	1411	76	0	5370	63	22	3	0	5458	0	0	0	0	0	0	0	0	0	0	0	0	0	0	0	0	0	0	0	0	0	0	0	0	0	0	0	0	0	44599	657	20	2	0	45278	0	0	0	0	0	0	0	0	0	0	0	0	0	0	0	0	0	0	0	0	0	0	49969	720	42	5	0	50736	13	4	0	0	58	71	0	0	0	0	7	3	10	0	0.37		J.C. PEERY	5032264211	3/15/2004	3/18/2004		
2003	20030695	"BELLVILLE, CITY OF"	1272	30 SOUTH HOLLAND	BELLVILLE	AUSTIN	TX	77418						 TX	0	10	0	4	24	0	0	0	0	0	38	0	216	0	58	1059	0	0	0	0	0	1333	0	9	4	0	0	0	13	0	0	0	0	0	0	0	0	0	0	0	0	0	0	0	0	0	0	0	0	0	0	0	0	0	0	0	0	0	15	10	0	0	0	25	0	0	0	0	0	0	0	0	0	0	0	0	0	0	0	0	0	0	0	0	0	0	24	14	0	0	0	38	40	0	269	5	0	0	0	274	0	0	0	0	0	0	0	0	0	0	0	0	0	0	0	0	0	0	0	0	0	0	0	0	0	0	0	0	0	1045	14	0	0	0	1059	0	0	0	0	0	0	0	0	0	0	0	0	0	0	0	0	0	0	0	0	0	0	1314	19	0	0	0	1333	0	11	0	0	0	0	0	0	0	0	0	0	0	0	0.0392		WARREN KLUMP	9798653136	3/11/2004	3/18/2004		
2003	20030696	"GRANITE, TOWN OF"	6570	420 N MAIN ST PO BOX 116	GRANITE	GREER	OK	73547						 OK	0	0	0	0	17	0	0	0	0	0	17	0	0	0	0	503	0	0	0	0	0	503	0	0	0	0	0	0	0	0	0	0	0	0	0	0	0	0	0	0	0	0	0	0	0	0	0	0	0	0	0	0	0	0	0	0	0	0	13	4	0	0	0	17	0	0	0	0	0	0	0	0	0	0	0	0	0	0	0	0	0	0	0	0	0	0	13	4	0	0	0	17	50	0	0	0	0	0	0	0	0	0	0	0	0	0	0	0	0	0	0	0	0	0	0	0	0	0	0	0	0	0	0	0	0	0	0	0	0	497	6	0	0	0	503	0	0	0	0	0	0	0	0	0	0	0	0	0	0	0	0	0	0	0	0	0	0	497	6	0	0	0	503	0	0	0	0	0	0	0	0	0	5	0	0	0	0	0.015		ROBERT GABLE	5805352116	3/11/2004	3/18/2004		
2003	20030697	GRAHAM COUNTY UTIL INC	6484	9 WEST CENTER	PIMA		AZ	85543						 AZ	0	0	0	139	71	0	0	0	0	0	210	0	0	0	3704	1112	0	0	0	0	0	4816	0	131	8	0	0	0	139	0	0	0	0	0	0	0	0	0	0	0	0	0	0	0	0	0	0	0	0	0	0	0	0	0	0	0	0	0	55	16	0	0	0	71	0	0	0	0	0	0	0	0	0	0	0	0	0	0	0	0	0	0	0	0	0	0	186	24	0	0	0	210	90	0	3661	43	0	0	0	3704	0	0	0	0	0	0	0	0	0	0	0	0	0	0	0	0	0	0	0	0	0	0	0	0	0	0	0	0	0	1100	12	0	0	0	1112	0	0	0	0	0	0	0	0	0	0	0	0	0	0	0	0	0	0	0	0	0	0	4761	55	0	0	0	4816	20	4	0	0	1	14	0	0	0	0	2	11	0	0	0		JASON HUGHES	9284852451	3/11/2004	3/18/2004		
2003	20030698	WILTON GAS DEPT	22693	PO BOX 159 100 DEPOT ST	WILTON	SHELBY	AL	35187						 AL	0	0	0	3	2	0	0	0	0	0	5	0	0	0	0	79	0	0	0	97	0	176	0	0	3	0	0	0	3	0	0	0	0	0	0	0	0	0	0	0	0	0	0	0	0	0	0	0	0	0	0	0	0	0	0	0	0	0	2	0	0	0	0	2	0	0	0	0	0	0	0	0	0	0	0	0	0	0	0	0	0	0	0	0	0	0	2	3	0	0	0	5	60	0	0	0	0	0	0	0	0	0	0	0	0	0	0	0	0	0	0	0	0	0	0	0	0	0	0	0	0	0	79	0	0	0	0	79	0	0	0	0	0	0	0	0	0	0	0	0	0	0	0	97	0	0	0	0	97	0	0	0	0	0	0	0	0	176	0	0	0	0	176	0	1	0	0	0	1	0	0	0	0	0	0	1	0	0	THERE ARE 97 SERVICE LINES THAT ARE GALVENIZED AND ARE UNDER CATHODIC PROCTECTION.	MIKE JACKSON	2056652021	3/11/2004	3/18/2004		
2003	20030699	ISLAND ENERGY	31097	440 WALNUT AVE	MARE ISLAND	SOLANO	CA	94592						 CA	0	0	0	3	15	0	0	0	0	0	18	0	0	0	0	164	0	0	0	0	0	164	0	1	0	0	2	0	3	0	0	0	0	0	0	0	0	0	0	0	0	0	0	0	0	0	0	0	0	0	0	0	0	0	0	0	0	0	10	4	1	0	0	15	0	0	0	0	0	0	0	0	0	0	0	0	0	0	0	0	0	0	0	0	0	0	11	4	1	2	0	18	75	0	0	0	0	0	0	0	0	0	0	0	0	0	0	0	0	0	0	0	0	0	0	0	0	0	0	0	0	0	0	0	0	0	0	0	0	92	69	3	0	0	164	0	0	0	0	0	0	0	0	0	0	0	0	0	0	0	0	0	0	0	0	0	0	92	69	3	0	0	164	0	0	0	0	0	0	4	0	0	0	0	0	3	7	1		"PAT CLARK,GAS TECH/INSPECTOR"	7075625000	3/11/2004	3/18/2004		
2003	20030700	"CLINTON, TOWN OF - GAS UTIL DIST #2, E FELICIANA"	2500	11209 BANK STREET	CLINTON	E. FELICIANA PARISH	LA	70722	PO BOX 513 11209 BANK ST	CLINTON	E. FELICIANA PARISH	LA	70722	 LA	0	0	0	17	14	0	0	0	0	0	31	0	0	0	0	341	0	0	0	0	0	341	0	5	8	3	0	0	16	0	0	0	0	0	0	0	0	0	0	0	0	0	0	0	0	0	0	0	0	0	0	2	0	0	0	0	2	0	12	0	0	0	0	12	0	0	0	0	0	0	0	0	0	0	0	0	0	0	0	0	0	0	0	0	0	0	19	8	3	0	0	30	25	0	207	6	0	0	0	213	0	0	0	0	0	0	0	0	0	0	0	0	0	0	0	0	0	0	0	0	0	0	0	0	0	0	0	0	0	341	0	0	0	0	341	0	0	0	0	0	0	0	0	0	0	0	0	0	0	0	0	0	0	0	0	0	0	548	6	0	0	0	554	0	4	8	3	0	0	0	0	0	0	0	0	0	0	4.6		"RUSSELL HICKS, MAINT. SUPERINTENDENT"	2256835531	3/11/2004	3/18/2004		
2003	20030701	"GEORGE WEST, CITY OF"	6330	PO BOX 2250	GEORGE WEST	LIVE OAK	TX	78022						 TX	0	0	0	21	14	0	0	0	0	0	35	0	0	68	11	482	0	0	448	0	0	1009	0	6	15	0	0	0	21	0	0	0	0	0	0	0	0	0	0	0	0	0	0	0	0	0	0	0	0	0	0	1	0	0	0	0	1	0	13	0	0	0	0	13	0	0	0	0	0	0	0	0	0	0	0	0	0	0	0	0	0	0	0	0	0	0	20	15	0	0	0	35	10	0	73	6	0	0	0	79	0	0	0	0	0	0	0	0	448	0	0	0	0	448	0	0	0	0	0	0	0	0	0	0	0	0	0	0	0	482	0	0	0	0	482	0	0	0	0	0	0	0	0	0	0	0	0	0	0	0	0	0	0	0	0	0	0	1003	6	0	0	0	1009	0	2	0	0	1	0	0	0	2	1	0	0	6	0	0.03		RUBEN PENA	3614491556	3/11/2004	3/18/2004		
2003	20030702	ARLINGTON NATURAL GAS CO	666	108 S. MAIN ST PO BOX 277	VAN BUREN	HANCOCK	OH	45889						 OH	6	0	6	16	38	0	0	0	0	0	66	401	0	24	123	1084	0	0	0	0	0	1632	0	10	18	0	0	0	28	0	0	0	0	0	0	0	0	0	0	0	0	0	0	0	0	0	0	0	0	0	0	0	0	0	0	0	0	0	27	11	0	0	0	38	0	0	0	0	0	0	0	0	0	0	0	0	0	0	0	0	0	0	0	0	0	0	37	29	0	0	0	66	30	0	465	82	0	0	0	547	0	0	0	0	0	0	0	0	0	0	0	0	0	0	0	0	0	0	0	0	0	0	0	0	0	0	0	0	0	1080	5	0	0	0	1085	0	0	0	0	0	0	0	0	0	0	0	0	0	0	0	0	0	0	0	0	0	0	1545	87	0	0	0	1632	5	11	0	0	0	2	0	0	0	0	1	11	9	0	0		G. MICHAEL POOLE	4192993330	3/11/2004	3/18/2004		
2003	20030703	VECTREN ENERGY DELIVERY OF OHIO	31470	1300 EXPERIMENT ROAD	TROY 	MIAMI	OH	45373	20 N.W. FOURTH ST.	EVANSVILLE	VANDERBURGH	IN	47708	 OH	509	357	47	2410	1542	176	0	0	1	0	5042	28597	37257	2847	141145	101172	0	0	0	65	0	311083	0	1045	1416	696	90	76	3323	0	0	0	0	0	0	0	0	0	0	0	0	0	0	0	12	104	55	4	1	176	0	0	0	0	0	0	0	0	634	791	117	0	0	1542	0	0	0	0	0	0	0	0	1	0	0	0	0	1	0	0	0	0	0	0	0	0	1692	2311	868	94	77	5042	50	0	39589	168297	1875	79	6	209846	0	0	0	0	0	0	0	0	0	0	0	0	0	0	0	0	0	0	0	0	0	0	0	0	0	0	0	0	0	85939	15088	143	2	0	101172	0	0	0	0	0	0	0	65	0	0	0	0	0	65	0	0	0	0	0	0	0	65	125528	183385	2018	81	6	311083	259	858	4	8	54	243	28	61	39	190	288	477	93	0	2.11	PART B-3 THE CUSTOMER OWNS THE PIPING DOWNSTREAM OF THE SERVICE VALVE (CURB VALVE) WHICH IS LOCATED NEAR THE CUSTOMER'S PROPERTY LINE.    THE AVERAGE SERVICE LENGTH OF 50 FT. INCLUDES THE COMPANY OWNED PIPE BETWEEN THE MAIN AND THE CUSTOMER OWNED PIPE UP TO THE METER.    PART C   INCLUDES 1155 LEAKS ON THE CUSTOMER OWNED SERVICE PIPE WHICH THE COMPANY HAD NOTICE.	RICK L. SLAGLE	8124914611	3/11/2004	3/18/2004		
2003	20030704	MONTANA - DAKOTA UTILITIES CO	12684	400 N. 4TH STREET	BISMARCK	BURLEIGH	ND	58501						 MT	5	0	0	784	589	0	0	0	0	0	1378	361	0	0	35546	36230	0	0	0	0	0	72137	0	483	204	88	14	0	789	0	0	0	0	0	0	0	0	0	0	0	0	0	0	0	0	0	0	0	0	0	0	0	0	0	0	0	0	0	512	68	9	0	0	589	0	0	0	0	0	0	0	0	0	0	0	0	0	0	0	0	0	0	0	0	0	0	995	272	97	14	0	1378	70	35907	0	0	0	0	0	35907	0	0	0	0	0	0	0	0	0	0	0	0	0	0	0	0	0	0	0	0	0	0	0	0	0	0	0	0	36230	0	0	0	0	0	36230	0	0	0	0	0	0	0	0	0	0	0	0	0	0	0	0	0	0	0	0	0	72137	0	0	0	0	0	72137	2	15	1	5	34	102	2	4	2	18	1	20	191	1	2.21		LADONNA EMINETH	7012227924	3/11/2004	3/18/2004		
2003	20030705	MONTANA - DAKOTA UTILITIES CO	12684	400N. 4TH STREET	BISMARCK 	BURLEIGH	ND	58501						 ND	0	0	50	883	846	0	0	0	0	0	1779	0	0	1473	39815	45282	0	0	0	0	0	86570	0	506	293	99	35	0	933	0	0	0	0	0	0	0	0	0	0	0	0	0	0	0	0	0	0	0	0	0	0	0	0	0	0	0	0	0	668	166	12	0	0	846	0	0	0	0	0	0	0	0	0	0	0	0	0	0	0	0	0	0	0	0	0	0	1174	459	111	35	0	1779	78	41288	0	0	0	0	0	41288	0	0	0	0	0	0	0	0	0	0	0	0	0	0	0	0	0	0	0	0	0	0	0	0	0	0	0	0	45282	0	0	0	0	0	45282	0	0	0	0	0	0	0	0	0	0	0	0	0	0	0	0	0	0	0	0	0	86570	0	0	0	0	0	86570	0	5	1	7	38	78	3	3	1	7	10	36	149	0	0.19		LADONNA EMINETH	7012227924	3/11/2004	3/18/2004		
2003	20030706	MONTANA - DAKOTA UTILITIES CO	12684	400 N. 4TH STREET	BISMARCK	BURLEIGH	ND	58501						 SD	0	0	1	369	635	0	0	0	0	0	1005	0	0	16	17198	30257	0	0	0	0	0	47471	0	183	137	41	9	0	370	0	0	0	0	0	0	0	0	0	0	0	0	0	0	0	0	0	0	0	0	0	0	0	0	0	0	0	0	0	498	130	7	0	0	635	0	0	0	0	0	0	0	0	0	0	0	0	0	0	0	0	0	0	0	0	0	0	681	267	48	9	0	1005	80	17214	0	0	0	0	0	17214	0	0	0	0	0	0	0	0	0	0	0	0	0	0	0	0	0	0	0	0	0	0	0	0	0	0	0	0	30257	0	0	0	0	0	30257	0	0	0	0	0	0	0	0	0	0	0	0	0	0	0	0	0	0	0	0	0	47471	0	0	0	0	0	47471	1	2	1	3	28	100	0	2	3	4	0	13	21	0	1.74		LADONNA EMINETH	7012227924	3/11/2004	3/18/2004		
2003	20030707	MONTANA - DAKOTA UTILITIES CO	12684	400 N. 4TH STREET	BISMARCK	BURLEIGH	ND	58501						 WY	0	0	0	197	303	0	0	0	0	0	500	0	0	0	9013	5924	0	0	0	0	0	14937	0	112	52	32	1	0	197	0	0	0	0	0	0	0	0	0	0	0	0	0	0	0	0	0	0	0	0	0	0	0	0	0	0	0	0	0	285	18	0	0	0	303	0	0	0	0	0	0	0	0	0	0	0	0	0	0	0	0	0	0	0	0	0	0	397	70	32	1	0	500	83	9013	0	0	0	0	0	9013	0	0	0	0	0	0	0	0	0	0	0	0	0	0	0	0	0	0	0	0	0	0	0	0	0	0	0	0	5924	0	0	0	0	0	5924	0	0	0	0	0	0	0	0	0	0	0	0	0	0	0	0	0	0	0	0	0	14937	0	0	0	0	0	14937	0	1	0	8	11	35	0	3	5	0	3	10	60	0	2.69		LADONNA EMINETH	7012227924	3/11/2004	3/18/2004		
2003	20030708	GREAT PLAINS NATURAL GAS CO	6690	105 W. LINCOLN AVENUE	FERGUS FALLS	OTTERTAIL	MN	56537	18049 COUNTY ROAD 8 EAST	WAHPETON		ND	58075	 ND	0	0	0	2	0	0	0	0	0	0	2	0	0	0	7	2	0	0	0	0	0	9	0	1	0	1	0	0	2	0	0	0	0	0	0	0	0	0	0	0	0	0	0	0	0	0	0	0	0	0	0	0	0	0	0	0	0	0	0	0	0	0	0	0	0	0	0	0	0	0	0	0	0	0	0	0	0	0	0	0	0	0	0	0	0	0	1	0	1	0	0	2	214	0	2	2	2	1	0	7	0	0	0	0	0	0	0	0	0	0	0	0	0	0	0	0	0	0	0	0	0	0	0	0	0	0	0	0	0	1	1	0	0	0	2	0	0	0	0	0	0	0	0	0	0	0	0	0	0	0	0	0	0	0	0	0	0	3	3	2	1	0	9	0	0	0	0	0	0	0	0	0	0	0	0	0	0	0.2		LADONNA EMINETH	7012227924	3/11/2004	3/18/2004		
2003	20030709	WAYLAND MUNICIPAL GAS CO	22280	218 WEST MAIN STREET	WAYLAND	HENRY	IA	52654						 IA	0	0	0	5	4	0	0	0	0	0	9	0	0	0	294	140	0	0	0	0	0	434	0	4	1	0	0	0	5	0	0	0	0	0	0	0	0	0	0	0	0	0	0	0	0	0	0	0	0	0	0	0	0	0	0	0	0	0	4	0	0	0	0	4	0	0	0	0	0	0	0	0	0	0	0	0	0	0	0	0	0	0	0	0	0	0	8	1	0	0	0	9	0	0	283	11	0	0	0	294	0	0	0	0	0	0	0	0	0	0	0	0	0	0	0	0	0	0	0	0	0	0	0	0	0	0	0	0	0	134	6	0	0	0	140	0	0	0	0	0	0	0	0	0	0	0	0	0	0	0	0	0	0	0	0	0	0	417	17	0	0	0	434	0	0	0	0	0	0	0	0	0	0	0	0	0	0	0	UNACCOUNTED FOR GAS -.02%	MARSHA CHALUPA	3192563276	3/11/2004	3/19/2004		
2003	20030710	GREAT PLAINS NATURAL GAS CO	6690	105 W. LINCOLN AVENUE	FERGUS FALLS	OTTERTAIL	MN	56537						 MN	0	0	0	116	288	0	0	0	0	0	404	0	0	0	3579	17466	0	0	0	0	0	21045	0	42	49	20	5	0	116	0	0	0	0	0	0	0	0	0	0	0	0	0	0	0	0	0	0	0	0	0	0	151	29	0	0	0	180	0	90	18	0	0	0	108	0	0	0	0	0	0	0	0	0	0	0	0	0	0	0	0	0	0	0	0	0	0	283	96	20	5	0	404	89	0	2964	590	21	4	0	3579	0	0	0	0	0	0	0	0	0	0	0	0	0	0	0	0	0	0	0	0	0	0	7764	111	8	0	0	7883	0	9496	81	6	0	0	9583	0	0	0	0	0	0	0	0	0	0	0	0	0	0	0	0	0	0	0	0	0	0	20224	782	35	4	0	21045	0	1	3	3	14	19	5	6	1	0	1	0	0	0	1.84		LADONNA EMINETH	7102227924	3/11/2004	3/19/2004		
2003	20030711	GREAT PLAINS NATURAL GAS CO	6690	105 W. LINCOLN AVENUE	FERGUS FALLS	OTTERTAIL	MN	56537						 ND	0	0	0	14	31	0	0	0	0	0	45	0	0	0	289	1817	0	0	0	0	0	2106	0	3	6	5	0	0	14	0	0	0	0	0	0	0	0	0	0	0	0	0	0	0	0	0	0	0	0	0	0	17	3	0	0	0	20	0	10	1	0	0	0	11	0	0	0	0	0	0	0	0	0	0	0	0	0	0	0	0	0	0	0	0	0	0	30	10	5	0	0	45	88	0	280	7	2	0	0	289	0	0	0	0	0	0	0	0	0	0	0	0	0	0	0	0	0	0	0	0	0	0	876	19	0	0	0	895	0	910	12	0	0	0	922	0	0	0	0	0	0	0	0	0	0	0	0	0	0	0	0	0	0	0	0	0	0	2066	38	2	0	0	2106	0	0	1	0	1	3	0	3	0	0	0	0	0	0	1.84		LADONNA EMINETH	7012227924	3/12/2004	3/19/2004		
2003	20030712	CONNECTICUT NATURAL GAS CORP	2700	76 MEADOW STREET	EAST HARTFORD	HARTFORD	CT	6108						 CT	17	6	0	967	512	454	4	0	0	0	1960	16901	3100	0	35485	62220	6	796	0	0	0	118508	0	314	250	326	74	26	990	0	0	0	4	0	0	4	0	0	0	0	0	0	0	0	0	173	226	48	7	454	0	0	0	0	0	0	0	0	251	140	121	0	0	512	0	0	0	0	0	0	0	0	0	0	0	0	0	0	0	0	0	0	0	0	0	0	565	563	677	122	33	1960	71	352	26609	27591	812	117	5	55486	0	0	0	0	0	0	0	0	492	304	0	0	0	796	0	0	1	5	0	0	6	0	0	0	0	0	0	0	0	45632	16153	381	54	0	62220	0	0	0	0	0	0	0	0	0	0	0	0	0	0	0	0	0	0	0	0	0	352	72733	44049	1198	171	5	118508	148	254	95	16	16	80	1	1	0	1	230	111	204	0	1.19		PAUL A. QUEFELD	8607273484	3/11/2004	3/19/2004		
2003	20030713	MONTANA POWER CO	12690	40 EAST BROADWAY	BUTTE	SILVER BOW	MT	59701	125 SOUTH DAKOTA AVENUE	SIOUX FALLS		SD	57104	 MT	0	0	0	0	2	0	0	0	0	0	2	0	0	0	0	56	0	0	0	0	0	56	0	0	0	0	0	0	0	0	0	0	0	0	0	0	0	0	0	0	0	0	0	0	0	0	0	0	0	0	0	0	0	0	0	0	0	0	0	1	1	0	0	2	0	0	0	0	0	0	0	0	0	0	0	0	0	0	0	0	0	0	0	0	0	0	0	1	1	0	0	2	70	0	0	0	0	0	0	0	0	0	0	0	0	0	0	0	0	0	0	0	0	0	0	0	0	0	0	0	0	0	0	0	0	0	0	0	0	48	4	4	0	0	56	0	0	0	0	0	0	0	0	0	0	0	0	0	0	0	0	0	0	0	0	0	0	48	4	4	0	0	56	0	0	0	0	2	0	0	0	0	0	0	0	0	0	0	BIG SKY PROPANE	DANIEL D. KUCHTYN	4064973147	3/12/2004	4/28/2004		
2003	20030714	MONTANA POWER CO	12690	40 EAST BROADWAY	BUTTE	SILVER BOW	MT	59701	125 SOUTH DAKOTA AVE.	SIOUX FALLS		SD	57104	 MT	0	0	0	0	13	0	0	0	0	0	13	0	0	0	0	431	0	0	0	0	0	431	0	0	0	0	0	0	0	0	0	0	0	0	0	0	0	0	0	0	0	0	0	0	0	0	0	0	0	0	0	0	0	0	0	0	0	0	10	2	1	0	0	13	0	0	0	0	0	0	0	0	0	0	0	0	0	0	0	0	0	0	0	0	0	0	10	2	1	0	0	13	70	0	0	0	0	0	0	0	0	0	0	0	0	0	0	0	0	0	0	0	0	0	0	0	0	0	0	0	0	0	0	0	0	0	0	0	0	430	1	0	0	0	431	0	0	0	0	0	0	0	0	0	0	0	0	0	0	0	0	0	0	0	0	0	0	430	1	0	0	0	431	0	0	0	0	0	1	0	0	0	0	0	0	0	0	0	TOWNSEND PROPANE	DANIEL D. KUCHTYN	4064973147	3/12/2004	4/28/2004		
2003	20030715	MONTANA POWER CO	12690	40 EAST BROADWAY STREET	BUTTE 	SILVER BOW	MT	59701	125 SOUTH DAKOTA AVENUE	SIOUX FALLS		SD	57104	 MT	0	0	0	1288	2704	0	0	0	0	0	3992	0	0	0	75488	87691	0	0	0	0	0	163179	0	827	313	126	20	2	1288	0	0	0	0	0	0	0	0	0	0	0	0	0	0	0	0	0	0	0	0	0	0	0	0	0	0	0	0	0	2100	441	163	0	0	2704	0	0	0	0	0	0	0	0	0	0	0	0	0	0	0	0	0	0	0	0	0	0	2927	754	289	20	2	3992	70	0	73798	1539	151	0	0	75488	0	0	0	0	0	0	0	0	0	0	0	0	0	0	0	0	0	0	0	0	0	0	0	0	0	0	0	0	0	86856	813	21	1	0	87691	0	0	0	0	0	0	0	0	0	0	0	0	0	0	0	0	0	0	0	0	0	0	160654	2352	172	1	0	163179	1	3	2	4	117	282	5	12	0	2	20	176	9	0	1.5	NORTHWESTEN ENERGY	DANIEL D. KUCHTYN	4064973147	3/12/2004	4/28/2004		
2003	20030716	"DUNLAP GAS SYSTEM, CITY OF"	3610	23 RANKIN AVENUE S.	DUNLAP	SEQUATCHIE	TN	37327						 TN	0	0	0	69	59	0	0	0	0	0	128	0	0	0	744	1776	0	0	0	0	0	2520	0	30	22	18	0	0	70	0	0	0	0	0	0	0	0	0	0	0	0	0	0	0	0	0	0	0	0	0	0	0	0	0	0	0	0	0	48	10	0	0	0	58	0	0	0	0	0	0	0	0	0	0	0	0	0	0	0	0	0	0	0	0	0	0	78	32	18	0	0	128	149	0	741	2	1	0	0	744	0	0	0	0	0	0	0	0	0	0	0	0	0	0	0	0	0	0	0	0	0	0	0	0	0	0	0	0	0	1751	23	2	0	0	1776	0	0	0	0	0	0	0	0	0	0	0	0	0	0	0	0	0	0	0	0	0	0	2492	25	3	0	0	2520	2	3	0	0	1	6	0	0	0	1	0	29	2	0	1.6		RICK SWANGER	4239494119	3/16/2004	3/19/2004		
2003	20030717	LEWISPORT NATURAL GAS SYSTEM	11410	PO BOX 22 405 2ND ST	LEWISPORT	KENTUCKY	KY	42351						 KY	0	0	36	50	0	0	0	0	0	0	86	0	0	750	399	0	0	0	0	0	0	1149	0	15	21	0	0	0	36	0	0	0	0	0	0	0	0	0	0	0	0	0	0	0	0	0	0	0	0	0	0	50	0	0	0	0	50	0	0	0	0	0	0	0	0	0	0	0	0	0	0	0	0	0	0	0	0	0	0	0	0	0	0	0	0	0	65	21	0	0	0	86	0	0	741	6	3	0	0	750	0	0	0	0	0	0	0	0	0	0	0	0	0	0	0	0	0	0	0	0	0	0	390	9	0	0	0	399	0	0	0	0	0	0	0	0	0	0	0	0	0	0	0	0	0	0	0	0	0	0	0	0	0	0	0	0	0	1131	15	3	0	0	1149	0	0	0	0	0	0	0	0	0	22	0	0	2	0	0.819		TIM THOMPSON	2702953324	3/12/2004	3/19/2004		
2003	20030718	RIPLEY GAS SYSTEM	17480	500 SOUTH MAIN STREET	RIPLEY	TIPPAH	MS	38663						 MS	0	0	0	73	166	0	0	0	0	0	239	0	0	0	2107	4050	0	0	0	0	0	6157	0	42	15	16	0	0	73	0	0	0	0	0	0	0	0	0	0	0	0	0	0	0	0	0	0	0	0	0	0	0	0	0	0	0	0	0	163	0	3	0	0	166	0	0	0	0	0	0	0	0	0	0	0	0	0	0	0	0	0	0	0	0	0	0	205	15	19	0	0	239	100	0	2107	0	0	0	0	2107	0	0	0	0	0	0	0	0	0	0	0	0	0	0	0	0	0	0	0	0	0	0	0	0	0	0	0	0	0	4050	0	0	0	0	4050	0	0	0	0	0	0	0	0	0	0	0	0	0	0	0	0	0	0	0	0	0	0	6157	0	0	0	0	6157	0	3	6	12	0	0	0	2	0	0	0	0	0	0	6		BOBBY HEAVENER	6628377747	2/4/2004	3/19/2004		
2003	20030719	"HUMBOLDT MUNICIPAL GAS, CITY OF"	30964	118 S MAIN STREET	HUMBOLDT	MINNEHAHA	SD	57035						 SD	0	0	0	6	6	0	0	0	0	0	12	0	0	0	0	248	0	0	0	0	0	248	0	0	6	0	0	0	6	0	0	0	0	0	0	0	0	0	0	0	0	0	0	0	0	0	0	0	0	0	0	0	0	0	0	0	0	0	4	2	0	0	0	6	0	0	0	0	0	0	0	0	0	0	0	0	0	0	0	0	0	0	0	0	0	0	4	8	0	0	0	12	100	0	0	0	0	0	0	0	0	0	0	0	0	0	0	0	0	0	0	0	0	0	0	0	0	0	0	0	0	0	0	0	0	0	0	0	0	247	1	0	0	0	248	0	0	0	0	0	0	0	0	0	0	0	0	0	0	0	0	0	0	0	0	0	0	247	1	0	0	0	248	0	0	0	0	0	0	0	0	0	0	0	0	0	0	1.638		SID GULBRANSON	6052564527	3/12/2004	3/19/2004		
2003	20030720	PROVIRON INC.	1020	5810 SAN BERNARDO STE 480	LAREDO	WEBB	TX	78041						 TX	0	0	0	16	119	0	0	0	0	0	135	0	0	0	0	3397	0	0	0	0	0	3397	0	1	15	0	0	0	16	0	0	0	0	0	0	0	0	0	0	0	0	0	0	0	0	0	0	0	0	0	0	0	0	0	0	0	0	0	100	19	0	0	0	119	0	0	0	0	0	0	0	0	0	0	0	0	0	0	0	0	0	0	0	0	0	0	101	34	0	0	0	135	65	0	0	0	0	0	0	0	0	0	0	0	0	0	0	0	0	0	0	0	0	0	0	0	0	0	0	0	0	0	0	0	0	0	0	0	0	3356	41	0	0	0	3397	0	0	0	0	0	0	0	0	0	0	0	0	0	0	0	0	0	0	0	0	0	0	3356	41	0	0	0	3397	0	0	0	0	32	24	0	0	0	0	0	0	0	0	1.8		ROBERT J. ROSE	9567239274	3/12/2004	3/19/2004		
2003	20030721	"WALDEN, TOWN OF"	30839	312 5TH STREET	WALDEN		CO	80480						 WY	0	0	0	0	23	0	0	0	0	0	23	0	0	0	0	292	0	0	0	0	0	292	0	0	0	0	0	0	0	0	0	0	0	0	0	0	0	0	0	0	0	0	0	0	0	0	0	0	0	0	0	0	0	0	0	0	0	0	23	0	0	0	0	23	0	0	0	0	0	0	0	0	0	0	0	0	0	0	0	0	0	0	0	0	0	0	23	0	0	0	0	23	352	0	0	0	0	0	0	0	0	0	0	0	0	0	0	0	0	0	0	0	0	0	0	0	0	0	0	0	0	0	0	0	0	0	0	0	0	291	1	0	0	0	292	0	0	0	0	0	0	0	0	0	0	0	0	0	0	0	0	0	0	0	0	0	0	291	1	0	0	0	292	0	0	0	0	2	6	0	0	0	0	0	0	0	0	4		KELLI MCALISTER	9707234662	3/12/2004	3/19/2004		
2003	20030722	"WALDEN, TOWN OF"	30839	312 5TH STREET	WALDEN		CO	80480						 CO	0	0	0	34	9	0	0	0	0	0	43	0	0	0	523	60	0	0	0	0	0	583	0	14	20	0	0	0	34	0	0	0	0	0	0	0	0	0	0	0	0	0	0	0	0	0	0	0	0	0	0	0	0	0	0	0	0	0	9	0	0	0	0	9	0	0	0	0	0	0	0	0	0	0	0	0	0	0	0	0	0	0	0	0	0	0	23	20	0	0	0	43	74	0	497	24	1	0	0	522	0	0	0	0	0	0	0	0	0	0	0	0	0	0	0	0	0	0	0	0	0	0	0	0	0	0	0	0	0	58	2	0	0	0	60	0	0	0	0	0	0	0	0	0	0	0	0	0	0	0	0	0	0	0	0	0	0	555	26	1	0	0	582	0	0	0	0	0	0	0	0	0	0	0	0	6	0	5		KELLI MCALISTER	9707234662	3/12/2004	3/19/2004		
2003	20030723	WE ENERGIES	22777	2425 S. 35TH STREET	MILWAUKEE	MILWAUKEE	WI	53215	231 W. MICHIGAN AVENUE	MILWAUKEE	MILWAUKEE	WI	53201	 WI	0	0	0	3277	5356	0	0	0	0	0	8633	0	0	0	82828	288178	0	0	256	0	0	371262	0	1373	771	934	142	57	3277	0	0	0	0	0	0	0	0	0	0	0	0	0	0	0	0	0	0	0	0	0	0	0	0	0	0	0	0	0	3988	1186	182	0	0	5356	0	0	0	0	0	0	0	0	0	0	0	0	0	0	0	0	0	0	0	0	0	0	5361	1957	1116	142	57	8633	98	0	72933	9442	383	65	5	82828	0	0	0	0	0	0	0	0	256	0	0	0	0	256	0	0	0	0	0	0	0	0	0	0	0	0	0	0	0	285851	2213	107	7	0	288178	0	0	0	0	0	0	0	0	0	0	0	0	0	0	0	0	0	0	0	0	0	0	359040	11655	490	72	5	371262	5	39	24	28	78	416	30	44	30	80	106	6785	0	0	0	WISCONIN ELECTRIC POWER COMPANY	TODD SCHROEDER	4143894349	3/12/2004	3/19/2004		
2003	20030724	WISCONSIN GAS CO	22763	2425 S. 35TH STREET	MILWAUKEE	MILWAUKEE	WI	53215	231 W. MICHIGAN AVENUE	MILWAUKEE	MILWAUKEE	WI	53201	 WI	0	0	0	4954	5053	0	0	3	94	0	10104	0	0	0	118442	336554	0	0	24891	2	0	479889	0	2113	1829	825	101	86	4954	0	0	0	0	0	0	0	0	3	0	0	0	0	3	0	0	0	0	0	0	0	0	199	5	0	0	0	204	0	3169	1588	92	0	0	4849	0	0	0	0	0	0	0	0	74	20	0	0	0	94	0	0	0	0	0	0	0	0	5558	3442	917	101	86	10104	85	0	105122	12380	828	107	5	118442	0	0	0	0	0	0	0	0	125	24766	0	0	0	24891	0	0	0	0	0	0	0	0	6887	23264	0	0	0	30151	0	295364	10588	445	6	0	306403	0	0	0	0	0	0	0	0	1	1	0	0	0	2	0	0	0	0	0	0	0	0	407499	70999	1273	113	5	479889	18	111	40	91	103	566	16	18	33	118	126	3333	11	0	0		TODD SCHROEDER	4143894349	3/12/2004	3/19/2004		
2003	20030725	CONECTIV	3240	630 M.L.K. JR. BLVD.	WILMINGTON	NEW CASTLE	DE	19801	800 KING ST. PO BOX 231	WILMINGTON	NEW CASTLE	DE	19899	 DE	1	36	6	487	1141	129	0	0	0	0	1800	1305	19255	0	11267	75694	1	0	6061	1518	0	115101	0	223	110	109	67	21	530	0	0	0	0	0	0	0	0	0	0	0	0	0	0	0	0	64	54	9	2	129	0	0	0	0	0	0	0	0	758	185	198	0	0	1141	0	0	0	0	0	0	0	0	0	0	0	0	0	0	0	0	0	0	0	0	0	0	981	359	361	76	23	1800	58	0	22348	9294	166	19	0	31827	0	0	0	0	0	0	0	0	6056	5	0	0	0	6061	0	0	0	0	1	0	1	0	0	0	0	0	0	0	0	72842	2668	170	14	0	75694	0	0	0	0	0	0	0	1518	0	0	0	0	0	1518	0	0	0	0	0	0	0	1518	101246	11967	336	34	0	115101	59	310	14	7	21	128	15	16	30	49	222	70	247	0	1.7	DELMARVA POWER & LIGHT COMPANY	ROBERT G. KITSON	3024293847	3/12/2004	3/19/2004		
2003	20030726	EDISON MISSION OPERATIONS AND MAINTENANCE	31904	PO BOX 5485 BAKERSFIELD	BAKERSFIELD	KERN	CA	93388	BOX 81617 SW CHINA GRADE 	BAKERSFIELD	KERN	CA	93380	 CA	0	0	0	2	0	0	0	0	0	0	2	0	0	0	1	0	0	0	0	0	0	1	0	0	0	0	0	2	2	0	0	0	0	0	0	0	0	0	0	0	0	0	0	0	0	0	0	0	0	0	0	0	0	0	0	0	0	0	0	0	0	0	0	0	0	0	0	0	0	0	0	0	0	0	0	0	0	0	0	0	0	0	0	0	0	0	0	0	0	0	2	2	11616	0	0	0	0	0	1	1	0	0	0	0	0	0	0	0	0	0	0	0	0	0	0	0	0	0	0	0	0	0	0	0	0	0	0	0	0	0	0	0	0	0	0	0	0	0	0	0	0	0	0	0	0	0	0	0	0	0	0	0	0	0	0	0	0	0	0	0	0	1	1	0	0	0	0	0	0	0	0	0	0	0	0	0	0	0	"THE SUNRISE POWER PLANT GAS PIPELINE IS A SALES GAS DISTRIBUTION LINE.  EDISON MISSION OPERATION AND MAINTENANCE OPERATES THE PIPELINE UNDER CONTRACT WITH SUNRISE POWER COMPANY, LLC.  THE PIPELINE RECEIVES ITS GAS SUPPLY FROM A METERED CONNECTION AT THE KERN/MOJAVE NATURAL GAS PIPELINE, AND TRAVELS TWO MILES UNDERGROUND IN A GENERALLY WESTERLY DIRECTION TO THE SITE BOUNDARY CROSSING UNDER TWO ROADWAYS; ONE COUNTY ROAD (SHALE ROAD), AND THE OTHER A STATE HIGHWAY (HIGHWAY 33).  THESE TWO ROAD CROSSINGS ARE LOCATED AT 1 MILE NORTH OF MIDWAY ROAD AND HWY 33 AND 1 MILE SOUTH OF THE INTERSECTION OF HIGHWAY 33 AND SHALE ROAD.    THIS PIPELINE IS DESIGNED, INSTALLED AND TESTED IN ACCORDANCE WITH ASME B31.8-GAS TRASMISSION AND DISTRIBUTION SYSTEMS, 1995 EDITION AND THE U.S. DEPARTMENT OF TRANSPORTATION, PIPELINE SAFETY REGULATIONS, NATURAL GAS PARTS 191-192.    THE BELOW GRADE PIPE IS A 20"" INCH, SCHEDULE XS, API-5L, GRADE X52 PIPE.  IT IS A HIGH PRESSURE DISTRIBUTION PIPELINE WITH SMYS> 40%, OPERATING TEMPERATURE ON AVERAGE 75F AND AN OPERATING PRESSURE OF 600 PSIG.  THE DESIGN TEMPERTURE IS 120F WITH DESIGN PRESSURE OE 930 PSIG.  THE PIPELINE WAS TESTED AT 1165 PSIG USING WATER.  THE COATING ON THE PIPELIELINE IS AWWA C203 OR FUSION BOND EPOXY AND HAS CATHODIC PROTECTION.    THE PIPELINE WAS DESIGNED FOR LOCATION CLASS 1, DIVISON 2 ACCORDING TO B31.8.  IT AHS THE ABILITY TO BE RECLASSIFIED AS A LOCATION CLASS 2 PIPELINE IN THE FUTURE WITHOUT RETESTING.  THE PIPELINE IS LOCATED IN CLASS 1 AS DEFINED BY 49 CFR 192."	"JEFFREY A. GURICAN, SAFETY/REGULATORY ADVISOR PROCESSES UNLI"	6613963770	3/12/2004	3/19/2004		
2003	20030727	"WALSENBURG, CITY OF"	22112	525 S. ALBERT	WALSENBURG	HUERFANO	CO	81089						 CO	0	0	0	28	8	0	0	0	0	0	36	0	0	0	1010	556	0	0	0	0	0	1566	0	14	8	6	0	0	28	0	0	0	0	0	0	0	0	0	0	0	0	0	0	0	0	0	0	0	0	0	0	0	0	0	0	0	0	0	2	6	0	0	0	8	0	0	0	0	0	0	0	0	0	0	0	0	0	0	0	0	0	0	0	0	0	0	16	14	6	0	0	36	0	0	980	30	0	0	0	1010	0	0	0	0	0	0	0	0	0	0	0	0	0	0	0	0	0	0	0	0	0	0	0	0	0	0	0	0	0	545	11	0	0	0	556	0	0	0	0	0	0	0	0	0	0	0	0	0	0	0	0	0	0	0	0	0	0	1525	41	0	0	0	1566	0	0	0	0	1	1	0	0	0	0	0	0	0	0	2		GABRIEL GAYTAN	7191381240	3/12/2004	3/19/2004		
2003	20030728	"LIVINGSTON UTILITIES BOARD, CITY OF"	11595	P.O. DRAWER W	LIVINGSTON	SUMTER	AL	35470						AL	0	0	0	34	8	5	0	0	0	0	47	0	0	0	69	421	0	0	0	0	127	617	0	0	21	13	0	0	34	0	0	0	0	0	0	0	0	0	0	0	0	0	0	0	0	5	0	0	0	5	0	0	0	0	0	0	0	8	0	0	0	0	0	8	0	0	0	0	0	0	0	0	0	0	0	0	0	0	0	0	0	0	0	0	0	8	0	26	13	0	0	47	200	0	69	0	0	0	0	69	0	0	0	0	0	0	0	0	0	0	0	0	0	0	0	0	0	0	0	0	0	0	0	0	0	0	0	0	0	421	0	0	0	0	421	0	0	0	0	0	0	0	0	123	2	2	0	0	127	0	0	0	0	0	0	0	0	613	2	2	0	0	617	0	0	0	1	0	0	4	1	0	0	0	0	0	0	2		"JAMES C. DIAL, III, SUP OF UTILITIES"	2056522505	3/12/2004	7/1/2004		
2003	20030729	"INLAND PAPERBOARD AND PACKAGING, INC"	26316	BOGALUSA MILL PO BOX 1060	BOGALUSA	WASHINGTON PARISH	LA	70429						 LA MS	0	23	0	0	0	0	0	0	0	0	23	0	0	0	0	0	0	0	0	0	0	0	0	0	0	20	3	0	23	0	0	0	0	0	0	0	0	0	0	0	0	0	0	0	0	0	0	0	0	0	0	0	0	0	0	0	0	0	0	0	0	0	0	0	0	0	0	0	0	0	0	0	0	0	0	0	0	0	0	0	0	0	0	0	0	0	0	0	20	3	0	23	0	0	0	0	0	0	0	0	0	0	0	0	0	0	0	0	0	0	0	0	0	0	0	0	0	0	0	0	0	0	0	0	0	0	0	0	0	0	0	0	0	0	0	0	0	0	0	0	0	0	0	0	0	0	0	0	0	0	0	0	0	0	0	0	0	0	0	0	0	0	0	0	0	0	0	0	0	0	0	0	0	0	0	0	0	0		"JAMES STILLWELL, OPERATOR"	9857328594	3/12/2004	3/19/2004		
2003	20030730	LAS VEGAS NATURAL GAS SYSTEM	11248	905 12TH STREET	LAS VEGAS	SAN MIGUEL	NM	87701						 NM	0	0	0	27	83	0	0	0	0	0	110	0	0	0	2812	2010	0	0	0	0	0	4822	0	12	8	5	2	0	27	0	0	0	0	0	0	0	0	0	0	0	0	0	0	0	0	0	0	0	0	0	0	5	1	0	0	0	6	0	67	10	0	0	0	77	0	0	0	0	0	0	0	0	0	0	0	0	0	0	0	0	0	0	0	0	0	0	84	19	5	2	0	110	25	0	2712	98	2	0	0	2812	0	0	0	0	0	0	0	0	0	0	0	0	0	0	0	0	0	0	0	0	0	0	0	0	0	0	0	0	0	0	0	0	0	0	0	0	1994	16	0	0	0	2010	0	0	0	0	0	0	0	0	0	0	0	0	0	0	0	4706	114	2	0	0	4822	1	2	1	0	0	0	0	0	1	0	0	1	6	0	11.8		ANGELA SENA	5054540265	3/12/2004	3/19/2004		
2003	20030731	"WATERPROOF, TOWN OF"	22224	311 MAIN STREET	WATERPROOF	TENSAS	LA	71375						 LA	0	0	0	0	17	0	0	0	0	0	17	0	0	0	3	431	0	0	0	0	0	434	0	0	3	0	0	0	3	0	0	0	0	0	0	0	0	0	0	0	0	0	0	0	0	0	0	0	0	0	0	0	0	0	0	0	0	0	17	0	0	0	0	17	0	0	0	0	0	0	0	0	0	0	0	0	0	0	0	0	0	0	0	0	0	0	17	3	0	0	0	20	50	0	0	3	0	0	0	3	0	0	0	0	0	0	0	0	0	0	0	0	0	0	0	0	0	0	0	0	0	0	0	0	0	0	0	0	0	431	0	0	0	0	431	0	0	0	0	0	0	0	0	0	0	0	0	0	0	0	0	0	0	0	0	0	0	431	3	0	0	0	434	0	0	0	0	0	0	0	0	0	1	0	0	1	0	1		CONNIE MCKEEL	3187495233	3/12/2004	3/19/2004		
2003	20030732	"WEST BEND, TOWN OF, GAS"	22371	301 SOUTH BROADWAY	WEST BEND	PALO ALTO	IA	50597						 IA	0	0	0	7	1	0	0	0	0	0	8	0	0	0	328	124	0	0	0	0	0	452	0	6	1	0	0	0	7	0	0	0	0	0	0	0	0	0	0	0	0	0	0	0	0	0	0	0	0	0	0	1	0	0	0	0	1	0	0	0	0	0	0	0	0	0	0	0	0	0	0	0	0	0	0	0	0	0	0	0	0	0	0	0	0	0	7	1	0	0	0	8	80	0	291	35	1	0	0	327	0	0	0	0	0	0	0	0	0	0	0	0	0	0	0	0	0	0	0	0	0	0	0	0	0	0	0	0	0	122	3	0	0	0	125	0	0	0	0	0	0	0	0	0	0	0	0	0	0	0	0	0	0	0	0	0	0	413	38	1	0	0	452	0	0	0	0	0	0	0	0	0	0	0	0	0	0	0		TOM HARTMAN	5158875585	3/12/2004	3/19/2004		
2003	20030733	FIVE VALLEY GAS CO	31457	2500 W. BROADWAY	MISSOULA	MISSOULA	MT	59808						 MT	0	0	0	0	4	0	0	0	0	0	4	0	0	0	0	112	0	0	0	0	0	112	0	0	0	0	0	0	0	0	0	0	0	0	0	0	0	0	0	0	0	0	0	0	0	0	0	0	0	0	0	0	0	0	0	0	0	0	0	4	0	0	0	4	0	0	0	0	0	0	0	0	0	0	0	0	0	0	0	0	0	0	0	0	0	0	0	4	0	0	0	4	90	0	0	0	0	0	0	0	0	0	0	0	0	0	0	0	0	0	0	0	0	0	0	0	0	0	0	0	0	0	0	0	0	0	0	0	0	111	1	0	0	0	112	0	0	0	0	0	0	0	0	0	0	0	0	0	0	0	0	0	0	0	0	0	0	111	1	0	0	0	112	0	0	0	0	0	0	0	0	0	0	0	0	0	0	1		JERRY KLAUDT	4065416800	3/12/2004	3/19/2004		
2003	20030734	"NORWICH DEPT OF PUBLIC UTILITIES, CITY OF"	13860	16 SOUTH GOLDEN STREET	NORWICH	NEW LONDON	CT	6360						 CT	16	8	0	41	33	24	0	0	0	0	122	930	1376	0	623	3182	0	0	0	0	0	6111	0	3	26	33	2	0	64	0	0	0	0	0	0	0	0	0	0	0	0	0	0	0	0	6	17	1	1	25	0	0	0	0	0	0	0	0	11	10	12	0	0	33	0	0	0	0	0	0	0	0	0	0	0	0	0	0	0	0	0	0	0	0	0	0	14	42	62	3	1	122	38	0	71	2840	12	6	0	2929	0	0	0	0	0	0	0	0	0	0	0	0	0	0	0	0	0	0	0	0	0	0	0	0	0	0	0	0	0	1096	2025	53	8	0	3182	0	0	0	0	0	0	0	0	0	0	0	0	0	0	0	0	0	0	0	0	0	0	1167	4865	65	14	0	6111	18	32	0	0	0	0	0	1	7	1	0	0	50	0	0.49		CHRISTOPHER LAROSE	8608234173	3/12/2004	3/19/2004		
2003	20030735	"SUNBURST, TOWN OF"	18711	PO BOX 245 104 1ST. ST. N	SUNBURST	TOOLE	MT	59482						 MT	0	0	0	0	8	0	0	0	0	0	8	1	0	0	0	187	0	0	0	0	0	188	0	0	0	0	0	0	0	0	0	0	0	0	0	0	0	0	0	0	0	0	0	0	0	0	0	0	0	0	0	0	8	0	0	0	8	0	0	0	0	0	0	0	0	0	0	0	0	0	0	0	0	0	0	0	0	0	0	0	0	0	0	0	0	0	0	8	0	0	0	8	75	0	1	0	0	0	0	1	0	0	0	0	0	0	0	0	0	0	0	0	0	0	0	0	0	0	0	0	0	0	0	0	0	0	0	0	0	187	0	0	0	0	187	0	0	0	0	0	0	0	0	0	0	0	0	0	0	0	0	0	0	0	0	0	0	188	0	0	0	0	188	1	0	0	0	0	0	0	0	0	0	0	0	1	0	16		RITA CHRISTOFERSON	4069372141	3/12/2004	3/19/2004		
2003	20030736	CUT BANK GAS CO	2924	403 EAST MAIN STREET	CUT BANK	GLACIER	MT	59427						 MT	9	0	1	6	16	0	0	0	0	0	32	612	68	0	40	902	0	0	0	0	0	1622	0	6	9	1	0	0	16	0	0	0	0	0	0	0	0	0	0	0	0	0	0	0	0	0	0	0	0	0	0	0	0	0	0	0	0	0	15	1	0	0	0	16	0	0	0	0	0	0	0	0	0	0	0	0	0	0	0	0	0	0	0	0	0	0	21	10	1	0	0	32	75	0	712	8	0	0	0	720	0	0	0	0	0	0	0	0	0	0	0	0	0	0	0	0	0	0	0	0	0	0	0	0	0	0	0	0	0	887	15	0	0	0	902	0	0	0	0	0	0	0	0	0	0	0	0	0	0	0	0	0	0	0	0	0	0	1599	23	0	0	0	1622	18	15	3	0	0	10	0	0	0	0	1	54	0	0	1.2		JOHN MORE	4068735531	3/12/2004	3/19/2004		
2003	20030738	SACO MUNICIPAL GAS SERVICE	18024	110 NELSON STREET	SACO 	PHILLIPS	MI	59261						 MI	0	0	0	3	1	0	0	0	0	0	4	0	0	0	93	67	0	0	0	0	0	160	0	3	0	0	0	0	3	0	0	0	0	0	0	0	0	0	0	0	0	0	0	0	0	0	0	0	0	0	0	0	0	0	0	0	0	0	1	0	0	0	0	1	0	0	0	0	0	0	0	0	0	0	0	0	0	0	0	0	0	0	0	0	0	0	4	0	0	0	0	4	90	0	93	0	0	0	0	93	0	0	0	0	0	0	0	0	0	0	0	0	0	0	0	0	0	0	0	0	0	0	0	0	0	0	0	0	0	67	0	0	0	0	67	0	0	0	0	0	0	0	0	0	0	0	0	0	0	0	0	0	0	0	0	0	0	160	0	0	0	0	160	0	0	0	0	0	0	0	0	0	0	0	0	6	0	1	REPAIRED FIVE OF THE ELVEN LEAKS; WILL FINISH REPAIRING SIX SMALLER LEAKS AS WEATHER PERMITS.	DALLAS WATERS	4065273312	3/12/2004	3/22/2004		
2003	20030739	ENERGY WEST - MONTANA  #1	31191	#1 1 AVE S. PO BOX 2229	CASCADE	CASCADE	MT	59403						 MT	0	0	0	0	9	0	0	0	0	0	9	0	0	0	0	476	0	0	0	0	0	476	0	0	0	0	0	0	0	0	0	0	0	0	0	0	0	0	0	0	0	0	0	0	0	0	0	0	0	0	0	0	0	0	0	0	0	0	8	1	0	0	0	9	0	0	0	0	0	0	0	0	0	0	0	0	0	0	0	0	0	0	0	0	0	0	8	1	0	0	0	9	0	0	0	0	0	0	0	0	0	0	0	0	0	0	0	0	0	0	0	0	0	0	0	0	0	0	0	0	0	0	0	0	0	0	0	0	0	476	0	0	0	0	476	0	0	0	0	0	0	0	0	0	0	0	0	0	0	0	0	0	0	0	0	0	0	476	0	0	0	0	476	0	0	0	0	0	0	0	0	0	0	0	0	0	0	2.9		KURT BALTRUSCH	4067917537	3/10/2004	3/22/2004		
2003	20030740	ENERGY WEST - MONTANA  #1	31191	#1 1 AVE. S. PO BOX 2229	GREAT FALLS	CASCADE	MT	59403						 MT	3	0	1	244	169	0	0	0	0	0	417	8	0	0	14519	9746	0	0	0	0	0	24273	0	100	75	51	19	1	246	0	0	0	0	0	0	0	0	0	0	0	0	0	0	0	0	0	0	0	0	0	0	0	0	0	0	0	0	0	112	55	4	0	0	171	0	0	0	0	0	0	0	0	0	0	0	0	0	0	0	0	0	0	0	0	0	0	212	130	55	19	1	417	0	0	13886	603	38	0	0	14527	0	0	0	0	0	0	0	0	0	0	0	0	0	0	0	0	0	0	0	0	0	0	0	0	0	0	0	0	0	9561	180	5	0	0	9746	0	0	0	0	0	0	0	0	0	0	0	0	0	0	0	0	0	0	0	0	0	0	23447	783	43	0	0	24273	37	10	0	0	1	1	6	5	3	14	0	0	0	0	0.93		KURT BALTRUSH	4067917537	3/10/2004	3/22/2004		
2003	20030741	BANGOR GAS CO LLC	31481	21 MAIN STREET	BANGOR	PENOBSCOT	ME	4401						 ME	0	0	0	0	63	0	0	0	0	0	63	0	0	0	0	267	0	0	0	0	0	267	0	0	0	0	0	0	0	0	0	0	0	0	0	0	0	0	0	0	0	0	0	0	0	0	0	0	0	0	0	0	0	0	0	0	0	0	29	12	22	0	0	63	0	0	0	0	0	0	0	0	0	0	0	0	0	0	0	0	0	0	0	0	0	0	29	12	22	0	0	63	131	0	0	0	0	0	0	0	0	0	0	0	0	0	0	0	0	0	0	0	0	0	0	0	0	0	0	0	0	0	0	0	0	0	0	0	0	234	29	3	1	0	267	0	0	0	0	0	0	0	0	0	0	0	0	0	0	0	0	0	0	0	0	0	0	234	29	3	1	0	267	0	0	0	0	0	1	0	0	0	1	0	46	2	0	0	"PART E-PERCENT OF UNACCOUNTED FOR GAS  CALCULATION WAS BASED UPON ""PURCHASED GAS"" BEING THE TOTAL GAS RECEIPTS TO THE BANGOR GAS SYSTEM."	RAE ANN RICE	2079419595	3/12/2004	3/22/2004		
2003	20030742	DOMINION PEOPLES	15350	1201 PITT STREET	PITTSBURGH	ALLEGHENY	PA	15221	625 LIBERTY AVENUE	PITTSBURGH	ALLEGHENY	PA	15222	 PA	2012	476	51	1838	1985	70	0	1	7	0	6440	68101	7182	0	87323	167193	0	0	4618	0	0	334417	0	570	1935	1428	355	89	4377	0	0	0	0	0	0	0	0	1	0	0	0	0	1	0	2	37	24	3	4	70	0	0	0	0	0	0	0	0	639	1013	318	15	0	1985	0	0	0	0	0	0	0	0	2	4	1	0	0	7	0	0	0	0	0	0	0	0	1214	2989	1771	373	93	6440	50	6856	21770	133101	779	100	0	162606	0	0	0	0	0	0	0	14	4191	410	3	0	0	4618	0	0	0	0	0	0	0	0	0	0	0	0	0	0	3930	142295	20243	657	68	0	167193	0	0	0	0	0	0	0	0	0	0	0	0	0	0	0	0	0	0	0	0	0	10800	168256	153754	1439	168	0	334417	1674	3190	28	67	111	107	16	60	43	234	80	706	1598	0	3.83		PATRICIA A. COLAIZZI	4122442518	3/12/2004	3/22/2004		
2003	20030743	DOMINION HOPE	7348	PO BOX 2868	CLARKSBURG	HARRISON	WV	26302						 WV	1422	0	7	319	1120	0	0	0	0	0	2868	27196	0	0	16103	66891	0	0	0	0	0	110190	0	504	701	433	92	18	1748	0	0	0	0	0	0	0	0	0	0	0	0	0	0	0	0	0	0	0	0	0	0	0	0	0	0	0	0	0	644	388	81	7	0	1120	0	0	0	0	0	0	0	0	0	0	0	0	0	0	0	0	0	0	0	0	0	0	1148	1089	514	99	18	2868	15	21396	0	20298	1604	1	0	43299	0	0	0	0	0	0	0	0	0	0	0	0	0	0	0	0	0	0	0	0	0	0	0	0	0	0	0	0	0	46158	20572	160	1	0	66891	0	0	0	0	0	0	0	0	0	0	0	0	0	0	0	0	0	0	0	0	0	21396	46158	40870	1764	2	0	110190	1423	735	40	27	61	56	22	123	56	176	87	174	1316	0	3.44		JOHN D. POPOVICH	7248424870	3/12/2004	3/22/2004		
2003	20030744	DOMINION EAST OHIO	4060	1201 E 55TH ST BOX 5759	CLEVELAND	CUYAHOGA	OH	44101						 OH	3598	2254	9	7989	4586	40	0	1	581	0	19058	710085	29446	0	105949	470062	0	0	25620	0	0	1341162	0	1610	8067	3501	409	263	13850	0	0	0	0	0	0	0	0	1	0	0	0	0	1	0	0	26	6	5	3	40	0	0	0	0	0	0	0	0	1420	2963	200	3	0	4586	0	0	0	0	0	0	0	0	364	183	32	2	0	581	0	0	0	0	0	0	0	0	3395	11239	3739	419	266	19058	52	0	764462	69740	10327	939	12	845480	0	0	0	0	0	0	0	0	8388	16977	234	21	0	25620	0	0	0	0	0	0	0	0	0	0	0	0	0	0	0	452106	8461	9388	85	22	470062	0	0	0	0	0	0	0	0	0	0	0	0	0	0	0	0	0	0	0	0	0	0	1224956	95178	19949	1045	34	1341162	2449	9215	73	299	247	936	17	99	60	505	489	2995	3469	0	0.67		BRAIN D. WITTE	2167366845	3/12/2004	3/22/2004		
2003	20030745	ALABAMA GAS CORP (EX. MARENGO CORP PROPERTY)	180	605 RICHARD ARRINGTON JR 	BIRMINGHAM	JEFFERSON	AL	35203						 AL	23	141	493	4771	3156	1156	0	0	0	0	9740	49399	3399	86982	153847	225390	60	0	1320	0	0	520397	0	3186	1492	666	76	8	5428	0	0	0	0	0	0	0	0	0	0	0	0	0	0	0	259	508	334	31	24	1156	0	0	0	0	0	0	0	0	2207	826	123	0	0	3156	0	0	0	0	0	0	0	0	0	0	0	0	0	0	0	0	0	0	0	0	0	0	5652	2826	1123	107	32	9740	123	141005	137735	12747	1693	363	84	293627	0	0	0	0	0	0	0	0	1320	0	0	0	0	1320	0	0	0	50	10	0	60	0	0	0	0	0	0	0	0	200633	23268	1418	71	0	225390	0	0	0	0	0	0	0	0	0	0	0	0	0	0	0	0	0	0	0	0	0	141005	339688	36015	3161	444	84	520397	519	665	34	48	436	1592	12	21	0	13	1183	1477	372	0	1.56	1) OUR AUTOMATED ACCOUNTING SYSTEM DOES NOT IDENTIFY DUCTILE IRON MAINS; TOTAL INCLUDED IN CAST IRON MAINS.    2) INCLUDES 519 ABOVE GROUND LEAKS REPORTED BY THIRD PARTY SURVEY.    3) INCLUDES 38 ABOVE GROUND LEAKS REPORTED BY THIRD PARTY SURVEY.  	"DANIEL L. BRYANT, MAINTENANCE SERVICES SPECIALIST"	2053268473	3/15/2004	3/22/2004		
2003	20030746	"FORT MORGAN GAS DEPT, CITY OF"	5440	BOX 100 710 E RAILROAD 	FORT MORGAN	MORGAN	CO	80701						 CO	0	0	0	56	36	1	0	0	0	0	93	0	0	0	3596	735	0	0	0	0	0	4331	0	37	16	3	0	0	56	0	0	0	0	0	0	0	0	0	0	0	0	0	0	0	0	0	0	1	0	1	0	0	0	0	0	0	0	0	25	10	1	0	0	36	0	0	0	0	0	0	0	0	0	0	0	0	0	0	0	0	0	0	0	0	0	0	62	26	4	1	0	93	85	0	3526	67	3	0	0	3596	0	0	0	0	0	0	0	0	0	0	0	0	0	0	0	0	0	0	0	0	0	0	0	0	0	0	0	0	0	726	9	0	0	0	735	0	0	0	0	0	0	0	0	0	0	0	0	0	0	0	0	0	0	0	0	0	0	4252	76	3	0	0	4331	0	0	0	0	1	2	0	0	1	0	1	2	0	0	2.57		ROBERT L. WEIMER	9708674350	3/9/2004	3/22/2004		
2003	20030747	"PONTOTOC, CITY OF"	15755	116 N. MAIN ST.	PONTOTOC	PONTOTOC	MS	38863						 MS	0	0	107	396	0	0	0	0	0	0	503	0	0	1288	197	0	0	0	0	0	0	1485	0	50	54	3	0	0	107	0	0	0	0	0	0	0	0	0	0	0	0	0	0	0	0	0	0	0	0	0	0	0	0	0	0	0	0	0	345	51	0	0	0	396	0	0	0	0	0	0	0	0	0	0	0	0	0	0	0	0	0	0	0	0	0	0	395	105	3	0	0	503	150	0	1266	22	0	0	0	1288	0	0	0	0	0	0	0	0	0	0	0	0	0	0	0	0	0	0	0	0	0	0	0	0	0	0	0	0	0	186	11	0	0	0	197	0	0	0	0	0	0	0	0	0	0	0	0	0	0	0	0	0	0	0	0	0	0	1452	33	0	0	0	1485	0	0	0	0	0	0	0	0	0	0	10	42	0	0	0	"*PERCENT IS INCLUDED IN PIPE LEAKS, PACKING NEW SERVICE LINES.  TWO BREAKS, WHICH RESULTS IN HIGH VOLUME LOSSES, LAST FOR APPROXIMATELY ONE YEAR.    LOCATION NO. 1 FOUND 5-29-2003 3/16 INCH 40 LB LOSS 17,298 MCF   LOCATION NO. 2 FOUND 11-27-03 CALCULATE TO 6-30-2003 1/2 INCH 40 LB LOSS 65,340 MCF."	KING ENGINEERING	9013231000	3/15/2004	3/22/2004		
2003	20030748	"HORIZON GAS, INC."	30706	13325-A TAMIAMI TR	NORTH PORT	SAMSOTA	FL	34287						 FL	0	0	0	26	1	0	0	0	0	0	27	0	0	0	0	0	0	0	0	0	0	0	0	25	1	0	0	0	26	0	0	0	0	0	0	0	0	0	0	0	0	0	0	0	0	0	0	0	0	0	0	0	0	0	0	0	0	0	1	0	0	0	0	1	0	0	0	0	0	0	0	0	0	0	0	0	0	0	0	0	0	0	0	0	0	0	26	1	0	0	0	27	14	0	1394	0	0	0	0	1394	0	0	0	0	0	0	0	0	0	0	0	0	0	0	0	0	0	0	0	0	0	0	0	0	0	0	0	0	0	0	0	0	0	0	0	0	0	0	0	0	0	0	0	0	0	0	0	0	0	0	0	0	0	0	0	0	0	1394	0	0	0	0	1394	0	0	0	5	0	0	0	0	0	0	0	7	0	0	2.09	OTHER- REQUESTED BY CUSTOMER	CINDY SULLIVAN/DISTRICT MANAGER	9414238303	3/15/2004	3/31/2004		
2003	20030749	OXFORD NATURAL GAS CO	14430	5181 COLLEGE CORNER PIKE	OXFORD	BUTLER	OH	45056						 OH	0	0	0	49	25	0	0	0	0	0	74	0	0	20	1905	1912	0	0	33	0	0	3870	0	30	10	9	0	0	49	0	0	0	0	0	0	0	0	0	0	0	0	0	0	0	0	0	0	0	0	0	0	0	0	0	0	0	0	0	19	5	1	0	0	25	0	0	0	0	0	0	0	0	0	0	0	0	0	0	0	0	0	0	0	0	0	0	49	15	10	0	0	74	76	0	1918	7	0	0	0	1925	0	0	0	0	0	0	0	0	33	0	0	0	0	33	0	0	0	0	0	0	0	0	0	0	0	0	0	0	0	1876	36	0	0	0	1912	0	0	0	0	0	0	0	0	0	0	0	0	0	0	0	0	0	0	0	0	0	0	3827	43	0	0	0	3870	1	3	0	0	0	2	0	0	2	4	0	0	0	0	0.15		JOHN T. STENGER	5135232555	3/15/2004	3/22/2004		
2003	20030750	VERONA NATURAL GAS COMPANY	30633	5181 COLLEGE CORNER PIKE 	OXFORD	BUTLER	OH	45056						 OH	3	0	0	0	3	0	0	0	0	0	6	124	4	0	0	111	0	0	1	0	0	240	0	3	0	0	0	0	3	0	0	0	0	0	0	0	0	0	0	0	0	0	0	0	0	0	0	0	0	0	0	0	0	0	0	0	0	0	2	1	0	0	0	3	0	0	0	0	0	0	0	0	0	0	0	0	0	0	0	0	0	0	0	0	0	0	5	1	0	0	0	6	70	0	128	0	0	0	0	128	0	0	0	0	0	0	0	0	1	0	0	0	0	1	0	0	0	0	0	0	0	0	0	0	0	0	0	0	0	108	3	0	0	0	111	0	0	0	0	0	0	0	0	0	0	0	0	0	0	0	0	0	0	0	0	0	0	237	3	0	0	0	240	1	1	0	0	0	1	0	0	0	0	0	0	0	0	6.7		JOHN T. STENGER	5135232555	3/19/2004	3/22/2004		
2003	20030751	BLUEFIELD GAS CO	1560	4699 EAST CUMBERLAND ROAD	BLUEFIELD	MERCER	WV	24701	RGC RESOURCES 519 KIMBALL	ROANOKE		VA	24016	 WV	22	3	0	24	40	16	0	0	0	0	105	1296	1138	0	669	2483	0	0	0	0	0	5586	0	4	13	28	4	0	49	0	0	0	0	0	0	0	0	0	0	0	0	0	0	0	0	12	3	1	0	16	0	0	0	0	0	0	0	0	21	12	7	0	0	40	0	0	0	0	0	0	0	0	0	0	0	0	0	0	0	0	0	0	0	0	0	0	25	37	38	5	0	105	47	1925	450	715	13	0	0	3103	0	0	0	0	0	0	0	0	0	0	0	0	0	0	0	0	0	0	0	0	0	0	0	0	0	0	0	0	0	1389	1064	30	0	0	2483	0	0	0	0	0	0	0	0	0	0	0	0	0	0	0	0	0	0	0	0	0	1925	1839	1779	43	0	0	5586	10	12	0	2	2	8	0	1	0	0	3	12	138	0	5.4		PETE ORR	5407773874	3/15/2004	3/22/2004		
2003	20030752	"JACKSONVILLE WATER WORK, GAS & SEWER BOARD"	9070	330 CHURCH AVENUE SE	JACKSONVILLE	CALHOUN	AL	36265						 AL	0	0	0	14	16	28	0	0	0	0	58	0	0	0	145	934	0	0	0	0	1402	2481	0	0	5	9	0	0	14	0	0	0	0	0	0	0	0	0	0	0	0	0	0	0	14	13	1	0	0	28	0	0	0	0	0	0	0	0	16	0	0	0	0	16	0	0	0	0	0	0	0	0	0	0	0	0	0	0	0	0	0	0	0	0	0	0	30	18	10	0	0	58	75	0	145	0	0	0	0	145	0	0	0	0	0	0	0	0	0	0	0	0	0	0	0	0	0	0	0	0	0	0	0	0	0	0	0	0	0	914	20	0	0	0	934	0	0	0	0	0	0	0	0	0	0	0	0	0	0	0	1402	0	0	0	0	1402	0	2461	20	0	0	0	2481	0	5	0	0	2	1	5	1	8	4	0	0	5	0	0		JOEL A. BONDS	2567822869	3/15/2004	3/22/2004		
2003	20030753	COMMONWEALTH PUBLIC SERVICE CORP	2672	4699 EAST CUMBERLAND ROAD	BLUEFIELD	MERCER	WV	24701	RGC RESOURCES 519 KIMBALL	ROANOKE		VA	24016	 VA	3	1	0	7	30	0	0	0	0	0	41	2	0	0	387	997	0	0	0	0	0	1386	0	3	6	2	0	0	11	0	0	0	0	0	0	0	0	0	0	0	0	0	0	0	0	0	0	0	0	0	0	0	0	0	0	0	0	0	22	6	2	0	0	30	0	0	0	0	0	0	0	0	0	0	0	0	0	0	0	0	0	0	0	0	0	0	25	12	4	0	0	41	58	0	322	67	0	0	0	389	0	0	0	0	0	0	0	0	0	0	0	0	0	0	0	0	0	0	0	0	0	0	0	0	0	0	0	0	0	890	105	2	0	0	997	0	0	0	0	0	0	0	0	0	0	0	0	0	0	0	0	0	0	0	0	0	0	1212	172	2	0	0	1386	9	13	0	0	0	1	0	0	0	0	2	47	14	0	5.4		PETE ORR	5407773874	3/15/2004	3/22/2004		
2003	20030754	"RICHMOND DEPT OF PUBLIC UTILITIES, CITY OF"	17360	400 JEFFERSON DAVIS HWY	RICHMOND		VA	23224						 VA	0	9	0	491	650	468	148	0	0	0	1766	658	6226	0	5089	72624	229	2	6460	0	0	91288	0	339	2	94	53	12	500	0	0	48	80	20	0	148	0	0	0	0	0	0	0	0	0	198	210	56	4	468	0	0	0	0	0	0	0	0	398	198	54	0	0	650	0	0	0	0	0	0	0	0	0	0	0	0	0	0	0	0	0	0	0	0	0	0	737	446	438	129	16	1766	100	0	9060	2839	69	7	1	11976	0	0	0	0	2	0	2	0	1584	4862	14	0	0	6460	0	0	0	207	18	1	226	0	0	0	0	0	0	0	0	26350	46200	71	3	0	72624	0	0	0	0	0	0	0	0	0	0	0	0	0	0	0	0	0	0	0	0	0	0	36994	53901	361	30	2	91288	184	406	79	8	48	226	20	87	33	86	626	129	1233	0	3.7		"ROBERT M. HOWARD, ACTING ADMINISTRATOR"	8046468301	3/15/2004	3/22/2004		
2003	20030755	CITY OF SUSANVILLE	31599	66 NORTH LASSEN ST	SUSANVILLE	LASSEN	CA	96130	720 SOUTH STREET	SUSANVILLE	LASSEN	CA	96130	CA	0	0	0	10	46	0	0	0	0	0	56	0	0	0	0	2193	0	0	0	0	0	2193	0	0	0	10	0	0	10	0	0	0	0	0	0	0	0	0	0	0	0	0	0	0	0	0	0	0	0	0	0	0	0	0	0	0	0	0	33	7	6	0	0	46	0	0	0	0	0	0	0	0	0	0	0	0	0	0	0	0	0	0	0	0	0	0	33	7	16	0	0	56	67	0	0	0	0	0	0	0	0	0	0	0	0	0	0	0	0	0	0	0	0	0	0	0	0	0	0	0	0	0	0	0	0	0	0	0	0	2190	3	0	0	0	2193	0	0	0	0	0	0	0	0	0	0	0	0	0	0	0	0	0	0	0	0	0	0	2190	3	0	0	0	2193	0	0	0	0	0	5	0	0	1	26	0	13	0	0	0		"CRAIG C PLATT, PUBLIC WORKS DIRECTOR"	5302571041	3/15/2004	3/31/2004		
2003	20030756	COLUMBIA UTILITIES COMMISSION	2624	116 CAMPBELLSVILLE STREET	COLUMBIA	ADAIR	KY	42728						 KY	0	0	3	16	19	0	0	0	0	0	38	0	0	688	330	380	0	0	0	0	0	1398	0	14	5	0	0	0	19	0	0	0	0	0	0	0	0	0	0	0	0	0	0	0	0	0	0	0	0	0	0	0	0	0	0	0	0	0	19	0	0	0	0	19	0	0	0	0	0	0	0	0	0	0	0	0	0	0	0	0	0	0	0	0	0	0	33	5	0	0	0	38	75	0	1001	17	0	0	0	1018	0	0	0	0	0	0	0	0	0	0	0	0	0	0	0	0	0	0	0	0	0	0	374	6	0	0	0	380	0	0	0	0	0	0	0	0	0	0	0	0	0	0	0	0	0	0	0	0	0	0	0	0	0	0	0	0	0	1375	23	0	0	0	1398	0	4	0	0	1	2	0	0	0	0	0	0	1	0	0		JOSEPH L. HARE	2703842006	3/15/2004	3/22/2004		
2003	20030757	LOWER VALLEY POWER & LIGHT INC.	31044	PO BOX 572 4000 S HWY 89	JACKSON	TETON	WY	83001	BOX 188 236 N WASHINGTON	AFTON	LINCOLN	WY	83110	 WY	0	0	0	5	83	0	0	0	0	0	88	0	0	0	0	3385	0	0	0	0	0	3385	0	0	0	5	0	0	5	0	0	0	0	0	0	0	0	0	0	0	0	0	0	0	0	0	0	0	0	0	0	0	0	0	0	0	0	0	62	21	0	0	0	83	0	0	0	0	0	0	0	0	0	0	0	0	0	0	0	0	0	0	0	0	0	0	62	21	5	0	0	88	75	0	0	0	0	0	0	0	0	0	0	0	0	0	0	0	0	0	0	0	0	0	0	0	0	0	0	0	0	0	0	0	0	0	0	0	0	3357	26	2	0	0	3385	0	0	0	0	0	0	0	0	0	0	0	0	0	0	0	0	0	0	0	0	0	0	3357	26	2	0	0	3385	0	0	0	0	3	11	0	0	0	0	0	1	0	0	0.07		MARTELL BROWER	3078853175	3/15/2004	3/22/2004		
2003	20030758	CHESAPEAKE UTILITY CORP	2309	350 S. QUEEN STREET	DOVER	KENT	DE	19904	909 SILVER LAKE BOULEVARD	DOVER	KENT	DE	19904	 DE	22	0	0	106	312	0	0	0	0	0	440	647	0	0	5778	17625	0	0	120	0	0	24170	0	41	54	33	0	0	128	0	0	0	0	0	0	0	0	0	0	0	0	0	0	0	0	0	0	0	0	0	0	0	0	0	0	0	0	0	184	87	41	0	0	312	0	0	0	0	0	0	0	0	0	0	0	0	0	0	0	0	0	0	0	0	0	0	225	141	74	0	0	440	80	0	5727	678	20	0	0	6425	0	0	0	0	0	0	0	0	120	0	0	0	0	120	0	0	0	0	0	0	0	0	0	0	0	0	0	0	0	17100	516	6	3	0	17625	0	0	0	0	0	0	0	0	0	0	0	0	0	0	0	0	0	0	0	0	0	0	22947	1194	26	3	0	24170	53	18	0	0	13	114	2	8	3	0	7	12	1	0	1.21		W.D. GOODRICH	3027346797	3/15/2004	3/22/2004		
2003	20030759	CHESAPEAKE UTILITY CORP	2309	32145 BEAVER RUN DRIVE	SALISBURY	WICOMICO	MD	21804	909 SILVER LAKE BOULEVARD	DOVER	KENT	DE	19904	 MD	49	0	0	57	95	3	0	0	0	0	204	1447	0	0	1631	5211	0	0	25	0	0	8314	0	46	55	5	0	0	106	0	0	0	0	0	0	0	0	0	0	0	0	0	0	0	0	2	1	0	0	3	0	0	0	0	0	0	0	0	49	27	19	0	0	95	0	0	0	0	0	0	0	0	0	0	0	0	0	0	0	0	0	0	0	0	0	0	95	84	25	0	0	204	103	0	1995	1069	14	0	0	3078	0	0	0	0	0	0	0	0	25	0	0	0	0	25	0	0	0	0	0	0	0	0	0	0	0	0	0	0	0	4110	1086	15	0	0	5211	0	0	0	0	0	0	0	0	0	0	0	0	0	0	0	0	0	0	0	0	0	0	6130	2155	29	0	0	8314	16	6	2	0	2	20	0	0	0	0	0	0	0	0	4.5	CITIZENS GAS DIVISION	MIKE CANTWELL	4105485515	3/15/2004	3/22/2004		
2003	20030760	CHESAPEAKE UTILITY CORP	2309	32145 BEAVER RUN DRIVE	SALISBURY	WICOMICO	MD	21804	909 SILVER LAKE BOULEVARD	DOVER	KENT	DE	19904	 DE	4	0	0	11	19	4	0	0	0	0	38	447	0	0	335	1570	0	0	0	0	0	2352	0	5	7	3	0	0	15	0	0	0	0	0	0	0	0	0	0	0	0	0	0	0	0	3	1	0	0	4	0	0	0	0	0	0	0	0	11	7	1	0	0	19	0	0	0	0	0	0	0	0	0	0	0	0	0	0	0	0	0	0	0	0	0	0	16	17	5	0	0	38	74	0	95	684	3	0	0	782	0	0	0	0	0	0	0	0	0	0	0	0	0	0	0	0	0	0	0	0	0	0	0	0	0	0	0	0	0	1195	374	1	0	0	1570	0	0	0	0	0	0	0	0	0	0	0	0	0	0	0	0	0	0	0	0	0	0	1290	1058	4	0	0	2352	6	22	2	0	3	5	0	0	0	0	7	0	0	0	4.5	CAMBRIDGE GAS DIVISION	MIKE CANTWELL	4105485515	3/15/2004	3/22/2004		
2003	20030761	CHESAPEAKE UTILITY CORP	2309	32145 BEAVER RUN DRIVE	SALISBURY	WICOMICO	MD	21804	909 SILVER LAKE BOULEVARD	DOVER	KENT	DE	19904	 DE	18	0	0	20	28	0	0	0	0	0	66	464	0	0	630	1739	0	0	0	0	0	2833	0	20	18	0	0	0	38	0	0	0	0	0	0	0	0	0	0	0	0	0	0	0	0	0	0	0	0	0	0	0	0	0	0	0	0	0	12	14	2	0	0	28	0	0	0	0	0	0	0	0	0	0	0	0	0	0	0	0	0	0	0	0	0	0	32	32	2	0	0	66	123	0	952	137	4	1	0	1094	0	0	0	0	0	0	0	0	0	0	0	0	0	0	0	0	0	0	0	0	0	0	0	0	0	0	0	0	0	1620	115	4	0	0	1739	0	0	0	0	0	0	0	0	0	0	0	0	0	0	0	0	0	0	0	0	0	0	2572	252	8	1	0	2833	18	18	0	1	4	4	0	1	0	0	0	0	0	0	1.21	SUSSEX GAS  DIVISION 	MIKE CANTWELL	4105485515	3/15/2004	3/22/2004		
2003	20030762	CHESAPEAKE UTILITY CORP	2309	32145 BEAVER RUN DRIVE	SALISBURY	WICOMICO	MD	21804	909 SILVER LAKE BOULEVARD	DOVER	KENT	DE	19904	 MD	0	0	0	0	2	0	0	0	0	0	2	0	0	0	0	109	0	0	0	0	0	109	0	0	0	0	0	0	0	0	0	0	0	0	0	0	0	0	0	0	0	0	0	0	0	0	0	0	0	0	0	0	0	0	0	0	0	0	2	0	0	0	0	2	0	0	0	0	0	0	0	0	0	0	0	0	0	0	0	0	0	0	0	0	0	0	2	0	0	0	0	2	25	0	0	0	0	0	0	0	0	0	0	0	0	0	0	0	0	0	0	0	0	0	0	0	0	0	0	0	0	0	0	0	0	0	0	0	0	109	0	0	0	0	109	0	0	0	0	0	0	0	0	0	0	0	0	0	0	0	0	0	0	0	0	0	0	109	0	0	0	0	109	0	0	0	0	0	0	0	0	0	0	0	0	0	0	0	(BAY COUNTY MHP) PIPED PROPANE DISTRIBUTION SYSTEM	CHARLES A. RUSSELL	4105485515	3/15/2004	3/22/2004		
2003	20030763	CHESAPEAKE UTILITY CORP	2309	32145 BEAVER RUN DRIVE	SALISBURY 	WICOMICO	MD	21804	909 SILVER LAKE BOULEVARD	DOVER	KENT	DE	19904	 DE	0	0	0	0	2	0	0	0	0	0	2	0	0	0	0	277	0	0	0	0	0	277	0	0	0	0	0	0	0	0	0	0	0	0	0	0	0	0	0	0	0	0	0	0	0	0	0	0	0	0	0	0	0	0	0	0	0	0	2	0	0	0	0	2	0	0	0	0	0	0	0	0	0	0	0	0	0	0	0	0	0	0	0	0	0	0	2	0	0	0	0	2	70	0	0	0	0	0	0	0	0	0	0	0	0	0	0	0	0	0	0	0	0	0	0	0	0	0	0	0	0	0	0	0	0	0	0	0	0	277	0	0	0	0	277	0	0	0	0	0	0	0	0	0	0	0	0	0	0	0	0	0	0	0	0	0	0	277	0	0	0	0	277	0	0	0	0	0	0	0	0	0	0	0	0	0	0	0	(PLANTATIONS EAST) PIPED PROPANE DISTRIBUTION SYSTEM	CHARLES A. RUSSELL	4105485515	3/15/2004	3/22/2004		
2003	20030764	CHESAPEAKE UTILITY CORP	2309	32145 BEAVER RUN DRIVE	SALISBURY	WICOMICO	MD	21804	909 SILVER LAKE BOULEVARD	DOVER 	KENT	DE	19904	 DE	0	0	0	0	2	0	0	0	0	0	2	0	0	0	0	147	0	0	0	0	0	147	0	0	0	0	0	0	0	0	0	0	0	0	0	0	0	0	0	0	0	0	0	0	0	0	0	0	0	0	0	0	0	0	0	0	0	0	2	0	0	0	0	2	0	0	0	0	0	0	0	0	0	0	0	0	0	0	0	0	0	0	0	0	0	0	2	0	0	0	0	2	70	0	0	0	0	0	0	0	0	0	0	0	0	0	0	0	0	0	0	0	0	0	0	0	0	0	0	0	0	0	0	0	0	0	0	0	0	147	0	0	0	0	147	0	0	0	0	0	0	0	0	0	0	0	0	0	0	0	0	0	0	0	0	0	0	147	0	0	0	0	147	0	0	0	0	0	0	0	0	0	0	0	0	0	0	0	(THE VILLAGE OF COOL BRANCH) PIPED PROPANE DISTRIBUTION SYSTEM	CHARLES A. RUSSELL	4105485515	3/15/2004	3/22/2004		
2003	20030765	CHESAPEAKE UTILITY CORP	2309	32145 BEAVER RUN DRIVE	SALISBURY 	WICOMICO	MD	21804	909 SILVER LAKE BOULEVARD	DOVER	KENT	DE	19904	 DE	0	0	0	0	6	0	0	0	0	0	6	0	0	0	0	260	0	0	0	0	0	260	0	0	0	0	0	0	0	0	0	0	0	0	0	0	0	0	0	0	0	0	0	0	0	0	0	0	0	0	0	0	0	0	0	0	0	0	3	1	2	0	0	6	0	0	0	0	0	0	0	0	0	0	0	0	0	0	0	0	0	0	0	0	0	0	3	1	2	0	0	6	70	0	0	0	0	0	0	0	0	0	0	0	0	0	0	0	0	0	0	0	0	0	0	0	0	0	0	0	0	0	0	0	0	0	0	0	0	259	1	0	0	0	260	0	0	0	0	0	0	0	0	0	0	0	0	0	0	0	0	0	0	0	0	0	0	259	1	0	0	0	260	0	0	0	0	0	0	0	0	0	0	0	0	0	0	0	(THE VILLAGE AT BEAR TRAP DUNES) PIPED PROPANE DISTRIBUTION SYSTEM	CHARLES A. RUSSELL	4105485515	3/15/2004	3/22/2004		
2003	20030766	CHESAPEAKE UTILITY CORP	2309	32145 BEAVER RUN DRIVE	SALISBURY	WICOMICO	MD	21804	909 SILVER LAKE BOULEVARD	DOVER	KENT	DE	19904	 DE	0	0	0	0	1	0	0	0	0	0	1	0	0	0	0	117	0	0	0	0	0	117	0	0	0	0	0	0	0	0	0	0	0	0	0	0	0	0	0	0	0	0	0	0	0	0	0	0	0	0	0	0	0	0	0	0	0	0	1	0	0	0	0	1	0	0	0	0	0	0	0	0	0	0	0	0	0	0	0	0	0	0	0	0	0	0	1	0	0	0	0	1	25	0	0	0	0	0	0	0	0	0	0	0	0	0	0	0	0	0	0	0	0	0	0	0	0	0	0	0	0	0	0	0	0	0	0	0	0	117	0	0	0	0	117	0	0	0	0	0	0	0	0	0	0	0	0	0	0	0	0	0	0	0	0	0	0	117	0	0	0	0	117	0	0	0	0	0	1	0	0	0	0	0	0	0	0	0	(BAYVILLE SHORES) PIPED PROPANE DISTRIBUTION SYSTEM	CHARLES A. RUSSELL	4105485515	3/15/2004	3/22/2004		
2003	20030767	CENTRAL HUDSON GAS & ELECTRIC CORP	2196	284 SOUTH AVENUE	POUGHKEEPSIE	DUTCHESS	NY	12601						 NY	187	0	0	373	410	81	0	0	0	0	1051	0	13717	0	20156	25791	0	0	0	0	0	59664	0	194	192	166	8	0	560	0	0	0	0	0	0	0	0	0	0	0	0	0	0	0	0	45	31	4	1	81	0	0	0	0	0	0	0	0	208	139	62	1	0	410	0	0	0	0	0	0	0	0	0	0	0	0	0	0	0	0	0	0	0	0	0	0	402	376	259	13	1	1051	72	0	25250	8350	273	0	0	33873	0	0	0	0	0	0	0	0	0	0	0	0	0	0	0	0	0	0	0	0	0	0	0	0	0	0	0	0	0	20690	4965	127	9	0	25791	0	0	0	0	0	0	0	0	0	0	0	0	0	0	0	0	0	0	0	0	0	0	45940	13315	400	9	0	59664	57	81	29	24	20	95	3	2	2	10	35	36	30	0	1.57		"DAVID W. MERTE, P.E.-DIRECTOR OF GAS OPERATIONS"	8454865521	3/15/2004	3/22/2004		
2003	20030768	WEST LINCOLN NATURAL GAS DISTRICT	30565	1002 SAMS RD NW	BROOKHEAVEN		MS	39601						 MS	0	0	0	0	30	0	0	0	0	0	30	0	0	0	0	295	0	0	0	0	0	295	0	0	0	0	0	0	0	0	0	0	0	0	0	0	0	0	0	0	0	0	0	0	0	0	0	0	0	0	0	0	0	0	0	0	0	0	30	0	0	0	0	30	0	0	0	0	0	0	0	0	0	0	0	0	0	0	0	0	0	0	0	0	0	0	30	0	0	0	0	30	532	0	0	0	0	0	0	0	0	0	0	0	0	0	0	0	0	0	0	0	0	0	0	0	0	0	0	0	0	0	0	0	0	0	0	0	0	295	0	0	0	0	295	0	0	0	0	0	0	0	0	0	0	0	0	0	0	0	0	0	0	0	0	0	0	295	0	0	0	0	295	0	0	0	0	0	0	0	0	0	0	0	0	0	0	1.3	1) THERE WILL BE ABOUT 8 REPAIRS FOR #2 & #3 LEAKS.    2) METERS ARE SET TO BE EXAMINED IN DETAIL TO MAKE SURE OPERATING PROPERLY.	D. STEVEN SMITH	6018338355	3/15/2004	3/23/2004		
2003	20030769	ONEONTA GAS DEPT	14320	PO BOX 420	ONEONTA	BLOUNT	AL	35121	105 HIGH SCHOOL STREET	ONEONTA	BLOUNT	AL	35121	 AL	0	0	0	64	87	2	0	0	0	0	153	91	0	1	797	2399	0	0	0	0	0	3288	0	0	24	39	0	0	63	0	0	0	0	0	0	0	0	0	0	0	0	0	0	0	1	1	0	0	0	2	0	0	0	0	0	0	0	0	20	65	3	0	0	88	0	0	0	0	0	0	0	0	0	0	0	0	0	0	0	0	0	0	0	0	0	0	21	90	42	0	0	153	0	0	875	13	0	0	0	888	0	0	0	0	0	0	0	0	0	0	0	0	0	0	0	0	0	0	0	0	0	0	0	0	0	0	0	0	0	2326	61	12	0	0	2399	0	0	0	0	0	0	0	0	1	0	0	0	0	1	0	0	0	0	0	0	0	0	3202	74	12	0	0	3288	0	1	0	10	1	7	0	2	0	44	0	0	0	0	0		RODNEY W. MC CAIN	2052742159	3/15/2004	3/23/2004		
2003	20030770	CONSTITUTION GAS TRANSPORT CO	2710	11441 VETO ROAD	MARIETTA	WAHINGTON	OH	45750	1005 EAST 3900 SOUTH	SALT LAKE 	SALT LAKE	UT	84124	 OH	0	0	0	0	5	0	0	0	0	0	5	0	0	0	186	0	0	0	0	0	0	186	0	0	0	0	0	0	0	0	0	0	0	0	0	0	0	0	0	0	0	0	0	0	0	0	0	0	0	0	0	0	0	0	0	0	0	0	0	5	0	0	0	5	0	0	0	0	0	0	0	0	0	0	0	0	0	0	0	0	0	0	0	0	0	0	0	5	0	0	0	5	3	0	183	0	3	0	0	186	0	0	0	0	0	0	0	0	0	0	0	0	0	0	0	0	0	0	0	0	0	0	0	0	0	0	0	0	0	0	0	0	0	0	0	0	0	0	0	0	0	0	0	0	0	0	0	0	0	0	0	0	0	0	0	0	0	183	0	3	0	0	186	0	0	0	0	0	0	0	0	0	0	0	0	0	0	0		WARREN BLAKEMORE	8012819999	3/15/2004	3/23/2004		
2003	20030771	ROANOKE GAS CO	17540	519 KIMBALL AVENUE AVENUE	ROANOKE		VA	24016						 VA	67	0	0	309	489	45	0	0	0	0	910	4607	0	0	9110	39128	0	0	0	0	0	52845	0	161	131	78	6	0	376	0	0	0	0	0	0	0	0	0	0	0	0	0	0	0	0	36	7	2	0	45	0	0	0	0	0	0	0	0	428	51	10	0	0	489	0	0	0	0	0	0	0	0	0	0	0	0	0	0	0	0	0	0	0	0	0	0	589	218	95	8	0	910	105	0	7990	5691	33	3	0	13717	0	0	0	0	0	0	0	0	0	0	0	0	0	0	0	0	0	0	0	0	0	0	0	0	0	0	0	0	0	37858	1228	40	2	0	39128	0	0	0	0	0	0	0	0	0	0	0	0	0	0	0	0	0	0	0	0	0	0	45848	6919	73	5	0	52845	185	107	8	12	16	60	6	12	0	7	70	42	118	0	1.8		PETE ORR	5407773874	3/15/2004	3/23/2004		
2003	20030772	GIBSON COUNTY UTIL DIST	6370	BOX 350 N HWY 45W BYPASS	TRENTON 	GIBSON	TN	38382						 TN	0	0	0	501	35	0	0	0	0	0	536	0	0	0	10911	1602	0	0	0	0	0	12513	0	246	243	12	0	0	501	0	0	0	0	0	0	0	0	0	0	0	0	0	0	0	0	0	0	0	0	0	0	0	0	0	0	0	0	0	32	2	1	0	0	35	0	0	0	0	0	0	0	0	0	0	0	0	0	0	0	0	0	0	0	0	0	0	278	245	13	0	0	536	134	0	10911	0	0	0	0	10911	0	0	0	0	0	0	0	0	0	0	0	0	0	0	0	0	0	0	0	0	0	0	0	0	0	0	0	0	0	1602	0	0	0	0	1602	0	0	0	0	0	0	0	0	0	0	0	0	0	0	0	0	0	0	0	0	0	0	12513	0	0	0	0	12513	1	0	0	0	2	2	0	0	1	0	0	0	210	0	0.31		BRIAN PATTERSON	7318551441	3/15/2004	3/23/2004		
2003	20030773	NORTHEAST OHIO NATURAL GAS CORP	13635	PO BOX 430	LANCASTER	FAIRFIELD	OH	43130						 OH	18	0	0	17	431	0	0	0	0	0	466	98	0	0	40	6180	0	0	0	0	0	6318	0	7	26	2	0	0	35	0	0	0	0	0	0	0	0	0	0	0	0	0	0	0	0	0	0	0	0	0	0	0	0	0	0	0	0	0	308	123	0	0	0	431	0	0	0	0	0	0	0	0	0	0	0	0	0	0	0	0	0	0	0	0	0	0	315	149	2	0	0	466	150	0	108	6	14	8	2	138	0	0	0	0	0	0	0	0	0	0	0	0	0	0	0	0	0	0	0	0	0	0	0	0	0	0	0	0	0	5933	240	7	0	0	6180	0	0	0	0	0	0	0	0	0	0	0	0	0	0	0	0	0	0	0	0	0	0	6041	246	21	8	2	6318	3	1	0	0	19	15	1	1	0	0	1	0	3	0	0		JEFFERY BURDETTE	3008785589	3/15/2004	3/23/2004		
2003	20030774	M G T C INC	12264	1400 E. LINCOLN BOX 1749	GILLETTE	CAMPBELL	WY	82717	1099 18TH ST SUITE 1200	DENVER	DENVER	CO	80202	 WV	40	0	0	32	12	0	0	0	5	0	89	89	0	0	33	46	0	0	0	4	0	172	0	46	26	0	0	0	72	0	0	0	0	0	0	0	0	0	0	0	0	0	0	0	0	0	0	0	0	0	0	0	0	0	0	0	0	0	12	0	0	0	0	12	0	0	0	0	0	0	0	0	5	0	0	0	0	5	0	0	0	0	0	0	0	0	63	26	0	0	0	89	0	0	160	10	2	0	0	172	0	0	0	0	0	0	0	0	0	0	0	0	0	0	0	0	0	0	0	0	0	0	0	0	0	0	0	0	0	0	0	0	0	0	0	0	0	0	0	0	0	0	0	0	0	0	0	0	0	0	0	0	0	0	0	0	0	160	10	2	0	0	172	0	0	0	0	0	0	0	0	0	0	0	0	0	0	0.631		JOHN CURTIS	3076855703	3/15/2004	3/23/2004		
2003	20030775	"ROBSTOWN GAS SYSTEM, CITY OF"	17560	101 EAST MAIN STREET	ROBSTOWN	NUECES	TX	78380						 TX	0	0	0	55	0	0	0	0	12	0	67	0	0	0	3486	0	0	0	0	143	0	3629	0	0	55	0	0	0	55	0	0	0	0	0	0	0	0	0	0	0	0	0	0	0	0	0	0	0	0	0	0	0	0	0	0	0	0	0	0	12	0	0	0	12	0	0	0	0	0	0	0	0	0	0	0	0	0	0	0	0	0	0	0	0	0	0	0	67	0	0	0	67	0	0	0	3486	0	0	0	3486	0	0	0	0	0	0	0	0	0	0	0	0	0	0	0	0	0	0	0	0	0	0	0	0	0	0	0	0	0	0	143	0	0	0	143	0	0	0	0	0	0	0	0	0	0	0	0	0	0	0	0	0	0	0	0	0	0	0	3629	0	0	0	3629	8	20	0	0	0	10	0	0	12	18	0	0	0	0	3	ROBSTOWN UTILITIES SYSTEM HAS ONE MASTER METER.  $100 FOR ANNUAL INSPECTION FEE PER MASTER METER WILL BE PAID.	RAY GONZALES	3613872842	3/15/2004	3/23/2004		
2003	20030776	NSTAR GAS COMPANY	2652	ONE NSTAR WAY	WESTWOOD	SUFFOLK	MA	2090						 MA	386	467	0	360	1220	484	0	0	0	0	2917	36850	18277	0	18910	102523	8	0	976	0	0	177544	0	389	450	257	91	26	1213	0	0	0	0	0	0	0	0	0	0	0	0	0	0	0	0	278	147	32	27	484	0	603	390	227	0	0	1220	0	0	0	0	0	0	0	0	0	0	0	0	0	0	0	0	0	0	0	0	0	0	0	0	0	0	0	0	0	992	1118	631	123	53	2917	67	0	23777	49218	932	107	3	74037	0	0	0	0	0	0	0	0	976	0	0	0	0	976	0	0	0	0	8	0	8	0	84025	17471	932	95	0	102523	0	0	0	0	0	0	0	0	0	0	0	0	0	0	0	0	0	0	0	0	0	0	0	0	0	0	0	0	0	108778	66689	1864	210	3	177544	420	542	196	101	40	113	12	15	3	4	319	63	481	0	1		ROSEMARY E. HARANAS	7814418431	3/15/2004	3/23/2004		
2003	20030777	WASHINGTON GAS LIGHT CO	22182	6801 INDUSTRIAL ROAD 	SPRINGFIELD 	FAIRFAX	VA	22151	101 CONSTITUTION AVE NW #	WASHINGTON		DC	20080	 DC	35	70	0	314	293	469	0	0	0	0	1181	8590	218	0	21627	79200	0	0	12555	0	0	122190	0	102	75	184	41	17	419	0	0	0	0	0	0	0	0	0	0	0	0	0	0	0	2	171	227	40	29	469	0	0	0	0	0	0	0	0	160	76	41	14	2	293	0	0	0	0	0	0	0	0	0	0	0	0	0	0	0	0	0	0	0	0	0	0	264	322	452	95	48	1181	49	0	6737	22680	949	68	1	30435	0	0	0	0	0	0	0	0	9777	2778	0	0	0	12555	0	0	0	0	0	0	0	0	0	0	0	0	0	0	0	47117	31291	752	40	0	79200	0	0	0	0	0	0	0	0	0	0	0	0	0	0	0	0	0	0	0	0	0	0	63631	56749	1701	108	1	122190	138	75	66	11	69	163	4	8	57	49	71	324	413	0	3.7		SANDRA K. DEAVERS	7037504566	3/15/2004	3/23/2004		
2003	20030778	WASHINGTON GAS LIGHT CO	22182	6801 INDUSTRIAL ROAD	SPRINGFIELD	FAIRFAX	VA	22151	101 CONSTITUTION AVE NW #	WASHINGTON		DC	20080	 MD	174	162	0	2265	2210	84	0	0	0	0	4895	4853	886	0	87703	220836	0	0	29845	0	0	344123	0	1220	404	679	235	63	2601	0	0	0	0	0	0	0	0	0	0	0	0	0	0	0	0	23	52	7	2	84	0	0	0	0	0	0	0	0	1352	494	330	28	6	2210	0	0	0	0	0	0	0	0	0	0	0	0	0	0	0	0	0	0	0	0	0	0	2572	921	1061	270	71	4895	77	0	87457	5616	327	42	0	93442	0	29470	375	0	0	0	29845	0	0	0	0	0	0	0	0	0	0	0	0	0	0	0	0	0	0	0	0	0	0	208172	12107	534	23	0	220836	0	0	0	0	0	0	0	0	0	0	0	0	0	0	0	0	0	0	0	0	0	0	325099	18098	861	65	0	344123	110	129	26	57	148	354	7	16	78	282	151	568	811	0	3.7		SANDRA K. DEAVERS	7037504566	3/15/2004	3/23/2004		
2003	20030779	WASHINGTON GAS LIGHT CO	22182	6801 INDUSTRIAL ROAD	SPRINGFIELD 	FAIRFAX	VA	22151	101 CONSTITUTION AVE NW #	WASHINGTON		DC	20080	 VA	45	262	0	1687	2910	18	0	0	0	0	4922	2204	664	0	65704	260357	0	0	25058	0	0	353987	0	978	332	446	198	40	1994	0	0	0	0	0	0	0	0	0	0	0	0	0	0	0	0	6	6	5	1	18	0	0	0	0	0	0	0	0	1884	613	369	44	0	2910	0	0	0	0	0	0	0	0	0	0	0	0	0	0	0	0	0	0	0	0	0	0	2862	951	821	247	41	4922	77	0	64744	3616	191	18	3	68572	0	0	0	0	0	0	0	0	25008	49	1	0	0	25058	0	0	0	0	0	0	0	0	0	0	0	0	0	0	0	253239	6641	455	22	0	260357	0	0	0	0	0	0	0	0	0	0	0	0	0	0	0	0	0	0	0	0	0	0	342991	10306	647	40	3	353987	147	111	15	60	172	495	8	25	49	109	90	292	203	0	3.7		SANDRA K. DEAVERS	7037504566	3/15/2004	3/23/2004		
2003	20030780	SHENANDOAH GAS CO	18292	350 HILLANDALE LN.	WINCHESTER	FRED	VA	22602						 VA	0	1	0	125	195	0	0	0	0	0	321	0	0	0	2592	10916	0	0	0	0	0	13508	0	63	31	31	1	0	126	0	0	0	0	0	0	0	0	0	0	0	0	0	0	0	0	0	0	0	0	0	0	0	0	0	0	0	0	0	88	41	56	10	0	195	0	0	0	0	0	0	0	0	0	0	0	0	0	0	0	0	0	0	0	0	0	0	151	72	87	11	0	321	80	0	2455	125	11	1	0	2592	0	0	0	0	0	0	0	0	0	0	0	0	0	0	0	0	0	0	0	0	0	0	0	0	0	0	0	0	0	10677	217	18	4	0	10916	0	0	0	0	0	0	0	0	0	0	0	0	0	0	0	0	0	0	0	0	0	0	13132	342	29	5	0	13508	9	3	0	0	8	20	5	2	0	0	15	9	21	0	0		RANDALL W. RITTER	5408687950	3/15/2004	3/23/2004		
2003	20030781	WASHINGTON GAS LIGHT CO	22182	1800 NORTH MARKET STREET	FREDERICK	FREDERICK	MD	21701						 MD	7	0	1	94	335	0	0	0	0	0	437	431	0	0	432	20555	0	0	130	0	0	21548	0	5	17	79	1	0	102	0	0	0	0	0	0	0	0	0	0	0	0	0	0	0	0	0	0	0	0	0	0	0	0	0	0	0	0	0	169	88	78	0	0	335	0	0	0	0	0	0	0	0	0	0	0	0	0	0	0	0	0	0	0	0	0	0	174	105	157	1	0	437	0	0	353	496	12	2	0	863	0	0	0	0	0	0	0	0	126	4	0	0	0	130	0	0	0	0	0	0	0	0	0	0	0	0	0	0	0	19854	659	39	3	0	20555	0	0	0	0	0	0	0	0	0	0	0	0	0	0	0	0	0	0	0	0	0	0	20333	1159	51	5	0	21548	6	10	1	0	4	43	0	1	2	4	6	2	2	0	0	FREDERICK DIVISION	"RANDY GREEN, TIM MILLER"	3016442343	3/15/2004	3/23/2004		
2003	20030782	NEW JERSEY NATURAL GAS CO	13299	1415 WYCKOFF ROAD	WALL	MONMOUTH	NJ	7719						 NJ	559	79	0	3059	2473	124	0	0	0	0	6294	46325	9285	0	83687	278195	0	0	0	0	0	417492	0	2105	770	698	103	21	3697	0	0	0	0	0	0	0	0	0	0	0	0	0	0	0	0	90	28	6	0	124	0	0	0	0	0	0	0	0	1830	546	82	15	0	2473	0	0	0	0	0	0	0	0	0	0	0	0	0	0	0	0	0	0	0	0	0	0	3935	1406	808	124	21	6294	80	0	1215	137687	350	45	0	139297	0	0	0	0	0	0	0	0	0	0	0	0	0	0	0	0	0	0	0	0	0	0	0	0	0	0	0	0	0	189565	88317	276	37	0	278195	0	0	0	0	0	0	0	0	0	0	0	0	0	0	0	0	0	0	0	0	0	0	190780	226004	626	82	0	417492	942	681	217	89	83	638	75	82	208	140	283	179	1302	0	0.8	*THIS NUMBER REPRESENTS BELOW GROUND NON-HAZARDOUS LEAKS THAT ARE BEING MONITORED AND ARE SCHEDULED FOR REPAIR.	SCOTT EDERTON	7329381069	3/15/2004	3/23/2004		
2003	20030783	"HAMILTON GAS DEPT, CITY OF"	7040	345 HIGH STREET 4TH FLOOR	HAMILTON	BUTLER	OH	45011						 OH	2	0	0	26	221	2	11	0	0	0	262	130	228	0	290	22244	0	0	0	0	0	22892	0	2	1	9	12	4	28	0	0	4	5	0	0	9	0	0	0	0	0	0	0	0	0	2	2	0	0	4	0	7	97	117	0	0	221	0	0	0	0	0	0	0	0	0	0	0	0	0	0	0	0	0	0	0	0	0	0	0	0	0	0	0	0	0	9	104	133	12	4	262	30	0	299	144	162	5	0	610	0	0	0	0	0	0	0	0	0	0	0	0	0	0	0	0	0	0	0	0	0	0	0	0	0	0	0	0	0	1830	20350	96	6	0	22282	0	0	0	0	0	0	0	0	0	0	0	0	0	0	0	0	0	0	0	0	0	0	2129	20494	258	11	0	22892	4	85	0	2	0	11	0	9	4	7	5	14	58	0	2		PHILLIP K. GLASSMEYER	5137857283	3/15/2004	3/23/2004		
2003	20030784	ACME FILL CORP	30965	950 WATERBIRD WAY BOX1108	MARTINEZ	CONTRA COSTA	CA	94553						 CA	0	0	0	0	5	0	0	0	0	0	5	0	0	0	0	1	0	0	0	0	0	1	0	0	0	0	0	0	0	0	0	0	0	0	0	0	0	0	0	0	0	0	0	0	0	0	0	0	0	0	0	0	0	5	0	0	5	0	0	0	0	0	0	0	0	0	0	0	0	0	0	0	0	0	0	0	0	0	0	0	0	0	0	0	0	0	0	0	5	0	0	5	0	0	0	0	0	0	0	0	0	0	0	0	0	0	0	0	0	0	0	0	0	0	0	0	0	0	0	0	0	0	0	0	0	0	0	0	0	0	0	0	1	0	1	0	0	0	0	0	0	0	0	0	0	0	0	0	0	0	0	0	0	0	0	0	0	0	0	0	1	0	1	0	0	0	0	0	0	0	0	0	0	0	0	0	0	0		"PATRICK LACEY, COMPLIANCE MONITOR"	9252287099	3/15/2004	3/31/2004		
2003	20030785	"ESTHERWOOD, VILLAGE OF"	4550	124 N LEBLANC ST BOX 167	ESTERWOOD		LA	70534						 LA	0	0	0	5	0	0	0	0	0	0	5	0	0	0	213	0	0	0	0	21	0	234	0	5	0	0	0	0	5	0	0	0	0	0	0	0	0	0	0	0	0	0	0	0	0	0	0	0	0	0	0	0	0	0	0	0	0	0	0	0	0	0	0	0	0	0	0	0	0	0	0	0	0	0	0	0	0	0	0	0	0	0	0	0	0	0	5	0	0	0	0	5	65	0	213	0	0	0	0	213	0	0	0	0	0	0	0	0	0	0	0	0	0	0	0	0	0	0	0	0	0	0	0	0	0	0	0	0	0	21	0	0	0	0	21	0	0	0	0	0	0	0	0	0	0	0	0	0	0	0	0	0	0	0	0	0	0	234	0	0	0	0	234	0	0	0	0	0	0	0	0	0	0	0	0	1	0	8.35	PART C- TOTAL LEAKS  NUMBER OF KNOWN SYSTEM LEAKS AT END OF YEAR SCHEDULED FOR REPAIR 1  FIELD CASE NO. 37 OTHER  THIS IS A GRADE 3 LEAK.	"SANDY S. SARVER, CMC"	3377830464	3/15/2004	3/23/2004		
2003	20030786	FULTON GAS SYSTEM	5680	200 NOLAN AVENUE	FULTON	FULTON	KY	42041						 KY	0	0	0	31	7	3	0	0	0	0	41	0	0	0	844	269	92	0	0	0	0	1205	0	25	6	0	0	0	31	0	0	0	0	0	0	0	0	0	0	0	0	0	0	0	0	3	0	0	0	3	0	0	0	0	0	0	0	0	2	2	3	0	0	7	0	0	0	0	0	0	0	0	0	0	0	0	0	0	0	0	0	0	0	0	0	0	27	11	3	0	0	41	75	0	835	9	0	0	0	844	0	0	0	0	0	0	0	0	0	0	0	0	0	0	0	92	0	0	0	0	92	0	0	0	0	0	0	0	0	261	8	0	0	0	269	0	0	0	0	0	0	0	0	0	0	0	0	0	0	0	0	0	0	0	0	0	0	1188	17	0	0	0	1205	0	0	0	0	0	0	0	0	0	0	0	0	0	0	0.007		"SUE PATTERSON, SECRETARY"	2704722434	3/15/2004	3/31/2004		
2003	20030787	BAKER UTILITY SYSTEM	1064	1507 MISSISSIPPI STREET	BAKER	EAST BATON ROUGE PARISH	LA	70714	PO BOX 707	BAKER		LA	70714	 LA	0	0	0	48	27	0	0	0	0	0	75	0	0	0	2073	2252	0	0	0	0	0	4325	0	30	11	6	0	0	47	0	0	0	0	0	0	0	0	0	0	0	0	0	0	0	0	0	0	0	0	0	0	3	3	0	0	0	6	0	20	2	0	0	0	22	0	0	0	0	0	0	0	0	0	0	0	0	0	0	0	0	0	0	0	0	0	0	53	16	6	0	0	75	65	0	2073	0	0	0	0	2073	0	0	0	0	0	0	0	0	0	0	0	0	0	0	0	0	0	0	0	0	0	0	0	0	0	0	0	0	0	2252	0	0	0	0	2252	0	0	0	0	0	0	0	0	0	0	0	0	0	0	0	0	0	0	0	0	0	0	4325	0	0	0	0	4325	0	14	0	0	0	0	2	4	0	8	0	0	0	0	2		JULI MCCOLLOCH	2257751272	3/15/2004	3/23/2004		
2003	20030788	NATIONAL FUEL GAS SUPPLY CORP	13063	1100 STATE ST PO BOX 2081	ERIE	ERIE	PA	16512						 NY	0	0	9	2	5	0	0	0	0	0	16	0	0	0	0	0	0	0	0	0	0	0	0	0	0	0	11	0	11	0	0	0	0	0	0	0	0	0	0	0	0	0	0	0	0	0	0	0	0	0	0	0	0	0	0	0	0	0	0	0	5	0	0	5	0	0	0	0	0	0	0	0	0	0	0	0	0	0	0	0	0	0	0	0	0	0	0	0	5	11	0	16	0	0	0	0	0	0	0	0	0	0	0	0	0	0	0	0	0	0	0	0	0	0	0	0	0	0	0	0	0	0	0	0	0	0	0	0	0	0	0	0	0	0	0	0	0	0	0	0	0	0	0	0	0	0	0	0	0	0	0	0	0	0	0	0	0	0	0	0	0	0	0	0	0	0	0	0	0	0	0	0	0	0	0	0	0	0	"ALL SERVICES FROM THESE LINES ARE OWNED, OPERATED, AND WILL BE REPORTED BY NATIONAL AFFILIATE NATIONAL FUEL GAS DISTRIBUTION CORPORATION."	JAMES I. SHARPLESS	8148718552	3/15/2004	3/23/2004		
2003	20030789	NATIONAL FUEL GAS SUPPLY CORP	13063	1100 STATE ST PO BOX 2081	ERIE	ERIE	PA	16512						 PA	10	0	17	5	3	30	0	0	0	0	65	0	0	0	0	0	0	0	0	0	0	0	0	0	3	26	3	0	32	0	0	0	0	0	0	0	0	0	0	0	0	0	0	0	0	0	14	16	0	30	0	0	0	0	0	0	0	0	1	2	0	0	0	3	0	0	0	0	0	0	0	0	0	0	0	0	0	0	0	0	0	0	0	0	0	0	1	5	40	19	0	65	0	0	0	0	0	0	0	0	0	0	0	0	0	0	0	0	0	0	0	0	0	0	0	0	0	0	0	0	0	0	0	0	0	0	0	0	0	0	0	0	0	0	0	0	0	0	0	0	0	0	0	0	0	0	0	0	0	0	0	0	0	0	0	0	0	0	0	0	0	0	0	4	0	0	0	0	0	0	0	0	0	0	0	0	0	0	"ALL SERVICES FROM THESE LINES ARE OWNED, OPERATED, AND WILL BE REPORTED BY NATIONAL AFFILATE NATIONAL FUEL GAS DISTRIBUTION COPORATION."	JAMES I SHARPLESS	8148718552	3/15/2004	3/23/2004		
2003	20030790	SOUTH JERSEY GAS CO	18440	#1 S. JERSEY PLAZA RT. 54	FOLSOM	ATLANTIC	NJ	8037						 NJ	1179	37	5	1787	2077	273	0	0	0	0	5358	48049	8930	221	55258	190608	0	0	0	0	0	303066	0	1565	607	619	168	49	3008	0	0	0	0	0	0	0	0	0	0	0	0	0	0	0	24	119	106	22	2	273	0	0	0	0	0	0	0	0	1638	316	121	2	0	2077	0	0	0	0	0	0	0	0	0	0	0	0	0	0	0	0	0	0	0	0	0	0	3227	1042	846	192	51	5358	92	0	68372	43783	281	16	0	112452	0	0	0	0	0	0	0	0	0	0	0	0	0	0	0	0	0	0	0	0	0	0	0	0	0	0	0	0	0	179598	10996	20	0	0	190614	0	0	0	0	0	0	0	0	0	0	0	0	0	0	0	0	0	0	0	0	0	0	247970	54779	301	16	0	303066	2091	681	27	44	137	592	11	34	62	63	228	243	1615	0	3	"BREAKDOWN BY LEAK TYPE    A-296  B-1,319  C-0"	MELISSA A. JOHNSON	6095519000	3/15/2004	3/24/2004		
2003	20030791	"ARNAUDVILLE MUNICIPLE SYSTEM, TOWN OF"	675	BOX 1010 107 RUE DE JAUSI	ARNAUDVILLE	ST. LANDRY MARTIN PARISH	LA	70512						 LA	0	0	0	0	0	0	0	0	0	0	0	0	0	0	0	0	0	0	0	0	0	0	0	20	10	0	0	0	30	0	0	0	0	0	0	0	0	0	0	0	0	0	0	0	0	0	0	0	0	0	0	0	0	0	0	0	0	0	4	3	2	0	0	9	0	3	1	0	0	0	4	0	0	0	0	0	0	0	0	0	0	0	0	0	0	0	27	14	2	0	0	43	0	0	830	0	0	0	0	830	0	0	0	0	0	0	0	0	0	0	0	0	0	0	0	0	0	0	0	0	0	0	0	0	0	0	0	0	0	130	0	0	0	0	130	0	0	0	0	0	0	0	0	0	0	0	0	0	0	0	0	0	0	0	0	0	0	960	0	0	0	0	960	0	4	0	0	0	0	0	0	0	0	0	0	0	0	0.01		EUGENE QUEBEDEAX	3377545911	3/15/2004	3/24/2004		
2003	20030792	FERRELLGAS	13772	3232 SE DIXIE HWY	STUART 	MARTIN	FL	34997	FERRELLGAS ONE LIBERTY PL	LIBERTY		MO	64068	 FL	0	0	0	12	12	0	0	0	0	0	24	0	0	0	314	362	0	0	0	0	0	676	0	12	0	0	0	0	12	0	0	0	0	0	0	0	0	0	0	0	0	0	0	0	0	0	0	0	0	0	0	0	0	0	0	0	0	0	12	0	0	0	0	12	0	0	0	0	0	0	0	0	0	0	0	0	0	0	0	0	0	0	0	0	0	0	24	0	0	0	0	24	0	0	314	0	0	0	0	314	0	0	0	0	0	0	0	0	0	0	0	0	0	0	0	0	0	0	0	0	0	0	0	0	0	0	0	0	0	362	0	0	0	0	362	0	0	0	0	0	0	0	0	0	0	0	0	0	0	0	0	0	0	0	0	0	0	676	0	0	0	0	676	0	5	0	0	0	8	0	2	0	4	0	0	0	0	1		MARVIN GRUIELA	7722874330	3/15/2004	3/24/2004		
2003	20030793	NORTHERN ILLINOIS GAS CO	13710	1844 FERRY ROAD	NAPERVILLE	DUPAGE	IL	60563						 IL	174	0	317	22005	5418	448	0	0	0	0	28362	13939	0	1608	447123	614957	0	0	106981	610024	64422	1859054	0	15194	4156	2692	350	104	22496	0	0	0	0	0	0	0	0	0	0	0	0	0	0	0	0	9	363	62	14	448	0	0	0	0	0	0	0	0	4435	954	29	0	0	5418	0	0	0	0	0	0	0	0	0	0	0	0	0	0	0	0	0	0	0	0	0	0	19629	5119	3084	412	118	28362	81	591	372841	86805	2433	0	0	462670	0	0	0	0	0	0	0	1295	105646	40	0	0	0	106981	0	0	0	0	0	0	0	0	0	0	0	0	0	0	44	606195	8530	188	0	0	614957	0	0	0	0	0	0	0	2006	593141	14877	0	0	0	610024	10892	49389	4069	72	0	0	64422	14828	1727212	114321	2693	0	0	1859054	331	2851	245	849	559	3779	37	82	1009	3356	872	2203	5042	0	2.16	"NUMBER OF SERVICES MARKED ""OTHER""  >57,613 PAS  >37,411 X-TRUBE  >62,520 MIXED MATERIALS  >1,902 UNKNOWN MATERIAL  "	LETICIA QUEZADA	6309838676	3/15/2004	3/24/2004		
2003	20030794	NORTH SHORE GAS CO	13660	3001 W. GRAND AVENUE	WAUKEGAN	LAKE	IL	60085						 IL	2	0	2	1396	801	0	0	0	0	0	2201	280	19	201	52901	85159	0	0	176	0	0	138736	0	850	288	196	62	4	1400	0	0	0	0	0	0	0	0	0	0	0	0	0	0	0	0	0	0	0	0	0	0	0	0	0	0	0	0	0	501	213	87	0	0	801	0	0	0	0	0	0	0	0	0	0	0	0	0	0	0	0	0	0	0	0	0	0	1351	501	283	62	4	2201	68	0	51679	1643	61	17	1	53401	0	0	0	0	0	0	0	0	176	0	0	0	0	176	0	0	0	0	0	0	0	0	0	0	0	0	0	0	0	74245	10863	48	3	0	85159	0	0	0	0	0	0	0	0	0	0	0	0	0	0	0	0	0	0	0	0	0	0	126100	12506	109	20	1	138736	20	57	0	1	33	144	0	0	0	0	163	291	0	4	2	NONE	GLORIA A. GREY	3122404740	3/15/2004	3/24/2004		
2003	20030795	PEOPLES GAS LIGHT & COKE CO	15329	130 E. RANDOLPH DRIVE 	CHICAGO 	COOK	IL	60601						 IL	0	0	0	1217	667	1759	339	0	0	0	3982	7447	181	0	46231	398184	78	411	21982	27371	0	501885	0	231	181	584	95	125	1216	0	0	0	216	42	81	339	0	0	0	0	0	0	0	0	0	12	1311	143	294	1760	0	0	0	0	0	0	0	0	364	198	94	11	0	667	0	0	0	0	0	0	0	0	0	0	0	0	0	0	0	0	0	0	0	0	0	0	595	391	2205	291	500	3982	57	0	2392	36401	13931	1074	61	53859	0	0	0	0	362	49	411	0	1	21981	0	0	0	21982	0	0	0	1	68	9	78	0	0	0	0	0	0	0	0	145243	251912	936	93	0	398184	0	0	0	0	0	0	0	0	0	27371	0	0	0	27371	0	0	0	0	0	0	0	0	147636	337665	14868	1597	119	501885	50	100	178	49	155	531	0	0	3	2	1006	523	246	0	4.23	"*FOR NUMBER OF SERVICES IN PARTS B1 AND B3: ""OTHER""-CAB PLASTIC (27,371)"	"JOSEPH M. CORSO, SUPERVISOR OPERATIONS SPECIALIST"	7733957444	3/15/2004	3/24/2004		
2003	20030796	PAINTSVILLE CITY GAS SYSTEM	15035	137 MAIN ST PO BOX 630	PAINTSVILLE		KY	41240						 KY	0	0	8	58	0	0	0	0	0	0	66	0	0	40	2395	0	0	0	0	0	0	2435	0	1	4	0	0	0	5	0	0	0	0	0	0	0	0	0	0	0	0	0	0	0	0	0	0	0	0	0	0	0	0	0	0	0	0	0	45	13	0	0	0	58	0	0	0	0	0	0	0	0	0	0	0	0	0	0	0	0	0	0	0	0	0	0	46	17	3	0	0	66	20	0	0	0	0	0	0	0	0	0	0	0	0	0	0	0	0	0	0	0	0	0	0	0	0	0	0	0	0	0	0	0	0	0	0	0	0	2417	18	0	0	0	2435	0	0	0	0	0	0	0	0	0	0	0	0	0	0	0	0	0	0	0	0	0	0	2417	18	0	0	0	2435	0	0	0	0	17	0	0	0	1	0	0	0	0	0	1		LARY D. HERALD	6067892630	3/15/2004	3/24/2004		
2003	20030797	AGENDA GAS SYSTEM	72	300 MAIN STREET	AGENDA	REPUBLIC	KS	66930						 KS	0	0	0	3	0	0	0	0	0	0	3	0	0	0	65	0	0	0	0	0	0	65	0	2	1	0	0	0	3	0	0	0	0	0	0	0	0	0	0	0	0	0	0	0	0	0	0	0	0	0	0	0	0	0	0	0	0	0	0	0	0	0	0	0	0	0	0	0	0	0	0	0	0	0	0	0	0	0	0	0	0	0	0	0	0	0	2	1	0	0	0	3	0	0	0	65	0	0	0	65	0	0	0	0	0	0	0	0	0	0	0	0	0	0	0	0	0	0	0	0	0	0	0	0	0	0	0	0	0	0	0	0	0	0	0	0	0	0	0	0	0	0	0	0	0	0	0	0	0	0	0	0	0	0	0	0	0	0	65	0	0	0	65	0	0	0	0	0	0	0	0	0	0	0	0	0	0	2		MYRA J. LUNDQUIST	7857326619	3/15/2004	3/24/2004		
2003	20030798	"DEVINE GAS SYSTEM, CITY OF"	3340	303 S. TEEL	DEVINE	MADINA	TX	78016						 TX	0	0	0	7	31	0	0	0	0	0	38	0	0	0	0	1276	0	0	0	0	0	1276	0	0	0	7	0	0	7	0	0	0	0	0	0	0	0	0	0	0	0	0	0	0	0	0	0	0	0	0	0	0	1	0	0	0	1	0	25	5	0	0	0	30	0	0	0	0	0	0	0	0	0	0	0	0	0	0	0	0	0	0	0	0	0	0	25	6	7	0	0	38	0	0	2	0	0	0	0	2	0	0	0	0	0	0	0	0	0	0	0	0	0	0	0	0	0	0	0	0	0	0	0	0	0	0	0	0	0	1248	26	0	0	0	1274	0	0	0	0	0	0	0	0	0	0	0	0	0	0	0	0	0	0	0	0	0	0	1250	26	0	0	0	1276	0	0	0	0	0	3	0	3	0	0	0	0	0	0	1.7		ISMAEL CARRILLO	8306632804	3/15/2004	3/24/2004		
2003	20030799	LEITCHFIELD GAS SYSTEM UTILITIES	11368	314 WEST WHITE OAK	LEITCHFIELD	GRAYSON	KY	42754						 KY	0	0	0	38	63	0	0	0	0	0	101	0	0	0	462	1826	0	0	0	0	0	2288	0	6	1	32	0	0	39	0	0	0	0	0	0	0	0	0	0	0	0	0	0	0	0	0	0	0	0	0	0	0	0	0	0	0	0	0	29	22	11	0	0	62	0	0	0	0	0	0	0	0	0	0	0	0	0	0	0	0	0	0	0	0	0	0	35	23	43	0	0	101	124	0	455	4	3	0	0	462	0	0	0	0	0	0	0	0	0	0	0	0	0	0	0	0	0	0	0	0	0	0	0	0	0	0	0	0	0	1782	42	2	0	0	1826	0	0	0	0	0	0	0	0	0	0	0	0	0	0	0	0	0	0	0	0	0	0	2237	46	5	0	0	2288	0	0	0	0	2	7	1	0	0	0	2	6	0	0	1.25		JIMMY L. WELLS	2702594034	3/15/2004	3/24/2004		
2003	20030800	"UVALDE GAS DEPT, CITY OF"	20320	PO BOX 799	UVALDE	UVALDE	TX	78802						 TX	0	0	1	62	34	0	0	0	0	0	97	49	0	683	846	2224	0	0	0	0	0	3802	0	43	19	1	0	0	63	0	0	0	0	0	0	0	0	0	0	0	0	0	0	0	0	0	0	0	0	0	0	0	0	0	0	0	0	0	31	3	0	0	0	34	0	0	0	0	0	0	0	0	0	0	0	0	0	0	0	0	0	0	0	0	0	0	74	22	1	0	0	97	50	0	1568	10	0	0	0	1578	0	0	0	0	0	0	0	0	0	0	0	0	0	0	0	0	0	0	0	0	0	0	0	0	0	0	0	0	0	2219	5	0	0	0	2224	0	0	0	0	0	0	0	0	0	0	0	0	0	0	0	0	0	0	0	0	0	0	3787	15	0	0	0	3802	2	8	0	8	1	8	0	0	0	0	8	121	0	0	0		RODNEY HERMANSON	8302783316	3/15/2004	3/24/2004		
2003	20030801	SOCORRO NATURAL GAS CO	18380	111 SCHOOL OF MINES ROAD	SOCORRO	SOCORRO	NM	87801						 NM	0	0	0	0	79	0	0	0	0	0	79	0	0	0	0	2934	0	0	0	0	0	2934	0	0	0	0	0	0	0	0	0	0	0	0	0	0	0	0	0	0	0	0	0	0	0	0	0	0	0	0	0	0	0	0	0	0	0	0	65	14	0	0	0	79	0	0	0	0	0	0	0	0	0	0	0	0	0	0	0	0	0	0	0	0	0	0	65	14	0	0	0	79	0	0	0	0	0	0	0	0	0	0	0	0	0	0	0	0	0	0	0	0	0	0	0	0	0	0	0	0	0	0	0	0	0	0	0	0	0	2896	38	0	0	0	2934	0	0	0	0	0	0	0	0	0	0	0	0	0	0	0	0	0	0	0	0	0	0	2896	38	0	0	0	2934	0	0	0	2	0	0	0	0	5	1	0	0	2	0	2.63		RAY A. ARAGON	5058350240	3/15/2004	3/31/2004		
2003	20030802	EQUITABLE RESOURCES (A.K.A EQUITABLE GAS CO)	4510	200 ALLEGHENY CENTER MALL	PITTSBURGH	ALLEGHENY	PA	15212						 PA	925	129	0	811	1213	60	0	1	0	0	3139	18782	46311	0	15880	154625	0	0	7007	0	0	242605	0	168	804	557	172	164	1865	0	0	0	0	0	0	0	0	1	0	0	0	0	1	0	0	0	23	5	32	60	0	0	0	0	0	0	0	0	370	625	218	0	0	1213	0	0	0	0	0	0	0	0	0	0	0	0	0	0	0	0	0	0	0	0	0	0	539	1429	798	177	196	3139	15	649	6980	52276	246	143	0	60294	0	0	0	0	0	0	0	6	5970	1031	0	0	0	7007	0	0	0	0	0	0	0	0	0	0	0	0	0	0	436	140221	13826	124	18	0	154625	0	0	0	0	0	0	0	0	0	0	0	0	0	0	5956	1459	13155	67	42	0	20679	7047	154630	80288	437	203	0	242605	1402	652	0	0	58	104	11	50	88	96	83	65	1205	0	4.8		"JOE LOMBARDO, PIPELINE SAFETY ENGINEER"	4123953135	3/15/2004	3/24/2004		
2003	20030803	EQUITABLE RESOURCES (A.K.A EQUITABLE GAS CO)	4510	200 ALLEGHENY CENTER MALL	PITTSBURGH	ALLEGHENY	PA	15212						 WV	54	0	2	85	180	0	0	0	0	0	321	0	0	0	3191	8403	0	0	0	0	0	11594	0	27	54	19	39	2	141	0	0	0	0	0	0	0	0	0	0	0	0	0	0	0	0	0	0	0	0	0	0	0	0	0	0	0	0	0	72	73	19	16	0	180	0	0	0	0	0	0	0	0	0	0	0	0	0	0	0	0	0	0	0	0	0	0	99	127	38	55	2	321	12	0	2175	953	60	3	0	3191	0	0	0	0	0	0	0	0	0	0	0	0	0	0	0	0	0	0	0	0	0	0	0	0	0	0	0	0	0	6997	1340	65	1	0	8403	0	0	0	0	0	0	0	0	0	0	0	0	0	0	0	0	0	0	0	0	0	0	9172	2293	125	4	0	11594	154	4	4	2	0	0	2	3	3	2	1	0	175	0	8		"TONYA R. PERKINS, SR. TECHNICAL FIELDMAN"	3046276416	3/15/2004	3/24/2004		
2003	20030804	EQUITABLE RESOURCES (A.K.A EQUITABLE GAS CO)	4510	200 ALLEGHENY CENTER MALL	PITTSBURGH	ALLEGHENY	PA	15212						 KY	0	0	0	0	0	0	0	0	0	0	0	2856	0	0	1170	0	0	0	0	0	0	4026	0	0	0	0	0	0	0	0	0	0	0	0	0	0	0	0	0	0	0	0	0	0	0	0	0	0	0	0	0	0	0	0	0	0	0	0	0	0	0	0	0	0	0	0	0	0	0	0	0	0	0	0	0	0	0	0	0	0	0	0	0	0	0	0	0	0	0	0	0	0	3	0	0	4026	0	0	0	4026	0	0	0	0	0	0	0	0	0	0	0	0	0	0	0	0	0	0	0	0	0	0	0	0	0	0	0	0	0	0	0	0	0	0	0	0	0	0	0	0	0	0	0	0	0	0	0	0	0	0	0	0	0	0	0	0	0	0	4026	0	0	0	4026	0	62	0	0	0	0	0	0	0	0	0	49	0	0	4		"JOE LOMBARDO, PIPELINE SAFETY ENGINEER"	4123953135	3/15/2004	3/24/2004		
2003	20030805	CARNEGIE NATURAL GAS CO	2104	200 ALLEGHENY CENTER MALL	PITTSBURGH	ALLEGHENY	PA	15212						 PA WV	39	0	10	30	43	0	0	0	0	0	122	4827	0	204	1899	1291	0	0	0	0	0	8221	0	24	26	21	7	1	79	0	0	0	0	0	0	0	0	0	0	0	0	0	0	0	0	0	0	0	0	0	0	0	0	0	0	0	0	0	22	15	3	3	0	43	0	0	0	0	0	0	0	0	0	0	0	0	0	0	0	0	0	0	0	0	0	0	46	41	24	10	1	122	15	0	4227	2599	80	24	0	6930	0	0	0	0	0	0	0	0	0	0	0	0	0	0	0	0	0	0	0	0	0	0	0	0	0	0	0	0	0	608	679	4	0	0	1291	0	0	0	0	0	0	0	0	0	0	0	0	0	0	0	0	0	0	0	0	0	0	4835	3278	84	24	0	8221	12	4	0	0	1	1	0	0	0	0	3	1	3	0	4.8		"JOE LOMBARDO, PIPELINE SAFETY ENGINEER"	4123953135	3/15/2004	3/24/2004		
2003	20030806	COLUMBIA GAS OF OHIO INC	2596	BOX 117 200 CIVIC CTR DR 	COLUMBUS	FRANKLIN	OH	43216						 OH	3796	72	52	6689	8252	294	0	0	6	0	19161	180708	3428	2475	318430	781666	0	0	0	0	0	1286707	0	3026	4930	2078	420	155	10609	0	0	0	0	0	0	0	0	0	0	0	0	0	0	0	29	138	98	27	2	294	0	0	0	0	0	0	0	0	4557	3268	424	3	0	8252	0	0	0	0	0	0	0	0	3	1	0	1	1	6	0	0	0	0	0	0	0	0	7615	8337	2600	451	158	19161	20	0	117236	385094	2520	185	6	505041	0	0	0	0	0	0	0	0	0	0	0	0	0	0	0	0	0	0	0	0	0	0	0	0	0	0	0	0	0	734805	45423	1416	21	1	781666	0	0	0	0	0	0	0	0	0	0	0	0	0	0	0	0	0	0	0	0	0	0	852041	430517	3936	206	7	1286707	2859	1815	104	203	532	1042	9	18	9	137	757	1554	2946	0	0.59		STEVEN A. ESPE	6144606269	3/15/2004	3/24/2004		
2003	20030807	COLUMBIA GAS OF VIRGINIA INC	2604	BOX 117 200 CIVIC CTR DR 	COLUMBUS	FRANKLIN	OH	43216						 VA	248	0	2	1271	2739	19	0	0	0	0	4279	4107	0	33	21050	184582	0	0	0	0	0	209772	0	561	520	379	58	3	1521	0	0	0	0	0	0	0	0	0	0	0	0	0	0	0	3	9	7	0	0	19	0	1	2	0	0	0	3	0	1779	649	308	0	0	2736	0	0	0	0	0	0	0	0	0	0	0	0	0	0	0	0	0	0	0	0	0	0	2344	1180	694	58	3	4279	80	0	6855	18138	180	15	2	25190	0	0	0	0	0	0	0	0	0	0	0	0	0	0	0	0	0	0	0	0	0	0	200	10	1	0	0	211	0	175792	8338	221	20	0	184371	0	0	0	0	0	0	0	0	0	0	0	0	0	0	0	0	0	0	0	0	0	0	182847	26486	402	35	2	209772	378	280	23	27	102	357	21	25	14	29	364	565	693	0	2.25		STEVEN A. ESPE	6144606269	3/15/2004	3/24/2004		
2003	20030808	COLUMBIA GAS OF MARYLAND INC	2588	200 CIVIC CTR DR BOX 117 	COLUMBUS	FRANKLIN	OH	43216						 MD	134	0	0	166	293	18	0	0	0	0	611	6494	0	0	8045	21185	0	0	0	0	0	35724	0	49	163	80	8	0	300	0	0	0	0	0	0	0	0	0	0	0	0	0	0	0	2	9	7	0	0	18	0	0	0	0	0	0	0	0	134	130	29	0	0	293	0	0	0	0	0	0	0	0	0	0	0	0	0	0	0	0	0	0	0	0	0	0	185	302	116	8	0	611	100	0	2087	12354	94	4	0	14539	0	0	0	0	0	0	0	0	0	0	0	0	0	0	0	0	0	0	0	0	0	0	0	0	0	0	0	0	0	18720	2376	86	3	0	21185	0	0	0	0	0	0	0	0	0	0	0	0	0	0	0	0	0	0	0	0	0	0	20807	14730	180	7	0	35724	139	183	3	3	16	47	1	0	1	0	39	48	115	0	0.81		STEVEN A. ESPE	6144606269	3/15/2004	3/24/2004		
2003	20030811	COLUMBIA GAS OF KENTUCKY INC	2585	200 CIVIC CTR DR BOX 117	COLUMBUS 	FRANKLIN	OH	43216						 KY	542	0	7	856	1092	26	0	0	2	0	2525	16640	0	215	26280	91777	0	0	0	0	0	134912	0	216	650	367	152	20	1405	0	0	0	0	0	0	0	0	0	0	0	0	0	0	0	0	21	5	0	0	26	0	0	0	0	0	0	0	0	601	420	71	0	0	1092	0	0	0	0	0	0	0	0	1	1	0	0	0	2	0	0	0	0	0	0	0	0	818	1092	443	152	20	2525	75	0	5064	37675	391	4	1	43135	0	0	0	0	0	0	0	0	0	0	0	0	0	0	0	0	0	0	0	0	0	0	0	0	0	0	0	0	0	86675	4641	457	4	0	91777	0	0	0	0	0	0	0	0	0	0	0	0	0	0	0	0	0	0	0	0	0	0	91739	42316	848	8	1	134912	440	1279	16	44	81	234	3	3	4	62	101	324	177	0	0.5		STEVEN A. ESPE	6144606269	3/15/2004	3/24/2004		
2003	20030812	COLUMBIA GAS OF PENNSYLVANIA	2600	200 CIVIC CTR DR BOX 117	COLUMBUS	FRANKLIN	OH	43216						 PA	2245	0	35	1940	2789	83	0	0	5	0	7097	85983	0	1340	74302	241187	0	0	0	0	0	402812	0	962	1659	1300	231	68	4220	0	0	0	0	0	0	0	0	0	0	0	0	0	0	0	4	48	28	2	1	83	0	0	0	0	0	0	0	0	1431	1090	268	0	0	2789	0	0	0	0	0	0	0	0	0	0	1	3	1	5	0	0	0	0	0	0	0	0	2397	2797	1597	236	70	7097	52	0	52528	107974	1031	88	4	161625	0	0	0	0	0	0	0	0	0	0	0	0	0	0	0	0	0	0	0	0	0	0	0	0	0	0	0	0	0	220852	18833	1486	16	0	241187	0	0	0	0	0	0	0	0	0	0	0	0	0	0	0	0	0	0	0	0	0	0	273380	126807	2517	104	4	402812	2503	973	51	45	239	370	5	4	10	38	506	343	1776	0	2.01		STEVEN A.ESPE	6144606269	3/15/2004	3/24/2004		
2003	20030813	UNITED STATES GYPSUM CO	20236	125 SOUTH FRANKLIN STREET	CHICAGO	COOK	IL	60606						 IA	0	0	0	3	0	0	0	0	0	0	3	0	0	0	1	0	0	0	0	0	0	1	0	0	0	3	0	0	3	0	0	0	0	0	0	0	0	0	0	0	0	0	0	0	0	0	0	0	0	0	0	0	0	0	0	0	0	0	0	0	0	0	0	0	0	0	0	0	0	0	0	0	0	0	0	0	0	0	0	0	0	0	0	0	0	0	0	0	3	0	0	3	3	0	0	0	0	1	0	1	0	0	0	0	0	0	0	0	0	0	0	0	0	0	0	0	0	0	0	0	0	0	0	0	0	0	0	0	0	0	0	0	0	0	0	0	0	0	0	0	0	0	0	0	0	0	0	0	0	0	0	0	0	0	0	0	0	0	0	0	1	0	1	0	0	0	0	0	0	0	0	0	0	0	0	0	0	0		LOUIS P. STOCCO-STAFF ENGINEER	3126065612	3/15/2004	3/31/2004		
2003	20030814	ALBANY WATER GAS & LIGHT COMMISSION	234	916 N. FRONT ST.	ALBANY	DOUGHERTY	GA	31702	PO BOX 1788	ALBANY 		GA	31702	 GA	0	0	0	396	0	0	0	0	0	0	396	0	0	0	18759	0	0	0	0	0	0	18759	0	255	89	47	5	0	396	0	0	0	0	0	0	0	0	0	0	0	0	0	0	0	0	0	0	0	0	0	0	0	0	0	0	0	0	0	0	0	0	0	0	0	0	0	0	0	0	0	0	0	0	0	0	0	0	0	0	0	0	0	0	0	0	0	255	89	47	5	0	396	0	0	18647	94	16	2	0	18759	0	0	0	0	0	0	0	0	0	0	0	0	0	0	0	0	0	0	0	0	0	0	0	0	0	0	0	0	0	0	0	0	0	0	0	0	0	0	0	0	0	0	0	0	0	0	0	0	0	0	0	0	0	0	0	0	0	18647	94	16	2	0	18759	2	6	0	2	2	14	0	4	0	0	5	0	0	0	2.67		GARY WHITFIELD	2298838330	3/15/2004	3/24/2004		
2003	20030815	NATIONAL GAS & OIL CORP	13302	BOX 4970 1500 GRANVILLE 	NEWARK	LICKING	OH	43058						 OH	152	0	64	205	625	0	0	0	0	0	1046	3633	0	0	2729	23186	0	0	0	0	0	29548	0	101	99	209	12	0	421	0	0	0	0	0	0	0	0	0	0	0	0	0	0	0	0	0	0	0	0	0	0	1	1	0	0	0	2	0	443	180	0	0	0	623	0	0	0	0	0	0	0	0	0	0	0	0	0	0	0	0	0	0	0	0	0	0	545	280	209	12	0	1046	49	0	2309	4011	35	7	0	6362	0	0	0	0	0	0	0	0	0	0	0	0	0	0	0	0	0	0	0	0	0	0	0	0	0	0	0	0	0	18471	4694	21	0	0	23186	0	0	0	0	0	0	0	0	0	0	0	0	0	0	0	0	0	0	0	0	0	0	20780	8705	56	7	0	29548	183	90	0	0	34	26	0	0	7	8	14	53	61	0	3		DAVID K. DETTY	7403442102	3/15/2004	3/24/2004		
2003	20030816	SANTAQUIN CITY	31402	45 WEST 100 SOUTH	SANTAQUIN	UTAH	UT	84655						 UT	0	0	0	0	17	0	0	0	0	0	17	0	0	0	0	519	0	0	0	0	0	519	0	0	0	0	0	0	0	0	0	0	0	0	0	0	0	0	0	0	0	0	0	0	0	0	0	0	0	0	0	0	0	0	0	0	0	0	12	5	0	0	0	17	0	0	0	0	0	0	0	0	0	0	0	0	0	0	0	0	0	0	0	0	0	0	12	5	0	0	0	17	70	0	0	0	0	0	0	0	0	0	0	0	0	0	0	0	0	0	0	0	0	0	0	0	0	0	0	0	0	0	0	0	0	0	0	0	0	514	5	0	0	0	519	0	0	0	0	0	0	0	0	0	0	0	0	0	0	0	0	0	0	0	0	0	0	514	5	0	0	0	519	0	0	0	0	0	0	0	0	0	0	0	0	0	0	0.5		"SHON FULLMER, SANTAQUIN CITY"	8017543211	3/16/2004	3/24/2004		
2003	20030817	OCCIDENTAL CHEMICAL CORP	30544	1657 RIVER ROAD	NEW CASTLE	NEW CASTLE	DE	19720	505 LBL FREEWAY	DALLAS	DALLAS	TX	75380	 DE	0	0	0	1	0	0	0	0	0	0	1	0	0	0	1	0	0	0	0	0	0	1	0	0	0	1	0	0	1	0	0	0	0	0	0	0	0	0	0	0	0	0	0	0	0	0	0	0	0	0	0	0	0	0	0	0	0	0	0	0	0	0	0	0	0	0	0	0	0	0	0	0	0	0	0	0	0	0	0	0	0	0	0	0	0	0	0	0	1	0	0	1	5300	0	0	0	1	0	0	1	0	0	0	0	0	0	0	0	0	0	0	0	0	0	0	0	0	0	0	0	0	0	0	0	0	0	0	0	0	0	0	0	0	0	0	0	0	0	0	0	0	0	0	0	0	0	0	0	0	0	0	0	0	0	0	0	0	0	0	1	0	0	1	0	0	0	0	0	0	0	0	0	0	0	0	0	0	0		ROBERT J. ARMSTRONG	3028343958	3/16/2004	3/24/2004		
2003	20030818	"COLUMBUS, CITY OF"	2632	605 SPRING STREET	COLUMBUS	COLORADO	TX	78934						 TX	0	0	1	4	33	0	0	0	0	0	38	0	0	187	5	1188	0	0	0	0	0	1380	0	2	3	0	0	0	5	0	0	0	0	0	0	0	0	0	0	0	0	0	0	0	0	0	0	0	0	0	0	1	0	0	0	0	1	0	18	14	0	0	0	32	0	0	0	0	0	0	0	0	0	0	0	0	0	0	0	0	0	0	0	0	0	0	21	17	0	0	0	38	66	0	192	0	0	0	0	192	0	0	0	0	0	0	0	0	0	0	0	0	0	0	0	0	0	0	0	0	0	0	0	0	0	0	0	0	0	1145	43	0	0	0	1188	0	0	0	0	0	0	0	0	0	0	0	0	0	0	0	0	0	0	0	0	0	0	1337	43	0	0	0	1380	0	1	0	0	0	0	0	0	0	2	0	1	1	0	0.8	"THIS ONE LEAK IS A NO III, WHICH WE ARE KEEPING AN EYE ON."	LAWERANCE J. RIPPER	9797322366	3/16/2004	3/24/2004		
2003	20030819	OILTON PUBLIC WORKS AUTHORITY	30526	101 W. MAIN PO BOX 400	OILTON		OK	74052						 OK	1	0	0	0	17	0	0	0	0	0	18	0	0	0	0	600	0	0	0	0	0	600	0	0	1	0	0	0	1	0	0	0	0	0	0	0	0	0	0	0	0	0	0	0	0	0	0	0	0	0	0	0	0	0	0	0	0	0	10	7	0	0	0	17	0	0	0	0	0	0	0	0	0	0	0	0	0	0	0	0	0	0	0	0	0	0	10	8	0	0	0	18	10	0	0	0	0	0	0	0	0	0	0	0	0	0	0	0	0	0	0	0	0	0	0	0	0	0	0	0	0	0	0	0	0	0	0	0	0	0	600	0	0	0	600	0	0	0	0	0	0	0	0	0	0	0	0	0	0	0	0	0	0	0	0	0	0	0	600	0	0	0	600	0	8	0	0	0	0	0	0	0	0	0	0	0	0	5.7		"BRUCE COLDIRON, OPWA SUPERVISOR"	9188623202	3/16/2004	3/31/2004		
2003	20030820	CULLMAN - JEFFERSON CO GAS DIST	2904	1550 CO. RD. 715	HANCEVILLE	CULLMAN	AL	35077						 AL	0	0	0	232	538	1	0	0	0	0	771	0	0	879	697	11269	0	0	0	0	0	12845	0	57	39	115	21	0	232	0	0	0	0	0	0	0	0	0	0	0	0	0	0	0	0	1	0	0	0	1	0	0	0	0	0	0	0	0	287	249	2	0	0	538	0	0	0	0	0	0	0	0	0	0	0	0	0	0	0	0	0	0	0	0	0	0	344	289	117	21	0	771	150	0	1539	28	5	4	0	1576	0	0	0	0	0	0	0	0	0	0	0	0	0	0	0	0	0	0	0	0	0	0	0	0	0	0	0	0	0	11068	201	0	0	0	11269	0	0	0	0	0	0	0	0	0	0	0	0	0	0	0	0	0	0	0	0	0	0	12607	229	5	4	0	12845	3	1	0	1	27	64	2	1	7	0	0	1	0	0	1.258		JASON FLYNN	2567371600	3/16/2004	3/24/2004		
2003	20030821	"AURORA GAS SYSTEMS, CITY OF"	882	231 E. MAIN	AURORA	CLOUD	KS	67417						 KS	0	0	0	11	0	0	0	0	0	0	11	0	0	0	88	0	0	0	0	0	0	88	0	1	10	0	0	0	11	0	0	0	0	0	0	0	0	0	0	0	0	0	0	0	0	0	0	0	0	0	0	0	0	0	0	0	0	0	0	0	0	0	0	0	0	0	0	0	0	0	0	0	0	0	0	0	0	0	0	0	0	0	0	0	0	0	1	10	0	0	0	11	0	0	0	88	0	0	0	88	0	0	0	0	0	0	0	0	0	0	0	0	0	0	0	0	0	0	0	0	0	0	0	0	0	0	0	0	0	0	0	0	0	0	0	0	0	0	0	0	0	0	0	0	0	0	0	0	0	0	0	0	0	0	0	0	0	0	88	0	0	0	88	0	0	0	0	0	1	0	0	0	0	0	1	0	0	0	NO SERVICES ADDED OR ELIMINATED IN YEAR 2003.	JOHNNY ADAMS	7356463391	3/16/2004	3/24/2004		
2003	20030822	OWATONNA PUBLIC UTILITIES	14410	208 S WALNUT AVE BOX 800	OWATONNA	STEELE	MN	55060						 MN	0	0	0	70	105	0	0	0	0	0	175	0	0	2	2232	6420	0	0	0	0	0	8654	0	9	45	10	6	0	70	0	0	0	0	0	0	0	0	0	0	0	0	0	0	0	0	0	0	0	0	0	0	0	0	0	0	0	0	0	63	33	9	0	0	105	0	0	0	0	0	0	0	0	0	0	0	0	0	0	0	0	0	0	0	0	0	0	72	78	19	6	0	175	75	0	1960	265	8	0	1	2234	0	0	0	0	0	0	0	0	0	0	0	0	0	0	0	0	0	0	0	0	0	0	0	0	0	0	0	0	0	6368	46	6	0	0	6420	0	0	0	0	0	0	0	0	0	0	0	0	0	0	0	0	0	0	0	0	0	0	8328	311	14	0	1	8654	0	0	0	0	1	6	0	0	0	0	0	0	0	0	0	UNACCOUNTED FOR GAS -1.2%	"DOUGLAS R. BENDORF, ENGINEERING TECHNICIAN"	5074512839	3/16/2004	3/24/2004		
2003	20030823	TITONKA MUNICIPAL GAS SYSTEM	19476	011 MAIN STREET	TITONKA	KOSSUTH	IA	50480						 IA	0	0	0	4	0	0	0	0	0	0	4	0	0	0	133	143	0	0	0	0	0	276	0	3	1	0	0	0	4	0	0	0	0	0	0	0	0	0	0	0	0	0	0	0	0	0	0	0	0	0	0	0	0	0	0	0	0	0	0	0	0	0	0	0	0	0	0	0	0	0	0	0	0	0	0	0	0	0	0	0	0	0	0	0	0	0	3	1	0	0	0	4	0	0	133	0	0	0	0	133	0	0	0	0	0	0	0	0	0	0	0	0	0	0	0	0	0	0	0	0	0	0	0	0	0	0	0	0	0	143	0	0	0	0	143	0	0	0	0	0	0	0	0	0	0	0	0	0	0	0	0	0	0	0	0	0	0	276	0	0	0	0	276	0	0	0	0	0	0	0	0	0	0	0	0	0	0	0		BARBARA ZWIEFEL	5159282850	3/16/2004	3/24/2004		
2003	20030824	C R G INC	2898	216 HIGH POINT RD. STE. 3	KNOX	CLARION	PA	16232						 PA	0	0	2	0	12	0	0	0	0	0	14	104	4	0	0	209	0	0	0	0	0	317	0	2	0	0	0	0	2	0	0	0	0	0	0	0	0	0	0	0	0	0	0	0	0	0	0	0	0	0	0	0	0	0	0	0	0	0	12	0	0	0	0	12	0	0	0	0	0	0	0	0	0	0	0	0	0	0	0	0	0	0	0	0	0	0	14	0	0	0	0	14	75	0	100	9	0	0	0	109	0	0	0	0	0	0	0	0	0	0	0	0	0	0	0	0	0	0	0	0	0	0	0	0	0	0	0	0	0	179	29	0	0	0	208	0	0	0	0	0	0	0	0	0	0	0	0	0	0	0	0	0	0	0	0	0	0	279	38	0	0	0	317	4	0	3	0	0	0	0	0	0	0	0	0	0	0	4.4		CAROLE S. STOVER	8147972342	3/16/2004	3/24/2004		
2003	20030825	SHELDON GAS CO	18272	12925 TWP. RD. 50	DUNKIRK	HARDIN	OH	45836						 OH	4	0	2	13	23	0	0	0	0	0	42	360	0	0	0	1038	0	0	0	0	0	1398	0	4	15	0	0	0	19	0	0	0	0	0	0	0	0	0	0	0	0	0	0	0	0	0	0	0	0	0	0	0	0	0	0	0	0	0	13	10	0	0	0	23	0	0	0	0	0	0	0	0	0	0	0	0	0	0	0	0	0	0	0	0	0	0	17	25	0	0	0	42	50	0	360	0	0	0	0	360	0	0	0	0	0	0	0	0	0	0	0	0	0	0	0	0	0	0	0	0	0	0	0	0	0	0	0	0	0	1038	0	0	0	0	1038	0	0	0	0	0	0	0	0	0	0	0	0	0	0	0	0	0	0	0	0	0	0	1398	0	0	0	0	1398	7	3	0	0	0	2	0	0	0	0	0	0	10	0	3		RICHARD WALDEN	4197592351	3/16/2004	3/24/2004		
2003	20030826	SUPERIOR WATER LIGHT & POWER CO	18752	2915 HILL AVE PO BOX 519 	SUPERIOR	DOUGLAS	WI	54880						 WI	0	0	0	92	184	0	0	0	0	0	276	0	0	72	1711	7973	0	0	9	0	0	9765	0	37	27	16	12	0	92	0	0	0	0	0	0	0	0	0	0	0	0	0	0	0	0	0	0	0	0	0	0	0	0	0	0	0	0	0	132	43	8	1	0	184	0	0	0	0	0	0	0	0	0	0	0	0	0	0	0	0	0	0	0	0	0	0	169	70	24	13	0	276	92	0	1722	54	4	3	0	1783	0	0	0	0	0	0	0	0	9	0	0	0	0	9	0	0	0	0	0	0	0	0	0	0	0	0	0	0	0	7848	123	2	0	0	7973	0	0	0	0	0	0	0	0	0	0	0	0	0	0	0	0	0	0	0	0	0	0	9579	177	6	3	0	9765	1	9	6	24	4	38	9	2	1	4	4	9	3	0	0.01		TOM C. DONOFRIO	7153956316	3/16/2004	3/24/2004		
2003	20030827	SUMITON GAS BOARD	18708	PO DRAWER 10	SUMITON	WALKER	AL	35148						 AL	0	0	0	32	17	0	0	0	0	0	49	393	0	0	1	1126	0	0	0	0	0	1520	0	0	14	18	0	0	32	0	0	0	0	0	0	0	0	0	0	0	0	0	0	0	0	0	0	0	0	0	0	0	0	0	0	0	0	0	9	8	0	0	0	17	0	0	0	0	0	0	0	0	0	0	0	0	0	0	0	0	0	0	0	0	0	0	9	22	18	0	0	49	50	0	393	1	0	0	0	394	0	0	0	0	0	0	0	0	0	0	0	0	0	0	0	0	0	0	0	0	0	0	0	0	0	0	0	0	0	1125	1	0	0	0	1126	0	0	0	0	0	0	0	0	0	0	0	0	0	0	0	0	0	0	0	0	0	0	1518	2	0	0	0	1520	0	0	0	0	0	0	0	0	0	0	10	0	0	0	0.82		"DON COCHRAN, JR."	2056786210	3/16/2004	3/24/2004		
2003	20030828	CRESCENT CITY NATURAL GAS	2872	115 NORTH SUMMIT STREET	CRESCENT	PUTNAM	FL	32112						 FL	0	0	0	90	43	0	0	0	0	0	133	0	0	198	240	1710	0	0	0	0	0	2148	0	25	50	5	0	0	80	0	0	0	0	0	0	0	0	0	0	0	0	0	0	0	0	0	0	0	0	0	0	0	0	0	0	0	0	0	43	0	0	0	0	43	0	0	0	0	0	0	0	0	10	0	0	0	0	10	0	0	0	0	0	0	0	0	78	50	5	0	0	133	70	0	231	0	0	0	0	231	0	0	0	0	0	0	0	0	0	0	0	0	0	0	0	0	0	0	0	0	0	0	0	0	0	0	0	0	0	1710	0	0	0	0	1710	0	0	0	0	0	0	0	0	198	0	0	0	0	198	0	9	0	0	0	0	9	0	2148	0	0	0	0	2148	0	3	0	3	5	10	0	2	0	5	7	8	0	0	2.18		IVE SAULS	3866981486	3/16/2004	3/24/2004		
2003	20030829	DEQUINCY GAS DEPARTMENT	3325	300 HOLLY STREET	DEQUINCY	CALCASIEU	LA	70633						 LA	0	0	0	38	2	0	0	0	17	0	57	0	0	0	1868	165	0	0	0	129	0	2162	0	33	5	0	0	0	38	0	0	0	0	0	0	0	0	0	0	0	0	0	0	0	0	0	0	0	0	0	0	2	0	0	0	0	2	0	15	2	0	0	0	17	0	0	0	0	0	0	0	0	0	0	0	0	0	0	0	0	0	0	0	0	0	0	50	7	0	0	0	57	50	0	1868	0	0	0	0	1868	0	0	0	0	0	0	0	0	0	0	0	0	0	0	0	0	0	0	0	0	0	0	165	0	0	0	0	165	0	129	0	0	0	0	129	0	0	0	0	0	0	0	0	0	0	0	0	0	0	0	0	0	0	0	0	0	0	2162	0	0	0	0	2162	0	0	0	0	0	4	0	0	0	0	0	14	1	0	1		EDDY DAHLQUIST	3377862231	3/16/2004	3/24/2004		
2003	20030830	"LANCASTER MUNICIPAL GAS CO, CITY OF"	11208	1424 CAMP GROUND ROAD	LANCASTER	FAIRFIELD	OH	43130						 OH	158	0	0	37	135	18	0	0	0	0	348	2722	0	0	605	10567	0	0	0	0	0	13894	0	86	80	28	1	0	195	0	0	0	0	0	0	0	0	0	0	0	0	0	0	0	2	10	6	0	0	18	0	0	0	0	0	0	0	0	56	73	6	0	0	135	0	0	0	0	0	0	0	0	0	0	0	0	0	0	0	0	0	0	0	0	0	0	144	163	40	1	0	348	16	0	8	3266	53	0	0	3327	0	0	0	0	0	0	0	0	0	0	0	0	0	0	0	0	0	0	0	0	0	0	0	0	0	0	0	0	0	8665	1874	27	1	0	10567	0	0	0	0	0	0	0	0	0	0	0	0	0	0	0	0	0	0	0	0	0	0	8673	5140	80	1	0	13894	11	31	2	0	3	2	6	1	5	9	1	0	59	0	2	"THIS REPORT HAS BEEN COMPLIED FROM RECORDS ON FILE WITH  THE LANCASTER MUNICIPAL GAS DEPARTMENT, 1424 CAMP GROUND, LANCASTER, OHIO 43130-9503.  EMPLOYEES WHO HELPED COMPILE INFORMATION FOR SAID REPORT ARE:    MR. BRUCE D. ALLMON-CONSTRUCTION SUPERVISOR  MR. MICHAEL J. BOWERS-CONSTRUCTION SUPERVISOR  MR. MICHAEL W. SMITH-ENGINEERING TECHNICIAN"	MICHAEL W. SMITH	7406876670	3/16/2004	3/24/2004		
2003	20030831	"MADISON GAS SYSTEM, CITY OF"	12024	132 NORTH MAIN STREET	MADISON	MORGAN	GA	30650						 GA	0	0	0	57	18	0	0	0	0	0	75	0	0	0	875	698	0	0	0	0	0	1573	0	18	39	0	0	0	57	0	0	0	0	0	0	0	0	0	0	0	0	0	0	0	0	0	0	0	0	0	0	0	0	0	0	0	0	0	13	2	3	0	0	18	0	0	0	0	0	0	0	0	0	0	0	0	0	0	0	0	0	0	0	0	0	0	31	41	3	0	0	75	0	0	846	29	0	0	0	875	0	0	0	0	0	0	0	0	0	0	0	0	0	0	0	0	0	0	0	0	0	0	0	0	0	0	0	0	0	649	48	1	0	0	698	0	0	0	0	0	0	0	0	0	0	0	0	0	0	0	0	0	0	0	0	0	0	1495	77	1	0	0	1573	1	1	0	0	0	1	0	3	0	6	0	0	0	0	1		RONNIE STOVALL	7063421216	3/16/2004	3/24/2004		
2003	20030832	BROWNSVILLE UTILITIES	1840	25 NORTH LAFAYETTE	BROWNSVILLE	HAYWOOD	TN	38012						 TN	0	0	0	186	16	0	0	0	0	0	202	0	0	0	5416	538	0	0	0	0	0	5954	0	138	47	1	0	0	186	0	0	0	0	0	0	0	0	0	0	0	0	0	0	0	0	0	0	0	0	0	0	0	0	0	0	0	0	0	16	0	0	0	0	16	0	0	0	0	0	0	0	0	0	0	0	0	0	0	0	0	0	0	0	0	0	0	154	47	1	0	0	202	175	0	5373	43	0	0	0	5416	0	0	0	0	0	0	0	0	0	0	0	0	0	0	0	0	0	0	0	0	0	0	0	0	0	0	0	0	0	538	0	0	0	0	538	0	0	0	0	0	0	0	0	0	0	0	0	0	0	0	0	0	0	0	0	0	0	5911	43	0	0	0	5954	5	2	0	0	0	0	4	39	1	19	0	3	10	0	1		FLOYD D. STEWART	7317728845	3/16/2004	3/24/2004		
2003	20030833	"SAWYER GAS DEPT, CITY OF"	18132	103 E. ROBINSON BOX 56	SAWYER	PRATT	KS	67134						 KS	0	0	0	3	0	0	0	0	0	0	3	0	0	0	126	0	0	0	0	0	0	126	0	3	0	0	0	0	3	0	0	0	0	0	0	0	0	0	0	0	0	0	0	0	0	0	0	0	0	0	0	0	0	0	0	0	0	0	0	0	0	0	0	0	0	0	0	0	0	0	0	0	0	0	0	0	0	0	0	0	0	0	0	0	0	0	3	0	0	0	0	3	10	0	0	126	0	0	0	126	0	0	0	0	0	0	0	0	0	0	0	0	0	0	0	0	0	0	0	0	0	0	0	0	0	0	0	0	0	0	0	0	0	0	0	0	0	0	0	0	0	0	0	0	0	0	0	0	0	0	0	0	0	0	0	0	0	0	126	0	0	0	126	0	4	0	0	0	8	0	0	0	3	1	16	0	0	9		BARBARA SHORT/JUAN VELASQUEZ	6205942551	3/16/2004	3/24/2004		
2003	20030834	CITY OF WALL LAKE	31416	209 W 2ND STREET	WALL LAKE 	SAC	IA	51466						 IA	0	0	0	0	6	0	0	0	0	0	6	0	0	0	0	374	0	0	0	0	0	374	0	0	0	0	0	0	0	0	0	0	0	0	0	0	0	0	0	0	0	0	0	0	0	0	0	0	0	0	0	0	0	0	0	0	0	0	5	1	0	0	0	6	0	0	0	0	0	0	0	0	0	0	0	0	0	0	0	0	0	0	0	0	0	0	5	1	0	0	0	6	100	0	0	0	0	0	0	0	0	0	0	0	0	0	0	0	0	0	0	0	0	0	0	0	0	0	0	0	0	0	0	0	0	0	0	0	0	370	4	0	0	0	374	0	0	0	0	0	0	0	0	0	0	0	0	0	0	0	0	0	0	0	0	0	0	370	4	0	0	0	374	0	0	0	0	0	0	0	0	0	0	0	0	0	0	0		MARK DETERMANN	7126642216	3/16/2004	3/24/2004		
2003	20030835	WOODHULL MUNICIPAL GAS SYSTEM	22840	PO BOX 173	WOODHULL 	STEUBEN	NY	14898						 NY	0	0	0	0	5	0	0	0	0	0	5	0	0	0	0	161	0	0	0	0	0	161	0	0	0	0	0	0	0	0	0	0	0	0	0	0	0	0	0	0	0	0	0	0	0	0	0	0	0	0	0	4	1	0	0	0	5	0	0	0	0	0	0	0	0	0	0	0	0	0	0	0	0	0	0	0	0	0	0	0	0	0	0	0	0	0	4	1	0	0	0	5	77	0	0	0	0	0	0	0	0	0	0	0	0	0	0	0	0	0	0	0	0	0	0	0	0	0	0	0	0	0	0	0	0	0	0	0	0	161	1	0	0	0	162	0	0	0	0	0	0	0	0	0	0	0	0	0	0	0	0	0	0	0	0	0	0	161	1	0	0	0	162	0	0	0	0	0	0	0	0	0	0	0	0	0	0	2		"KELLY M. PETERS, BUSINESS MANAGER"	6074585220	3/16/2004	3/31/2004		
2003	20030836	"AUGUSTA, CITY OF"	864	219 MAIN ST PO BOX 85	AUGUSTA	BRACKEN	KY	41002						 KY	0	0	0	19	11	0	0	0	0	0	30	0	0	0	374	176	0	0	0	0	0	550	0	0	19	0	0	0	19	0	0	0	0	0	0	0	0	0	0	0	0	0	0	0	0	0	0	0	0	0	0	0	0	0	0	0	0	0	5	6	0	0	0	11	0	0	0	0	0	0	0	0	0	0	0	0	0	0	0	0	0	0	0	0	0	0	5	25	0	0	0	30	12	0	370	4	0	0	0	374	0	0	0	0	0	0	0	0	0	0	0	0	0	0	0	0	0	0	0	0	0	0	0	0	0	0	0	0	0	176	0	0	0	0	176	0	0	0	0	0	0	0	0	0	0	0	0	0	0	0	0	0	0	0	0	0	0	546	4	0	0	0	550	0	0	0	0	0	0	0	0	0	0	0	32	10	0	3	"3 MILES 4"" STEEL MAIN WAS RE-LOCATED DO TO HIGHWAY CONSTRUCTION."	BARRY BRATTON	6067562183	3/16/2004	3/24/2004		
2003	20030837	"WASHINGTON PARISH, GAS UTIL DIST # 2 OF"	6240	215 ELEVENTH AVENUE	FRANKLINTON	WASHINGTON	LA	70438						 LA	0	0	0	0	174	0	0	0	0	0	174	0	0	0	0	1140	0	0	0	0	0	1140	0	0	0	0	0	0	0	0	0	0	0	0	0	0	0	0	0	0	0	0	0	0	0	0	0	0	0	0	0	136	28	0	0	0	164	0	10	0	0	0	0	10	0	0	0	0	0	0	0	0	0	0	0	0	0	0	0	0	0	0	0	0	0	0	146	28	0	0	0	174	30	0	0	0	0	0	0	0	0	0	0	0	0	0	0	0	0	0	0	0	0	0	0	0	0	0	0	0	0	0	1037	0	0	0	0	1037	0	103	0	0	0	0	103	0	0	0	0	0	0	0	0	0	0	0	0	0	0	0	0	0	0	0	0	0	0	1140	0	0	0	0	1140	4	3	0	3	0	0	0	0	4	21	0	0	0	0	0		CHELLIE GODEAUX	3372321685	3/16/2004	3/24/2004		
2003	20030838	CANTON MUNICIPAL UTILITY	2060	225 N. HARGON STREET	CANTON	MADISON	MS	39046						 MS	0	0	0	11	109	25	0	0	0	0	145	46	280	371	213	4152	1	0	0	0	0	5063	0	9	0	2	0	0	11	0	0	0	0	0	0	0	0	0	0	0	0	0	0	0	14	11	0	0	0	25	0	0	0	0	0	0	0	0	47	48	14	0	0	109	0	0	0	0	0	0	0	0	0	0	0	0	0	0	0	0	0	0	0	0	0	0	70	59	16	0	0	145	125	0	910	0	0	0	1	911	0	0	0	0	0	0	0	0	0	0	0	0	0	0	0	0	0	1	0	0	1	0	0	0	0	0	0	0	0	4121	29	1	0	0	4151	0	0	0	0	0	0	0	0	0	0	0	0	0	0	0	0	0	0	0	0	0	0	5031	29	2	0	1	5063	0	0	0	0	0	0	0	0	0	0	0	0	0	0	5		KYLE CANOY	6018555462	3/16/2004	3/24/2004		
2003	20030839	GROVE MUNICIPAL SERVICES AUTHORITY	30563	PO BOX 451386	GROVE	DELAWARE	OK	74345						 OK	0	0	0	16	109	0	0	0	0	0	125	0	0	0	1214	2828	0	0	0	0	0	4042	0	12	4	0	0	0	16	0	0	0	0	0	0	0	0	0	0	0	0	0	0	0	0	0	0	0	0	0	0	0	0	0	0	0	0	0	75	33	1	0	0	109	0	0	0	0	0	0	0	0	0	0	0	0	0	0	0	0	0	0	0	0	0	0	87	37	1	0	0	125	75	0	1202	12	0	0	0	1214	0	0	0	0	0	0	0	0	0	0	0	0	0	0	0	0	0	0	0	0	0	0	0	0	0	0	0	0	0	2813	15	0	0	0	2828	0	0	0	0	0	0	0	0	0	0	0	0	0	0	0	0	0	0	0	0	0	0	4015	27	0	0	0	4042	0	0	0	0	0	0	1	0	0	0	2	4	26	0	2.8		DUANE BROWN	9187867294	3/16/2004	3/24/2004		
2003	20030840	"WESTLAKE, TOWN OF"	22500	1001 MULBERRY STREET	WESTLAKE	CALCASIEU	LA	70669	1004 HILMA 	WESTLAKE	CALCASIEU	LA	70669	 LA	0	0	0	59	48	0	0	0	0	0	107	0	0	0	2262	2249	0	0	0	0	0	4511	0	59	0	0	0	0	59	0	0	0	0	0	0	0	0	0	0	0	0	0	0	0	0	0	0	0	0	0	0	0	0	0	0	0	0	0	44	4	0	0	0	48	0	0	0	0	0	0	0	0	0	0	0	0	0	0	0	0	0	0	0	0	0	0	103	4	0	0	0	107	30	0	2262	0	0	0	0	2262	0	0	0	0	0	0	0	0	0	0	0	0	0	0	0	0	0	0	0	0	0	0	0	0	0	0	0	0	0	2249	0	0	0	0	2249	0	0	0	0	0	0	0	0	0	0	0	0	0	0	0	0	0	0	0	0	0	0	4511	0	0	0	0	4511	2	10	0	0	3	11	0	0	0	0	0	0	0	0	1.29		DELBERT WILSON	3374366857	3/16/2004	3/25/2004		
2003	20030841	CITY OF HENNING	31433	"607 2ND ST,PO BOX 55"	HENNING 	OTTERTAIL	MN	56551						 MN	0	0	0	0	22	0	0	0	0	0	22	0	0	0	0	385	0	0	0	0	0	385	0	0	0	0	0	0	0	0	0	0	0	0	0	0	0	0	0	0	0	0	0	0	0	0	0	0	0	0	0	16	4	2	0	0	22	0	0	0	0	0	0	0	0	0	0	0	0	0	0	0	0	0	0	0	0	0	0	0	0	0	0	0	0	0	16	4	2	0	0	22	0	0	0	0	0	0	0	0	0	0	0	0	0	0	0	0	0	0	0	0	0	0	0	0	0	0	0	0	0	0	381	4	0	0	0	385	0	0	0	0	0	0	0	0	0	0	0	0	0	0	0	0	0	0	0	0	0	0	0	0	0	0	0	0	0	381	4	0	0	0	385	0	0	0	0	0	0	0	0	0	2	0	0	0	0	0		JERRY FISKUM	2185832402	3/16/2004	3/25/2004		
2003	20030842	YALE GAS CO	24010	209 NORTH MAIN STREET	YALE	PAYNE	OK	74085						 OK	2	0	0	6	15	0	0	0	0	0	23	400	0	0	431	0	0	0	0	0	0	831	0	3	5	0	0	0	8	0	0	0	0	0	0	0	0	0	0	0	0	0	0	0	0	0	0	0	0	0	0	0	0	0	0	0	0	0	9	6	0	0	0	15	0	0	0	0	0	0	0	0	0	0	0	0	0	0	0	0	0	0	0	0	0	0	12	11	0	0	0	23	25	0	400	0	0	0	0	400	0	0	0	0	0	0	0	0	0	0	0	0	0	0	0	0	0	0	0	0	0	0	0	0	0	0	0	0	0	431	0	0	0	0	431	0	0	0	0	0	0	0	0	0	0	0	0	0	0	0	0	0	0	0	0	0	0	831	0	0	0	0	831	100	75	0	0	0	0	0	0	0	0	0	0	50	0	17.6	"THE CITY HAS REPLACED APPROXIMATELY 3 MILES OF MAIN LINE ON WHICH THERE WERE APPROXIMATELY 75 SERVICE LINES. THE MAIN LINE LEAKS DESCIBED ABOVE WERE THE ESTIMATED NUMBER OF LEAKS ALONG THE MAIN LINES REPLACED.  HOWEVER, IT WAS IMPOSSIBLE TO DETERMINE THE EXACT NUMBER.  AN ADDITIONAL SECTION OF APPROXIMATELY 1 MILE OF MAIN LINE IS BEING REPLACED WITH AN ESTIMATED NUMBER OF 50 LEAKS.  THE REPLACEMENT WILL BE COMPLETED IN MARCH, 2004."	DANIEL R. GRIPE	9183872405	3/16/2004	3/25/2004		
2003	20030843	"DUBLIN, CITY OF"	3560	PO BOX 690	DUBLIN	LAURENS	GA	31040						 GA	0	0	0	132	65	31	0	0	0	0	228	0	0	0	14	2758	0	0	0	0	0	2772	0	33	10	89	0	0	132	0	0	0	0	0	0	0	0	0	0	0	0	0	0	0	0	29	2	0	0	31	0	0	0	0	0	0	0	0	65	0	0	0	0	65	0	0	0	0	0	0	0	0	0	0	0	0	0	0	0	0	0	0	0	0	0	0	98	39	91	0	0	228	75	0	0	8	2	1	0	11	0	0	0	0	0	0	0	0	0	0	0	0	0	0	0	0	0	0	0	0	0	0	0	0	0	0	0	0	0	2758	3	0	0	0	2761	0	0	0	0	0	0	0	0	0	0	0	0	0	0	0	0	0	0	0	0	0	0	2758	11	2	1	0	2772	0	4	0	0	4	1	2	0	11	0	14	35	0	0	3.4	"PART B-2  PART B-2 CONTAINS ALL 2 1/4"" CAST IRON MAINS INSERTED WITH 1 1/4"" PE SINCE NOVEMBER 1, 2000  PART B-3  APPROXIMATE NUMBER OF SERVICE LINES IS 3500 TO 3800.  THE QUANTITY OF SERVICES IS STILL IN THE PROCESS OF BEING REASSESSED.  STELL SERVICE LINES 1"" OR LESS IS BEING INSERTED WITH PE PIPE.  PART B-3 CONTAINS ALL NEW SERVICES AND ALL SERVICES INSERTED JANUARY 1, 1998 TO DECEMBER 31, 2003.  AT THIS TIME, WE ESTIMATE THERE ARE APPROXIMATELY 387 SERVICES LEFT FOR INSPECTION AND/OR CAST IRON REPLACEMENT.  ALL WORK WILL BE COMPLETED THIS YEAR.  "	MICHAEL CLAY	4782775048	3/16/2004	3/25/2004		
2003	20030844	"JOAQUIN, CITY OF"	9245	PO BOX 237 	JOAQUIN	SHELBY	TX	75954						 TX	0	0	0	0	0	14	0	0	0	0	14	0	0	0	0	0	254	0	0	0	0	254	0	0	0	0	0	0	0	0	0	0	0	0	0	0	0	0	0	0	0	0	0	0	0	0	0	0	0	0	0	0	0	0	0	0	0	0	14	0	0	0	0	14	0	0	0	0	0	0	0	0	0	0	0	0	0	0	0	0	0	0	0	0	0	0	14	0	0	0	0	14	20	0	0	0	0	0	0	0	0	0	0	0	0	0	0	0	0	0	0	0	0	0	0	0	0	0	0	0	0	0	0	0	0	0	0	0	0	253	1	0	0	0	254	0	0	0	0	0	0	0	0	0	0	0	0	0	0	0	0	0	0	0	0	0	0	253	1	0	0	0	254	0	2	2	1	0	0	0	0	0	0	1	2	0	0	0	UNACCOUNTED FOR GAS -2%	TERESA HUGHES	9362693021	3/16/2004	3/25/2004		
2003	20030845	CORNING MUNICIPAL UTILITIES	2796	501 BENTON AVENUE	CORNING 	ADAMS	IA	50841						 IA	0	0	0	28	3	0	0	0	0	0	31	0	0	0	905	49	0	0	0	0	0	954	0	13	15	0	0	0	28	0	0	0	0	0	0	0	0	0	0	0	0	0	0	0	0	0	0	0	0	0	0	0	0	0	0	0	0	0	3	0	0	0	0	3	0	0	0	0	0	0	0	0	0	0	0	0	0	0	0	0	0	0	0	0	0	0	16	15	0	0	0	31	0	0	880	26	0	0	0	906	0	0	0	0	0	0	0	0	0	0	0	0	0	0	0	0	0	0	0	0	0	0	0	0	0	0	0	0	0	48	0	0	0	0	48	0	0	0	0	0	0	0	0	0	0	0	0	0	0	0	0	0	0	0	0	0	0	928	26	0	0	0	954	0	0	0	0	0	0	0	0	0	0	0	0	0	0	1.4		"BOB CLINE, GENERAL MANAGER"	6413223920	3/16/2004	3/31/2004		
2003	20030846	CHAMBERSBURG GAS DEPT	2236	100 SOUTH SECOND STREET	CHAMBERBURG	FRANKLIN	PA	17201						 PA	0	0	0	35	13	16	0	0	0	0	64	0	0	2176	1307	1319	0	0	0	0	0	4802	0	6	17	10	2	0	35	0	0	0	0	0	0	0	0	0	0	0	0	0	0	0	0	11	4	1	0	16	0	0	0	0	0	0	0	0	5	3	5	0	0	13	0	0	0	0	0	0	0	0	0	0	0	0	0	0	0	0	0	0	0	0	0	0	11	31	19	3	0	64	50	0	246	3059	178	0	0	3483	0	0	0	0	0	0	0	0	0	0	0	0	0	0	0	0	0	0	0	0	0	0	0	0	0	0	0	0	0	974	339	6	0	0	1319	0	0	0	0	0	0	0	0	0	0	0	0	0	0	0	0	0	0	0	0	0	0	1220	3398	184	0	0	4802	3	15	3	0	1	0	0	0	0	0	2	0	2	0	1.5		JOHN LEARY	7172613234	3/9/2004	3/25/2004		
2003	20030847	"DAPHNE UTILITY DEPT, CITY OF"	3130	PO BOX 2550	DAPHNE	BALDWIN	AL	36526						 AL	0	0	0	53	125	0	0	0	0	0	178	0	0	0	793	1983	0	0	0	0	0	2776	0	27	2	24	0	0	53	0	0	0	0	0	0	0	0	0	0	0	0	0	0	0	0	0	0	0	0	0	0	0	0	0	0	0	0	0	94	31	0	0	0	125	0	0	0	0	0	0	0	0	0	0	0	0	0	0	0	0	0	0	0	0	0	0	121	33	24	0	0	178	100	0	793	0	0	0	0	793	0	0	0	0	0	0	0	0	0	0	0	0	0	0	0	0	0	0	0	0	0	0	0	0	0	0	0	0	0	1938	45	0	0	0	1983	0	0	0	0	0	0	0	0	0	0	0	0	0	0	0	0	0	0	0	0	0	0	2731	45	0	0	0	2776	0	0	0	0	1	8	3	13	0	9	2	1	65	0	4		DONNIE DOUGLAS	2516262628	3/16/2004	3/25/2004		
2003	20030848	PARIS - HENRY COUNTY PUBLIC UTIL DIST	15126	215 W. WOOD STREET	PARIS 	HENRY	TN	38242						 KY TN	0	0	0	196	243	0	0	0	0	0	439	0	0	0	2277	4343	0	0	0	0	0	6620	0	88	19	89	0	0	196	0	0	0	0	0	0	0	0	0	0	0	0	0	0	0	0	0	0	0	0	0	0	0	0	0	0	0	0	0	212	31	0	0	0	243	0	0	0	0	0	0	0	0	0	0	0	0	0	0	0	0	0	0	0	0	0	0	300	50	89	0	0	439	110	0	2256	17	4	0	0	2277	0	0	0	0	0	0	0	0	0	0	0	0	0	0	0	0	0	0	0	0	0	0	4339	3	1	0	0	4343	0	0	0	0	0	0	0	0	0	0	0	0	0	0	0	0	0	0	0	0	0	0	0	0	0	0	0	0	0	6595	20	5	0	0	6620	2	5	0	0	0	0	0	0	0	22	0	8	0	0	0	UNACCOUNTED FOR GAS -.82%	GLENN L. JACKSON	7316425635	3/16/2004	3/25/2004		
2003	20030849	JONES CITY MUNICIPAL GAS SYSTEM	9290	631 ALABAMA BOX 720 	JONES	OKLAHOMA	OK	73049						 OK	0	0	0	6	19	0	0	0	0	0	25	0	0	20	38	742	0	0	0	0	0	800	0	0	0	6	0	0	6	0	0	0	0	0	0	0	0	0	0	0	0	0	0	0	0	0	0	0	0	0	0	1	0	0	0	0	1	0	7	11	0	0	0	18	0	0	0	0	0	0	0	0	0	0	0	0	0	0	0	0	0	0	0	0	0	0	8	11	6	0	0	25	15	0	0	58	0	0	0	58	0	0	0	0	0	0	0	0	0	0	0	0	0	0	0	0	0	0	0	0	0	0	0	0	0	0	0	0	0	0	742	0	0	0	742	0	0	0	0	0	0	0	0	0	0	0	0	0	0	0	0	0	0	0	0	0	0	0	800	0	0	0	800	0	0	0	0	0	0	0	0	0	5	0	0	1	0	0	UNACCOUNTED FOR GAS -4.6%    THE ONE MILE OF P.V.C. GAS PIPE HAS BEEN REPLACED WITH POLY GAS PIPE COMPLETED 2-19-04	"LES WARREN, PUBLIC WORKS DIRECTOR"	4053994949	3/10/2004	3/31/2004		
2003	20030850	"EAST FELICIANA PARISH, GAS UTIL DIST # 2 OF"	6226	PO BOX 9	CLINTON		LA	70722						LA	0	0	0	0	125	0	0	0	0	0	125	0	0	0	0	980	0	0	0	0	0	980	0	0	0	0	0	0	0	0	0	0	0	0	0	0	0	0	0	0	0	0	0	0	0	0	0	0	0	0	0	71	41	0	0	0	112	0	5	8	0	0	0	13	0	0	0	0	0	0	0	0	0	0	0	0	0	0	0	0	0	0	0	0	0	0	76	49	0	0	0	125	20	0	0	0	0	0	0	0	0	0	0	0	0	0	0	0	0	0	0	0	0	0	0	0	0	0	0	0	0	0	872	0	0	0	0	872	0	108	0	0	0	0	108	0	0	0	0	0	0	0	0	0	0	0	0	0	0	0	0	0	0	0	0	0	0	980	0	0	0	0	980	0	4	0	0	0	0	0	0	6	6	0	0	0	0	1.5		"MICHAEL R BRADFORD, MANAGER"	2256839416	3/16/2004	6/24/2004		
2003	20030851	HARDEMAN - FAYETTE UTILITY DISTRICT	7060	15175 HWY 57	MOSCOW	FAYETTE	TN	38057						TN	0	0	0	65	233	0	0	0	0	0	298	0	0	0	926	3029	0	0	0	0	0	3955	0	28	38	0	0	0	66	0	0	0	0	0	0	0	0	0	0	0	0	0	0	0	0	0	0	0	0	0	0	0	0	0	0	0	0	0	178	48	6	0	0	232	0	0	0	0	0	0	0	0	0	0	0	0	0	0	0	0	0	0	0	0	0	0	206	86	6	0	0	298	255	0	914	12	0	0	0	926	0	0	0	0	0	0	0	0	0	0	0	0	0	0	0	0	0	0	0	0	0	0	0	0	0	0	0	0	0	3026	3	0	0	0	3029	0	0	0	0	0	0	0	0	0	0	0	0	0	0	0	0	0	0	0	0	0	0	3940	15	0	0	0	3955	0	0	0	0	5	18	0	0	0	0	0	0	0	0		UNACCOUNTED FOR GAS -1.06%	S.DONNIE LEGGETT	9018776236	3/16/2004	6/23/2004		
2003	20030852	PROVENCAL NATURAL GAS SERVICE	15889	1968 HWY 117	PROVENCAL		LA	71468						LA	0	0	0	21	0	0	0	0	0	0	21	0	0	0	224	5	0	0	0	0	0	229	0	21	0	0	0	0	21	0	0	0	0	0	0	0	0	0	0	0	0	0	0	0	0	0	0	0	0	0	0	0	0	0	0	0	0	0	0	0	0	0	0	0	0	0	0	0	0	0	0	0	0	0	0	0	0	0	0	0	0	0	0	0	0	0	21	0	0	0	0	21	0	0	20	0	0	0	0	20	0	0	0	0	0	0	0	0	0	0	0	0	0	0	0	0	0	0	0	0	0	0	0	0	0	0	0	0	0	2	0	0	0	0	2	0	0	0	0	0	0	0	0	0	0	0	0	0	0	0	0	0	0	0	0	0	0	22	0	0	0	0	22	0	0	0	0	0	0	0	0	0	0	0	0	0	0	0	"THE NEWLY INSTALLED ""CATHODIC PROTECTION"" SYSTEM HAS SEEMINGLY ELIMINATED ANY SIGNIFICANT PROBLEMS WITH OUR GAS SYSTEM.  AT THIS TIME (REPORTING PERIOD) WE HAVE HAD NO PRIMARY LEAKS ASSOCIATED WITH OUR SYSTEM, OR HAS MADE AN IMPACT THAT IS NOTICABLE TO THE VILLAGE OF PROVENCAL."	RANDY DUPREE	3184728767	3/16/2004	6/15/2004		
2003	20030853	KSL	31069	PO BOX 80/TA-3-223	LOS ALAMOS	LOS ALAMOS	NM	87544						 NM	0	0	4	41	16	0	0	0	0	0	61	0	0	0	285	145	0	0	0	0	0	430	0	20	16	4	6	0	46	0	0	0	0	0	0	0	0	0	0	0	0	0	0	0	0	0	0	0	0	0	0	0	0	0	0	0	0	0	6	8	1	0	0	15	0	0	0	0	0	0	0	0	0	0	0	0	0	0	0	0	0	0	0	0	0	0	26	24	5	6	0	61	65	0	235	47	26	0	0	308	0	0	0	0	0	0	0	0	0	0	0	0	0	0	0	0	0	0	0	0	0	0	0	0	0	0	0	0	0	0	0	0	0	0	0	0	0	0	0	0	0	0	0	0	0	0	0	0	0	0	0	0	0	0	0	0	0	235	47	26	0	0	308	0	0	0	0	2	0	0	0	0	0	29	63	55	94	0		ROBERT A KEOWN	5056655270	3/16/2004	9/10/2004		
2003	20030854	"MONROE NATURAL GAS DEPT, CITY OF"	12672	300 WEST CROWELL STREET	MONROE	UNION	NC	28112						 NC	0	0	0	137	177	0	0	0	0	0	314	0	0	0	3747	5253	0	0	0	0	0	9000	0	86	17	35	0	0	138	0	0	0	0	0	0	0	0	0	0	0	0	0	0	0	0	0	0	0	0	0	0	0	0	0	0	0	0	0	134	42	0	0	0	176	0	0	0	0	0	0	0	0	0	0	0	0	0	0	0	0	0	0	0	0	0	0	220	59	35	0	0	314	100	0	3667	74	6	0	0	3747	0	0	0	0	0	0	0	0	0	0	0	0	0	0	0	0	0	0	0	0	0	0	0	0	0	0	0	0	0	5210	43	0	0	0	5253	0	0	0	0	0	0	0	0	0	0	0	0	0	0	0	0	0	0	0	0	0	0	8877	117	6	0	0	9000	4	2	0	0	6	19	2	0	1	1	0	0	3	0	0	UNACCOUNTED FOR GAS -1.7%	STEVE ROGERS/LYNN TRAWICK	7042824611	3/16/2004	3/25/2004		
2003	20030855	MOBILE GAS SERVICE CORP	12642	2828 DAUPHIN ST BOX 2248	MOBILE	MOBILE	AL	36652						 AL	0	0	0	983	833	244	0	0	0	0	2060	487	0	0	34532	74405	44	0	0	0	0	109468	0	661	181	98	17	26	983	0	0	0	0	0	0	0	0	0	0	0	0	0	0	0	128	72	32	11	1	244	0	0	0	0	0	0	0	0	666	127	40	0	0	833	0	0	0	0	0	0	0	0	0	0	0	0	0	0	0	0	0	0	0	0	0	0	1455	380	170	28	27	2060	100	0	34102	860	43	10	4	35019	0	0	0	0	0	0	0	0	0	0	0	0	0	0	0	0	0	43	0	1	44	0	0	0	0	0	0	0	0	73450	942	10	3	0	74405	0	0	0	0	0	0	0	0	0	0	0	0	0	0	0	0	0	0	0	0	0	0	107552	1802	96	13	5	109468	135	229	2	28	39	214	8	36	137	956	3	32	741	0	0.6	"PART C: THIS SECTION UNDER SERVICES INCLUDES PIPELINE, METERS, REGULATORS, ETC."	PETER A. KEEGAN	2514504759	3/16/2004	3/25/2004		
2003	20030856	"TAMMS MUNICIPAL GAS SYSTEM, VILLAGE OF"	19070	425 FRONT & RUSSELL ST	TAMMS	ALEXANDER	IL	62988						 IL	0	0	0	12	20	0	0	0	0	0	32	0	0	0	0	370	0	0	0	0	0	370	0	3	9	0	0	0	12	0	0	0	0	0	0	0	0	0	0	0	0	0	0	0	0	0	0	0	0	0	0	14	0	0	0	0	14	0	2	4	0	0	0	6	0	0	0	0	0	0	0	0	0	0	0	0	0	0	0	0	0	0	0	0	0	0	19	13	0	0	0	32	65	0	0	0	0	0	0	0	0	0	0	0	0	0	0	0	0	0	0	0	0	0	0	0	0	0	0	0	0	0	323	4	0	0	0	327	0	40	2	1	0	0	43	0	0	0	0	0	0	0	0	0	0	0	0	0	0	0	0	0	0	0	0	0	0	363	6	1	0	0	370	0	1	0	0	0	3	0	0	0	0	0	3	0	0	0		BILL STIFF	6187472353	3/16/2004	3/25/2004		
2003	20030857	AMERENCILCO	2200	300 LIBERTY STREET	PEORIA		IL	61602						 IL	0	0	0	1908	1649	0	0	0	0	0	3557	0	0	0	60002	142101	0	0	0	0	0	202103	0	1073	481	247	74	33	1908	0	0	0	0	0	0	0	0	0	0	0	0	0	0	0	0	0	0	0	0	0	0	0	0	0	0	0	0	0	1284	272	93	0	0	1649	0	0	0	0	0	0	0	0	0	0	0	0	0	0	0	0	0	0	0	0	0	0	2357	753	340	74	33	3557	88	0	54263	5568	141	28	2	60002	0	0	0	0	0	0	0	0	0	0	0	0	0	0	0	0	0	0	0	0	0	0	0	0	0	0	0	0	0	141107	919	67	8	0	142101	0	0	0	0	0	0	0	0	0	0	0	0	0	0	0	0	0	0	0	0	0	0	195370	6487	208	36	2	202103	14	65	13	42	70	474	6	8	152	625	36	53	8	0	1.7639		"WENDY COYLE, SUPERVISING ENGINEER"	3096934875	3/16/2004	8/5/2004		
2003	20030858	KNOXVILLE UTILITIES BOARD	10310	4505 MIDDLEBROOK PIKE	KNOXVILLE		TN	37921						 TN	0	0	0	273	1642	50	56	0	0	0	2021	0	0	0	5792	78250	1	5	0	0	0	84048	0	131	24	58	38	22	273	0	0	18	38	0	0	56	0	0	0	0	0	0	0	0	0	7	39	4	0	50	0	0	0	0	0	0	0	0	1156	234	233	19	0	1642	0	0	0	0	0	0	0	0	0	0	0	0	0	0	0	0	0	0	0	0	0	0	1287	283	368	61	22	2021	100	0	3541	2148	93	10	0	5792	0	0	0	4	1	0	5	0	0	0	0	0	0	0	0	0	0	1	0	0	1	0	0	0	0	0	0	0	0	76456	1643	147	4	0	78250	0	0	0	0	0	0	0	0	0	0	0	0	0	0	0	0	0	0	0	0	0	0	79997	3791	245	15	0	84048	18	16	2	10	127	421	3	19	36	104	52	375	0	0	0.5		"LAWRENCE J. THOMPSON, III"	8655582727	3/16/2004	3/25/2004		
2003	20030859	MASON MUNICIPLE GAS SYSTEM	12222	12162 MAIN STREET	MASON	TIPTON	TN	3804						 TN	0	0	0	4	30	0	0	0	0	0	34	0	0	0	91	348	0	0	0	0	0	439	0	3	1	0	0	0	4	0	0	0	0	0	0	0	0	0	0	0	0	0	0	0	0	0	0	0	0	0	0	0	0	0	0	0	0	0	16	13	1	0	0	30	0	0	0	0	0	0	0	0	0	0	0	0	0	0	0	0	0	0	0	0	0	0	19	14	1	0	0	34	0	0	91	0	0	0	0	91	0	0	0	0	0	0	0	0	0	0	0	0	0	0	0	0	0	0	0	0	0	0	0	0	0	0	0	0	0	347	1	0	0	0	348	0	0	0	0	0	0	0	0	0	0	0	0	0	0	0	0	0	0	0	0	0	0	438	1	0	0	0	439	0	0	0	0	0	0	0	0	0	0	0	0	0	0	1		THOMAS F. WHITAKER	9014122672	3/16/2004	3/31/2004		
2003	20030860	EASTON UTILITIES COMMISSION	4190	201 N. WASH. ST BOX 1189	EASTON	TALBOT	MD	21601						 MD	3	0	0	20	41	3	2	0	0	0	69	82	0	0	770	2197	0	0	1	0	0	3050	0	14	9	0	0	0	23	0	0	0	2	0	0	2	0	0	0	0	0	0	0	0	0	2	1	0	0	3	0	0	0	0	0	0	0	0	19	19	3	0	0	41	0	0	0	0	0	0	0	0	0	0	0	0	0	0	0	0	0	0	0	0	0	0	33	30	6	0	0	69	92	0	750	102	0	0	0	852	0	0	0	0	0	0	0	0	1	0	0	0	0	1	0	0	0	0	0	0	0	0	0	0	0	0	0	0	0	1899	295	3	0	0	2197	0	0	0	0	0	0	0	0	0	0	0	0	0	0	0	0	0	0	0	0	0	0	2650	397	3	0	0	3050	1	62	0	0	7	6	0	0	0	0	0	0	0	0	3.5		JAMES P. CROWLEY	4107639492	3/16/2004	3/25/2004		
2003	20030861	"GASCO DISTRIBUTION SYSTEMS, INC"	30641	605 SUNSET TRAIL	JELLICO 	CAMPBELL	TN	37762	4445 EAST PIKE	ZANESVILLE	MUSKINGUM	OH	43701	 TN KY	0	0	0	0	29	0	0	0	0	0	29	0	0	0	0	589	0	0	0	0	0	589	0	0	0	0	0	0	0	0	0	0	0	0	0	0	0	0	0	0	0	0	0	0	0	0	0	0	0	0	0	0	0	0	0	0	0	0	17	12	0	0	0	29	0	0	0	0	0	0	0	0	0	0	0	0	0	0	0	0	0	0	0	0	0	0	17	12	0	0	0	29	60	0	0	0	0	0	0	0	0	0	0	0	0	0	0	0	0	0	0	0	0	0	0	0	0	0	0	0	0	0	0	0	0	0	0	0	0	570	0	19	0	0	589	0	0	0	0	0	0	0	0	0	0	0	0	0	0	0	0	0	0	0	0	0	0	570	0	19	0	0	589	0	0	0	0	2	5	0	0	0	0	0	0	0	0	0	JELLICO DIVISION	"KEN LEPAGE, DIVISION MANGER"	7404546198	3/16/2004	3/25/2004		
2003	20030862	"GASCO DISTRIBUTION SYSTEMS OF KY, INC."	26359	1014 N CROSS ST BOX 655 	ALBANY	CLINTON	KY	42602	444 EAST PIKE	ZANESVILLE 	MUSKINGUM	OH	43701	 TN	0	0	0	0	5	0	0	0	0	0	5	0	0	0	0	41	0	0	0	0	0	41	0	0	0	0	0	0	0	0	0	0	0	0	0	0	0	0	0	0	0	0	0	0	0	0	0	0	0	0	0	0	0	0	0	0	0	0	0	0	5	0	0	5	0	0	0	0	0	0	0	0	0	0	0	0	0	0	0	0	0	0	0	0	0	0	0	0	5	0	0	5	100	0	0	0	0	0	0	0	0	0	0	0	0	0	0	0	0	0	0	0	0	0	0	0	0	0	0	0	0	0	0	0	0	0	0	0	0	36	5	0	0	0	41	0	0	0	0	0	0	0	0	0	0	0	0	0	0	0	0	0	0	0	0	0	0	36	5	0	0	0	41	0	0	0	0	0	3	0	0	0	0	0	0	0	0	14		"FRANK CASH, DIVISION MANGER"	6063878076	3/16/2004	3/25/2004		
2003	20030863	"GASCO DISTRIBUTION SYSTEMS, INC."	30759	231 MAIN STREET	CLAYSVILLE	WASHINGTON	PA	15323	444 EAST PIKE 	ZANESVILLE	MUSKINGUM	OH	43701	 PA	44	2	0	1	40	0	0	0	0	0	87	581	0	0	12	645	0	0	0	0	0	1238	0	29	5	16	0	0	50	0	0	0	0	0	0	0	0	0	0	0	0	0	0	0	0	0	0	0	0	0	0	0	0	0	0	0	0	0	26	11	0	0	0	37	0	0	0	0	0	0	0	0	0	0	0	0	0	0	0	0	0	0	0	0	0	0	55	16	16	0	0	87	50	0	465	200	0	0	0	665	0	0	0	0	0	0	0	0	0	0	0	0	0	0	0	0	0	0	0	0	0	0	0	0	0	0	0	0	0	425	148	0	0	0	573	0	0	0	0	0	0	0	0	0	0	0	0	0	0	0	0	0	0	0	0	0	0	890	348	0	0	0	1238	18	1	1	1	0	0	0	0	0	0	0	0	2	0	5	CLAYSVILLE DIVISION	"KEN LEPAGE, DIVISION MANGER"	7404546198	3/16/2004	3/25/2004		
2003	20030864	"GASCO DISTRIBUTION SYSTEMS, INC."	30879	7083 ROUTE 321 BOX 777	KANE	MCKEAN	PA	16735	444 EAST PIKE 	ZANESVILLE	MUSKINGUM	OH	43701	 PA	10	0	0	3	70	0	0	0	0	0	83	436	0	0	10	2575	0	0	0	0	0	3021	0	10	2	1	0	0	13	0	0	0	0	0	0	0	0	0	0	0	0	0	0	0	0	0	0	0	0	0	0	0	0	0	0	0	0	0	35	22	13	0	0	70	0	0	0	0	0	0	0	0	0	0	0	0	0	0	0	0	0	0	0	0	0	0	45	24	14	0	0	83	0	0	368	70	8	0	0	446	0	0	0	0	0	0	0	0	0	0	0	0	0	0	0	0	0	0	0	0	0	0	0	0	0	0	0	0	0	2160	412	3	0	0	2575	0	0	0	0	0	0	0	0	0	0	0	0	0	0	0	0	0	0	0	0	0	0	2528	482	11	0	0	3021	89	12	4	1	0	0	0	0	0	0	0	0	0	0	5	KANE DIVISION	"KEN LEPAGE, DIVISION MANAGER"	7404546198	3/16/2004	3/25/2004		
2003	20030865	"GASCO DISTRIBUTION SYSTEMS, INC"	30641	444 EAST PIKE 	ZANESVILLE	MUSKINGUM	OH	43701						 OH	0	0	0	0	6	0	0	0	0	0	6	0	0	0	0	34	0	0	0	0	0	34	0	0	0	0	0	0	0	0	0	0	0	0	0	0	0	0	0	0	0	0	0	0	0	0	0	0	0	0	0	0	0	0	0	0	0	0	1	5	0	0	0	6	0	0	0	0	0	0	0	0	0	0	0	0	0	0	0	0	0	0	0	0	0	0	1	5	0	0	0	6	100	0	0	0	0	0	0	0	0	0	0	0	0	0	0	0	0	0	0	0	0	0	0	0	0	0	0	0	0	0	0	0	0	0	0	0	0	27	7	0	0	0	34	0	0	0	0	0	0	0	0	0	0	0	0	0	0	0	0	0	0	0	0	0	0	27	7	0	0	0	34	0	0	0	0	0	0	0	0	0	0	0	0	0	0	0	MCCONNELSVILLE DIVISION	KEN LEPAGE	7404546198	3/16/2004	3/25/2004		
2003	20030866	LEVAN TOWN	30508	20 NORTH MAIN	LEVAN 	JUAB	UT	84639						 UT	0	0	0	11	19	0	0	0	0	0	30	0	0	0	307	0	0	0	0	0	0	307	0	0	11	0	0	0	11	0	0	0	0	0	0	0	0	0	0	0	0	0	0	0	0	0	0	0	0	0	0	0	0	0	0	0	0	0	19	0	0	0	0	19	0	0	0	0	0	0	0	0	0	0	0	0	0	0	0	0	0	0	0	0	0	0	19	11	0	0	0	30	74	0	0	0	0	0	0	0	0	0	0	0	0	0	0	0	0	0	0	0	0	0	0	0	0	0	0	0	0	0	0	0	0	0	0	0	0	306	1	0	0	0	307	0	0	0	0	0	0	0	0	0	0	0	0	0	0	0	0	0	0	0	0	0	0	306	1	0	0	0	307	0	0	0	0	0	0	0	0	0	0	0	2	0	0	0	PART (C)  2 SERVICE LINES RELOCATED.	JASON WORWOOD	4356230813	3/16/2004	3/25/2004		
2003	20030867	LIVINGSTON GAS DEPARTMENT	11600	301 MCHENRY CIRCLE	LIVINGSTON	OVERTON	TN	38570						 TN	0	0	0	43	40	0	0	0	0	0	83	0	0	0	752	944	0	0	0	0	0	1696	0	0	43	0	0	0	43	0	0	0	0	0	0	0	0	0	0	0	0	0	0	0	0	0	0	0	0	0	0	0	40	0	0	0	40	0	0	0	0	0	0	0	0	0	0	0	0	0	0	0	0	0	0	0	0	0	0	0	0	0	0	0	0	0	0	83	0	0	0	83	135	0	651	101	0	0	0	752	0	0	0	0	0	0	0	0	0	0	0	0	0	0	0	0	0	0	0	0	0	0	944	0	0	0	0	944	0	0	0	0	0	0	0	0	0	0	0	0	0	0	0	0	0	0	0	0	0	0	0	0	0	0	0	0	0	1595	101	0	0	0	1696	4	4	2	0	0	0	0	0	0	0	0	0	3	0	3.8		RICK WINNINGHAM	9318231269	3/16/2004	3/25/2004		
2003	20030868	BOONEVILLE HOUSING AUTHORITY	31990	801 NORTH COLLEGE ST	BOONEVILLE	PRENTISS	MS	38829						 MS	0	0	0	1	0	0	0	0	0	0	1	0	0	0	162	0	0	0	0	0	0	162	0	1	0	0	0	0	1	0	0	0	0	0	0	0	0	0	0	0	0	0	0	0	0	0	0	0	0	0	0	0	0	0	0	0	0	0	0	0	0	0	0	0	0	0	0	0	0	0	0	0	0	0	0	0	0	0	0	0	0	0	0	0	0	0	1	0	0	0	0	1	0	0	162	0	0	0	0	162	0	0	0	0	0	0	0	0	0	0	0	0	0	0	0	0	0	0	0	0	0	0	0	0	0	0	0	0	0	0	0	0	0	0	0	0	0	0	0	0	0	0	0	0	0	0	0	0	0	0	0	0	0	0	0	0	0	162	0	0	0	0	162	0	0	0	0	0	0	0	0	0	0	0	15	0	0	0		"RICHARD COLE, MAIN DIRECTOR"	6627284032	3/16/2004	6/23/2004		
2003	20030869	RALEIGH NATURAL GAS SYSTEM	17040	150 MAIN STREET	RALEIGH	SMITH	MS	39153						 MS	0	0	0	14	3	0	0	0	0	0	17	0	0	0	393	152	0	0	0	0	0	545	0	9	5	0	0	0	14	0	0	0	0	0	0	0	0	0	0	0	0	0	0	0	0	0	0	0	0	0	0	0	0	0	0	0	0	0	3	0	0	0	0	3	0	0	0	0	0	0	0	0	0	0	0	0	0	0	0	0	0	0	0	0	0	0	12	5	0	0	0	17	0	0	362	31	0	0	0	393	0	0	0	0	0	0	0	0	0	0	0	0	0	0	0	0	0	0	0	0	0	0	0	0	0	0	0	0	0	152	0	0	0	0	152	0	0	0	0	0	0	0	0	0	0	0	0	0	0	0	0	0	0	0	0	0	0	514	31	0	0	0	545	0	6	0	0	0	0	0	0	0	0	0	0	0	0	5		MICHAEL THORNTON	6017824672	3/16/2004	3/25/2004		
2003	20030870	HARRISBURG WATER & GAS DIV	7095	201 N MAIN	HARRISBURG	POINSETT	AR	72432						 AR	0	0	0	48	12	0	0	0	83	0	143	0	0	0	1201	30	0	0	0	722	0	1953	0	9	39	0	0	0	48	0	0	0	0	0	0	0	0	0	0	0	0	0	0	0	0	0	0	0	0	0	0	12	0	0	0	0	12	0	56	27	0	0	0	83	0	0	0	0	0	0	0	0	0	0	0	0	0	0	0	0	0	0	0	0	0	0	77	66	0	0	0	143	150	0	1173	28	0	0	0	1201	0	0	0	0	0	0	0	0	0	0	0	0	0	0	0	0	0	0	0	0	0	0	30	0	0	0	0	30	0	660	62	0	0	0	722	0	0	0	0	0	0	0	0	0	0	0	0	0	0	0	0	0	0	0	0	0	0	1863	90	0	0	0	1953	1	0	5	0	0	0	5	0	0	0	0	0	0	0	10.8		JIMMY CHATMAN	8705785461	3/16/2004	3/25/2004		
2003	20030871	PENTEX PIPELINE COMPANY	30584	579 BRIGHTON WAY	PHOENIXVILLE		PA	19460	15455 DALLAS PKWY STE 200	ADDISON		TX	75001	 PA	0	0	0	2	0	0	0	0	0	0	2	0	0	0	2	0	0	0	0	0	0	2	0	0	2	0	0	0	2	0	0	0	0	0	0	0	0	0	0	0	0	0	0	0	0	0	0	0	0	0	0	0	0	0	0	0	0	0	0	0	0	0	0	0	0	0	0	0	0	0	0	0	0	0	0	0	0	0	0	0	0	0	0	0	0	0	0	2	0	0	0	2	0	0	0	0	2	0	0	2	0	0	0	0	0	0	0	0	0	0	0	0	0	0	0	0	0	0	0	0	0	0	0	0	0	0	0	0	0	0	0	0	0	0	0	0	0	0	0	0	0	0	0	0	0	0	0	0	0	0	0	0	0	0	0	0	0	0	0	2	0	0	2	0	0	0	0	0	0	0	0	0	0	0	0	0	0	0		MARK D. CASADAY	6104150622	3/16/2004	3/25/2004		
2003	20030872	"SPLENDORA, CITY OF"	30929	26090 FM 2090 EAST	SPLENDORA	MONTGOMERY	TX	77372	PO BOX 1087 	SPLENDORA	MONTGOMERY	TX	77372	 TX	0	0	0	0	24	0	0	0	0	0	24	0	0	0	0	433	0	0	0	0	0	433	0	0	0	0	0	0	0	0	0	0	0	0	0	0	0	0	0	0	0	0	0	0	0	0	0	0	0	0	0	0	0	0	0	0	0	0	16	6	2	0	0	24	0	0	0	0	0	0	0	0	0	0	0	0	0	0	0	0	0	0	0	0	0	0	16	6	2	0	0	24	60	0	0	0	0	0	0	0	0	0	0	0	0	0	0	0	0	0	0	0	0	0	0	0	0	0	0	0	0	0	0	0	0	0	0	0	0	0	0	0	0	0	0	0	0	0	0	0	0	0	0	433	0	0	0	0	433	0	0	0	0	0	0	0	0	433	0	0	0	0	433	0	0	0	0	0	2	0	0	0	0	0	1	0	0	0.09	"CATHODICALLY PROTECTED   CITY GATE, SCHOOL RISER  2 METER BACKED OVER BY CAR  1 REGULATOR SEAL LEAKING AROUNG REGULATOR"	WILLIAM T. DANIELS	2816893197	3/16/2004	3/25/2004		
2003	20030873	"CARTERSVILLE GAS DEPT, CITY OF"	2120	4 COOK ST BOX 1390	CARTERSVILLE	BARTOW	GA	30120						 GA	0	0	0	216	73	0	0	0	0	0	289	0	0	0	5941	3230	0	0	0	0	0	9171	0	50	94	51	21	0	216	0	0	0	0	0	0	0	0	0	0	0	0	0	0	0	0	0	0	0	0	0	0	0	0	0	0	0	0	0	59	14	0	0	0	73	0	0	0	0	0	0	0	0	0	0	0	0	0	0	0	0	0	0	0	0	0	0	109	108	51	21	0	289	100	0	5784	109	46	2	0	5941	0	0	0	0	0	0	0	0	0	0	0	0	0	0	0	0	0	0	0	0	0	0	0	0	0	0	0	0	0	3203	26	1	0	0	3230	0	0	0	0	0	0	0	0	0	0	0	0	0	0	0	0	0	0	0	0	0	0	8987	135	47	2	0	9171	20	39	0	2	2	14	2	8	1	0	5	11	13	0	0.2		MICHAEL HILL	7703875642	3/16/2004	3/25/2004		
2003	20030874	"PALO ALTO, CITY OF"	15084	1007 ELWELL COURT	PALO ALTO	SANTA CLARA	CA	94301	250 HAMILTON AVENUE	PALO ALTO	SANTA CLARA	CA	94301	 CA	0	0	0	83	124	0	0	0	0	0	207	0	0	0	1273	18028	0	0	67	0	0	19368	0	51	25	4	2	0	82	0	0	0	0	0	0	0	0	0	0	0	0	0	0	0	0	0	0	0	0	0	0	17	11	2	0	0	30	0	35	9	8	0	0	52	0	16	19	8	0	0	43	0	0	0	0	0	0	0	0	0	0	0	0	0	0	0	119	64	22	2	0	207	40	0	1251	22	0	0	0	1273	0	0	0	0	0	0	0	0	67	0	0	0	0	67	0	0	0	0	0	0	0	0	5699	603	139	0	0	6441	0	11185	277	63	62	0	11587	0	0	0	0	0	0	0	0	0	0	0	0	0	0	0	0	0	0	0	0	0	0	18202	902	202	62	0	19368	12	35	1	0	5	35	4	3	8	37	0	0	140	0	2.1		"PATRICIA DUCKWORTH, UTIL. ACCT. TECH."	6503292528	3/16/2004	3/25/2004		
2003	20030875	PIEDMONT GAS CO	15515	159 STONECREEK ROAD NW	NEW PHILADELPHIA	TUSCARAWAS	OH	44663						 OH	0	0	0	1	73	0	0	0	0	0	74	0	0	0	1	1325	0	0	0	0	0	1326	0	0	1	0	0	0	1	0	0	0	0	0	0	0	0	0	0	0	0	0	0	0	0	0	0	0	0	0	0	0	0	0	0	0	0	0	44	29	0	0	0	73	0	0	0	0	0	0	0	0	0	0	0	0	0	0	0	0	0	0	0	0	0	0	44	30	0	0	0	74	20	0	1	0	0	0	0	1	0	0	0	0	0	0	0	0	0	0	0	0	0	0	0	0	0	0	0	0	0	0	0	0	0	0	0	0	0	1279	46	0	0	0	1325	0	0	0	0	0	0	0	0	0	0	0	0	0	0	0	0	0	0	0	0	0	0	1280	46	0	0	0	1326	0	0	0	0	5	2	0	0	0	0	0	0	0	0	0		SCOTT WHITE	3303395454	3/16/2004	3/25/2004		
2003	20030876	MIDDLEBOROUGH GAS & ELECTRICT DEPT	12444	TWO VINE STREET	MIDDLEBOROUGH	PLYMOUTH	MA	2346						 MS	2	3	0	20	50	14	0	0	0	0	89	244	182	0	283	2681	0	0	0	0	0	3390	0	5	6	14	0	0	25	0	0	0	0	0	0	0	0	0	0	0	0	0	0	0	0	11	3	0	0	14	0	0	0	0	0	0	0	0	20	15	15	0	0	50	0	0	0	0	0	0	0	0	0	0	0	0	0	0	0	0	0	0	0	0	0	0	25	32	32	0	0	89	91	0	266	430	11	2	0	709	0	0	0	0	0	0	0	0	0	0	0	0	0	0	0	0	0	0	0	0	0	0	0	0	0	0	0	0	0	1755	909	16	1	0	2681	0	0	0	0	0	0	0	0	0	0	0	0	0	0	0	0	0	0	0	0	0	0	2021	1339	27	3	0	3390	1	0	0	0	0	0	1	3	3	6	0	4	0	0	4.4		"BERNAARD W. GOSSON, GAS DIVISION MANAGER"	5089471535	3/16/2004	3/25/2004		
2003	20030877	UNIVERSITY OF NEW HAMPSHIRE	31665	17 LEAVITT LANE	DURHAM	ROCKINGHAM	NH	3824						 NH	0	0	0	2	0	0	0	0	0	0	2	0	0	0	42	0	0	0	0	0	0	42	0	0	0	0	0	0	0	0	0	0	0	0	0	0	0	0	0	0	0	0	0	0	0	0	0	0	0	0	0	0	0	0	0	0	0	0	1	1	0	0	0	2	0	0	0	0	0	0	0	0	0	0	0	0	0	0	0	0	0	0	0	0	0	0	1	1	0	0	0	2	150	0	0	0	0	0	0	0	0	0	0	0	0	0	0	0	0	0	0	0	0	0	0	0	0	0	0	0	0	0	0	0	0	0	0	0	0	2	38	2	0	0	42	0	0	0	0	0	0	0	0	0	0	0	0	0	0	0	0	0	0	0	0	0	0	2	38	2	0	0	42	0	0	0	0	0	3	0	0	0	0	0	0	6	0	0		SIMONE T. MAJOR	6034360310	3/16/2004	3/25/2004		
2003	20030878	CITY OF EAGLE MOUNTAIN	31542	1680 E. HERITAGE DR.	EAGLE MOUNTAIN	UTAH	UT	84043					84043	 UT	0	0	0	7	46	0	0	0	0	0	53	0	0	0	0	1879	0	0	0	0	0	1879	0	0	0	0	0	0	0	0	0	0	0	0	0	0	0	0	0	0	0	0	0	0	0	0	0	0	0	0	0	0	0	0	0	0	0	0	25	19	2	0	0	46	0	0	0	0	0	0	0	0	0	0	0	0	0	0	0	0	0	0	0	0	0	0	25	19	2	0	0	46	50	0	0	0	0	0	0	0	0	0	0	0	0	0	0	0	0	0	0	0	0	0	0	0	0	0	0	0	0	0	0	0	0	0	0	0	0	2247	0	0	0	0	2247	0	0	0	0	0	0	0	0	0	0	0	0	0	0	0	0	0	0	0	0	0	0	2247	0	0	0	0	2247	0	0	0	0	0	0	0	0	0	0	0	0	0	0	3		DAVE CRAWLEY	8014200608	3/16/2004	3/25/2004		
2003	20030879	MADISONVILLE GAS SYSTEM	12042	301 COLLEGE STREET	MADISONVILLE	MONROE	TN	37354						 TN	0	0	0	11	40	0	0	0	0	0	51	0	0	0	192	1327	0	0	0	0	0	1519	0	10	1	0	0	0	11	0	0	0	0	0	0	0	0	0	0	0	0	0	0	0	0	0	0	0	0	0	0	0	0	0	0	0	0	0	25	15	0	0	0	40	0	0	0	0	0	0	0	0	0	0	0	0	0	0	0	0	0	0	0	0	0	0	35	16	0	0	0	51	0	0	422	3	0	0	0	425	0	0	0	0	0	0	0	0	0	0	0	0	0	0	0	0	0	0	0	0	0	0	0	0	0	0	0	0	0	1089	5	0	0	0	1094	0	0	0	0	0	0	0	0	0	0	0	0	0	0	0	0	0	0	0	0	0	0	1511	8	0	0	0	1519	0	0	0	0	0	0	0	0	0	0	0	0	0	0	5.4		STACY CHAMBERS	4234429416	3/16/2004	3/25/2004		
2003	20030880	"CALERA MUNICIPLE GAS SYSTEM, TOWN OF"	2020	1112 20TH AVE. PO BOX 187	CALERA	SHELBY	AL	35040						 AL	0	0	0	19	55	4	0	0	0	0	78	38	0	0	121	1578	0	0	0	0	0	1737	0	3	7	9	0	0	19	0	0	0	0	0	0	0	0	0	0	0	0	0	0	0	2	2	0	0	0	4	0	0	0	0	0	0	0	0	34	16	5	0	0	55	0	0	0	0	0	0	0	0	0	0	0	0	0	0	0	0	0	0	0	0	0	0	39	25	14	0	0	78	50	0	150	7	2	0	0	159	0	0	0	0	0	0	0	0	0	0	0	0	0	0	0	0	0	0	0	0	0	0	0	0	0	0	0	0	0	1564	14	0	0	0	1578	0	0	0	0	0	0	0	0	0	0	0	0	0	0	0	0	0	0	0	0	0	0	1714	21	2	0	0	1737	4	0	0	0	2	16	0	4	2	9	0	0	6	0	2.5		JEFFREY O. BICE	2056683868	3/16/2004	3/25/2004		
2003	20030881	THE VILLAGE OF OBETZ	31985	4175 ALUM CREEK DR	OBETZ	FRANKLIN	OH	43207						 OH	0	0	0	0	2	0	0	0	0	0	2	0	0	0	0	25	0	0	0	0	0	25	0	0	0	0	0	0	0	0	0	0	0	0	0	0	0	0	0	0	0	0	0	0	0	0	0	0	0	0	0	0	0	0	0	0	0	0	0	2	0	0	0	2	0	0	0	0	0	0	0	0	0	0	0	0	0	0	0	0	0	0	0	0	0	0	0	2	0	0	0	2	0	0	0	0	0	0	0	0	0	0	0	0	0	0	0	0	0	0	0	0	0	0	0	0	0	0	0	0	0	0	0	0	0	0	0	0	0	0	21	4	0	0	25	0	0	0	0	0	0	0	0	0	0	0	0	0	0	0	0	0	0	0	0	0	0	0	21	4	0	0	25	0	0	0	0	0	0	0	0	0	0	0	0	0	0	0		"JASON JULIAN, UTI CORP"	6148797316	3/16/2004	5/27/2004		
2003	20030882	EASTERN NORTH CAROLINA NATURAL GAS	32010	5625 DILLARD DRIVE #101	CARY	WAKE	NC	27511						 NC	0	0	0	0	101	0	0	0	0	0	101	0	0	0	0	572	0	0	0	0	0	572	0	0	0	0	0	0	0	0	0	0	0	0	0	0	0	0	0	0	0	0	0	0	0	0	0	0	0	0	0	0	0	0	0	0	0	0	45	31	25	0	0	101	0	0	0	0	0	0	0	0	0	0	0	0	0	0	0	0	0	0	0	0	0	0	45	31	25	0	0	101	136	0	0	0	0	0	0	0	0	0	0	0	0	0	0	0	0	0	0	0	0	0	0	0	0	0	0	0	0	0	0	0	0	0	0	0	0	527	41	4	0	0	572	0	0	0	0	0	0	0	0	0	0	0	0	0	0	0	0	0	0	0	0	0	0	527	41	4	0	0	572	0	0	0	0	3	2	0	0	1	0	0	0	0	0	0		KEITH GUALTIERI	9192356156	3/29/2004	8/10/2004		
2003	20030883	NORTH CAROLINA NATURAL GAS CORP	13580	5625 DILLARD DR. STE. 101	CARY	WAKE	NC	27511						 NC	0	0	0	1766	1438	0	0	0	0	0	3204	21	0	0	51205	83251	0	0	0	0	0	134477	0	1274	306	178	7	2	1767	0	0	0	0	0	0	0	0	0	0	0	0	0	0	0	0	0	0	0	0	0	0	0	0	0	0	0	0	0	1120	218	101	0	0	1439	0	0	0	0	0	0	0	0	0	0	0	0	0	0	0	0	0	0	0	0	0	0	2394	524	279	7	2	3206	109	0	49820	1268	112	28	0	51228	0	0	0	0	0	0	0	0	0	0	0	0	0	0	0	0	0	0	0	0	0	0	0	0	0	0	0	0	0	81073	2133	36	9	0	83251	0	0	0	0	0	0	0	0	0	0	0	0	0	0	0	0	0	0	0	0	0	0	130893	3401	148	37	0	134479	14	138	0	0	75	352	19	32	51	124	114	850	90	0	2.06		KEITH GUALTIERI	9192356156	4/1/2004	4/6/2004		
2003	20030884	BREAUX BRIDGE GAS SYSTEM	1712	101 BERARD STREET	BREAUX BRIDGE	ST. MARTIN PARISH	LA	70517						 LA	0	0	0	1	16	15	0	0	0	0	32	0	0	0	477	190	665	0	0	0	0	1332	0	11	3	3	0	0	17	0	0	0	0	0	0	0	0	0	0	0	0	0	0	0	0	0	0	0	0	0	0	0	0	0	0	0	0	0	6	9	0	0	0	15	0	0	0	0	0	0	0	0	0	0	0	0	0	0	0	0	0	0	0	0	0	0	17	12	3	0	0	32	50	0	661	6	0	0	0	667	0	0	0	0	0	0	0	0	0	0	0	0	0	0	0	0	0	0	0	0	0	0	0	0	0	0	0	0	0	658	7	0	0	0	665	0	0	0	0	0	0	0	0	0	0	0	0	0	0	0	0	0	0	0	0	0	0	1319	13	0	0	0	1332	3	1	0	0	0	0	0	0	2	0	0	0	14	0	8	NOTE: THE FOURTEEN LEAKS SCHEDULED FOR REPAIR ARE ALL GRADE 3 LEAKS.	JOSEPH C. GUIDRY	3373322176	3/16/2004	3/25/2004		
2003	20030885	HAWKINS COUNTY UTILITY DIST	7170	202 PARK BLV.	ROGERSVILLE 	HAWKINS	TN	37857						 TN	0	0	0	84	165	0	0	0	0	0	249	0	0	0	1249	5802	0	0	0	0	0	7051	0	31	27	26	0	0	84	0	0	0	0	0	0	0	0	0	0	0	0	0	0	0	0	0	0	0	0	0	0	0	0	0	0	0	0	0	142	17	6	0	0	165	0	0	0	0	0	0	0	0	0	0	0	0	0	0	0	0	0	0	0	0	0	0	173	44	32	0	0	249	120	0	1241	4	3	1	0	1249	0	0	0	0	0	0	0	0	0	0	0	0	0	0	0	0	0	0	0	0	0	0	0	0	0	0	0	0	0	5759	41	2	0	0	5802	0	0	0	0	0	0	0	0	0	0	0	0	0	0	0	0	0	0	0	0	0	0	7000	45	5	1	0	7051	4	8	0	1	4	7	0	0	1	0	0	0	15	0	2.24		PATRICK LUND	4232728841	3/16/2004	3/25/2004		
2003	20030887	SUBURBAN NATURAL GAS COMPANY	18680	274 E FRONT ST	CYGNET	WOOD	OH	43413						 OH	54	12	51	90	211	0	0	0	0	0	418	0	0	2761	1195	6449	0	0	0	0	0	10405	0	65	43	98	1	0	207	0	0	0	0	0	0	0	0	0	0	0	0	0	0	0	0	0	0	0	0	0	0	0	0	0	0	0	0	0	118	86	7	0	0	211	0	0	0	0	0	0	0	0	0	0	0	0	0	0	0	0	0	0	0	0	0	0	183	129	105	1	0	418	25	0	88	3849	19	0	0	3956	0	0	0	0	0	0	0	0	0	0	0	0	0	0	0	0	0	0	0	0	0	0	0	0	0	0	0	0	0	5768	678	3	0	0	6449	0	0	0	0	0	0	0	0	0	0	0	0	0	0	0	0	0	0	0	0	0	0	5856	4527	22	0	0	10405	4	5	0	3	11	19	0	0	0	0	0	0	14	0	1.67		"AARON ROLL, DIRECTOR FIELD OPERATIONS"	4196552345	3/17/2004	8/4/2004		
2003	20030888	LOS ALAMOS COUNTY UTILITIES	11768	"PO DRAWER 1030, 901 TRINI"	LOS ALAMOS	LOS ALAMOS	NM	87544						NM	1	0	1	43	70	0	0	0	0	0	115	1	0	5	2868	4698	0	0	0	0	0	7572	0	24	17	2	2	0	45	0	0	0	0	0	0	0	0	0	0	0	0	0	0	0	0	0	0	0	0	0	0	0	0	0	0	0	0	0	44	18	6	2	0	70	0	0	0	0	0	0	0	0	0	0	0	0	0	0	0	0	0	0	0	0	0	0	68	35	8	4	0	115	0	0	2087	784	3	0	0	2874	0	0	0	0	0	0	0	0	0	0	0	0	0	0	0	0	0	0	0	0	0	0	0	0	0	0	0	0	0	4641	42	15	0	0	4698	0	0	0	0	0	0	0	0	0	0	0	0	0	0	0	0	0	0	0	0	0	0	6728	826	18	0	0	7572	5	4	0	1	1	1	0	1	2	1	13	38	2	0		UNACCOUNTED FOR GAS -1.93%	DONALD HOUSER	5056628215	3/17/2004	5/26/2004		
2003	20030889	"BLOOMFIELD MUNICIPAL GAS, CITY OF"	1536	111 W. FRANKLIN STREET	BLOOMFIELD	DAVIS	IA	52537						 IA	0	0	0	2	32	0	0	0	0	0	34	0	0	0	0	1128	0	0	0	0	0	1128	0	0	0	0	0	0	0	0	0	0	0	0	0	0	0	0	0	0	0	0	0	0	0	0	0	0	0	0	0	0	0	0	0	0	0	0	23	11	0	0	0	34	0	0	0	0	0	0	0	0	0	0	0	0	0	0	0	0	0	0	0	0	0	0	23	11	0	0	0	34	60	0	0	0	0	0	0	0	0	0	0	0	0	0	0	0	0	0	0	0	0	0	0	0	0	0	0	0	0	0	0	0	0	0	0	0	0	1113	15	0	0	0	1128	0	0	0	0	0	0	0	0	0	0	0	0	0	0	0	0	0	0	0	0	0	0	1113	15	0	0	0	1128	0	0	0	0	2	7	0	0	6	0	0	0	0	0	0	THIRD PARTY LEAKS- NEW SEWER MAIN CONSTRUCTION PROJECT IN CIT CONTRACTOR DAMAGED TWO GAS MAINS AND SEVEN SERVICE LINES.    MATERIAL DEFECTS ARE OLD STYLE TAP TEES THAT CAN SEEP GAS PAST TAP TEE THREADS.  USE S.T.P. REPAIR KITS TO FIX AS GOOD AS NEW STYLE TAP TEES.	KEITH SULLIVAN	6416642260	3/17/2004	3/30/2004		
2003	20030890	BETHANY MUNICIPAL GAS SYSTEM	1392	PO BOX 352 201 W MAIN ST	BETHANY	MOULTRIE	IL	61914						 IL	0	0	0	12	0	0	0	0	0	0	12	0	0	0	617	0	0	0	0	0	0	617	0	7	5	0	0	0	12	0	0	0	0	0	0	0	0	0	0	0	0	0	0	0	0	0	0	0	0	0	0	0	0	0	0	0	0	0	0	0	0	0	0	0	0	0	0	0	0	0	0	0	0	0	0	0	0	0	0	0	0	0	0	0	0	0	7	5	0	0	0	12	60	0	612	4	1	0	0	617	0	0	0	0	0	0	0	0	0	0	0	0	0	0	0	0	0	0	0	0	0	0	0	0	0	0	0	0	0	0	0	0	0	0	0	0	0	0	0	0	0	0	0	0	0	0	0	0	0	0	0	0	0	0	0	0	0	612	4	1	0	0	617	0	0	0	0	0	0	0	0	0	0	0	0	0	0	0.007	LEAKS ARE OUTSIDE ON METER SETS AND ARE ALL CLASS 3 (A) LEAKS.	"MICHAEL W. COLLINS, MANAGER OF UTILITIES"	2176653351	3/17/2004	3/31/2004		
2003	20030891	TUTTLE PUBLIC WORKS AUTH	19770	PO BOX 10 15 NW 4TH ST.	TUTTLE	GRADY	OK	73160						 OK	0	0	0	18	26	0	0	0	0	0	44	0	0	0	542	520	0	0	0	0	0	1062	0	13	5	0	0	0	18	0	0	0	0	0	0	0	0	0	0	0	0	0	0	0	0	0	0	0	0	0	0	0	0	0	0	0	0	0	11	14	0	0	0	25	0	0	0	0	0	0	0	0	0	0	0	0	0	0	0	0	0	0	0	0	0	0	24	19	0	0	0	43	0	0	524	18	0	0	0	542	0	0	0	0	0	0	0	0	0	0	0	0	0	0	0	0	0	0	0	0	0	0	0	0	0	0	0	0	0	521	5	0	0	0	526	0	0	0	0	0	0	0	0	0	0	0	0	0	0	0	0	0	0	0	0	0	0	1045	23	0	0	0	1068	0	0	0	0	0	1	0	0	0	3	0	0	7	0	4		TERRY BROWN	4053813872	3/17/2004	3/30/2004		
2003	20030892	THOMPSON GAS INC 	31807	6708 OLD NATIONAL PIKE 	BOONSBORO	WASHINGTON	MD	21713						 MD	0	0	0	0	6	0	0	0	0	0	6	0	0	0	0	608	0	0	0	0	0	608	0	0	0	0	0	0	0	0	0	0	0	0	0	0	0	0	0	0	0	0	0	0	0	0	0	0	0	0	0	0	0	0	0	0	0	0	4	2	0	0	0	6	0	0	0	0	0	0	0	0	0	0	0	0	0	0	0	0	0	0	0	0	0	0	4	2	0	0	0	6	60	0	0	0	0	0	0	0	0	0	0	0	0	0	0	0	0	0	0	0	0	0	0	0	0	0	0	0	0	0	0	0	0	0	0	0	0	608	0	0	0	0	608	0	0	0	0	0	0	0	0	0	0	0	0	0	0	0	0	0	0	0	0	0	0	608	0	0	0	0	608	0	0	0	0	0	1	0	0	0	0	0	9	0	0	3.181		GARY L. NOUSE JR.	3014326611	3/17/2004	3/30/2004		
2003	20030893	EDMONTON GAS CO	4260	207 EAST STREET	EDMONTON	METCALFE	KY	42129						 KY	0	0	0	13	83	0	0	0	0	0	96	0	0	0	178	977	0	0	0	0	0	1155	0	8	5	0	0	0	13	0	0	0	0	0	0	0	0	0	0	0	0	0	0	0	0	0	0	0	0	0	0	0	0	0	0	0	0	0	59	22	2	0	0	83	0	0	0	0	0	0	0	0	0	0	0	0	0	0	0	0	0	0	0	0	0	0	67	27	2	0	0	96	0	0	178	0	0	0	0	178	0	0	0	0	0	0	0	0	0	0	0	0	0	0	0	0	0	0	0	0	0	0	0	0	0	0	0	0	0	977	0	0	0	0	977	0	0	0	0	0	0	0	0	0	0	0	0	0	0	0	0	0	0	0	0	0	0	1155	0	0	0	0	1155	0	0	0	3	0	2	0	0	0	0	0	0	5	0	0		GREG WHITE	2704324844	3/17/2004	3/30/2004		
2003	20030894	WESTERN LEWIS RECTORVILLE GAS & WATER DISTRICT	22468	8000 DAY PIKE	MAYSVILLE	MASON	KY	41056						 KY	0	0	0	15	13	0	0	0	0	0	28	0	0	0	502	138	0	0	0	0	0	640	0	8	7	0	0	0	15	0	0	0	0	0	0	0	0	0	0	0	0	0	0	0	0	0	0	0	0	0	0	0	0	0	0	0	0	0	13	0	0	0	0	13	0	0	0	0	0	0	0	0	0	0	0	0	0	0	0	0	0	0	0	0	0	0	21	7	0	0	0	28	25	0	500	2	0	0	0	502	0	0	0	0	0	0	0	0	0	0	0	0	0	0	0	0	0	0	0	0	0	0	0	0	0	0	0	0	0	138	0	0	0	0	138	0	0	0	0	0	0	0	0	0	0	0	0	0	0	0	0	0	0	0	0	0	0	638	2	0	0	0	640	1	5	1	5	0	0	0	0	1	0	0	0	2	0	3		PAULINE BICKLEY	6067595740	3/17/2004	3/30/2004		
2003	20030895	CORNING NATURAL GAS CORP	2800	330 WEST WILLIAM  STREET	CORNING	STEUBEN	NY	14830						 NY	82	38	29	107	74	0	0	0	0	0	330	2657	3415	0	361	8525	0	0	0	0	0	14958	0	46	90	82	32	6	256	0	0	0	0	0	0	0	0	0	0	0	0	0	0	0	0	0	0	0	0	0	0	0	0	0	0	0	0	0	39	21	8	6	0	74	0	0	0	0	0	0	0	0	0	0	0	0	0	0	0	0	0	0	0	0	0	0	85	111	90	38	6	330	58	1212	2647	2091	346	137	0	6433	0	0	0	0	0	0	0	0	0	0	0	0	0	0	0	0	0	0	0	0	0	0	0	0	0	0	0	0	902	3647	3351	391	234	0	8525	0	0	0	0	0	0	0	0	0	0	0	0	0	0	0	0	0	0	0	0	0	2114	6294	5442	737	371	0	14958	30	36	8	7	15	17	0	0	0	6	12	15	14	0	1.43		RUSSELL S. MILLER	6079363755	3/17/2004	3/30/2004		
2003	20030896	"MOSS POINT MUNICIPAL GAS SYSTEM, CITY OF"	12816	4800 MCINNIS AVENUE	MOSS POINT	JACKSON	MS	39563	4412 DENNY AVENUE 	MOSS PIONT		MS	39563	 MS	15	0	8	86	0	0	0	0	0	0	109	68	0	0	2913	0	0	0	0	0	0	2981	17	5	0	4	0	0	26	0	0	0	0	0	0	0	0	0	0	0	0	0	0	0	0	0	0	0	0	0	0	0	0	0	0	0	0	73	10	0	0	0	0	83	0	0	0	0	0	0	0	0	0	0	0	0	0	0	0	0	0	0	0	0	0	90	15	0	4	0	0	109	75	0	30	50	0	0	0	80	0	0	0	0	0	0	0	0	0	0	0	0	0	0	0	0	0	0	0	0	0	0	0	0	0	0	0	0	0	2836	63	2	0	0	2901	0	0	0	0	0	0	0	0	0	0	0	0	0	0	0	0	0	0	0	0	0	0	2866	113	2	0	0	2981	22	70	0	63	0	0	0	4	0	7	0	17	0	0	6.1		DAVID J. CHERMIE	2284751151	3/17/2004	3/30/2004		
2003	20030897	"SUNDOWN GAS SYSTEMS, CITY OF"	18728	BOX 600 809 S SLAUGHTER	SUNDOWN	HOCKLEY	TX	79372						 TX	0	0	1	7	11	0	0	0	0	0	19	0	0	3	0	727	0	0	0	0	0	730	0	1	7	0	0	0	8	0	0	0	0	0	0	0	0	0	0	0	0	0	0	0	0	0	0	0	0	0	0	0	0	0	0	0	0	0	11	0	0	0	0	11	0	0	0	0	0	0	0	0	0	0	0	0	0	0	0	0	0	0	0	0	0	0	12	7	0	0	0	19	10	0	0	2	1	0	0	3	0	0	0	0	0	0	0	0	0	0	0	0	0	0	0	0	0	0	0	0	0	0	42	0	0	0	0	42	0	685	0	0	0	0	685	0	0	0	0	0	0	0	0	0	0	0	0	0	0	0	0	0	0	0	0	0	0	727	2	1	0	0	730	0	0	0	0	2	0	0	0	0	0	0	0	0	0	3.11		BRAD STAFFORD/LORA DOCKERY	8062293131	3/17/2004	3/30/2004		
2003	20030898	JACKSON COUNTY UTILITIES	9016	4800 MCINNIS AVENUE	MOSS POINT	JACKSON	MS	39563	4412 DENNY AVENUE	MOSS POINT		MS	39563	 MS	0	36	7	21	0	0	0	0	0	0	64	0	500	0	228	0	0	0	0	0	0	728	0	19	0	5	0	0	24	0	0	0	0	0	0	0	0	0	0	0	0	0	0	0	0	0	0	0	0	0	0	0	0	0	0	0	0	0	12	18	10	0	0	40	0	0	0	0	0	0	0	0	0	0	0	0	0	0	0	0	0	0	0	0	0	0	31	18	15	0	0	64	75	0	390	47	1	0	0	438	0	0	0	0	0	0	0	0	0	0	0	0	0	0	0	0	0	0	0	0	0	0	0	0	0	0	0	0	0	280	0	10	0	0	290	0	0	0	0	0	0	0	0	0	0	0	0	0	0	0	0	0	0	0	0	0	0	670	47	11	0	0	728	5	28	0	8	0	3	0	4	0	2	0	2	0	0	8.88		DAVID J. CHERAMIE	2284751151	3/17/2004	3/30/2004		
2003	20030899	MULGA NATURAL GAS SYSTEM	12900	505 MULGA RD PO BOX 40	MULGA	JEFFERSON	AL	35118						 AL	0	0	0	22	20	0	0	0	0	0	42	0	0	0	792	975	0	0	0	0	0	1767	0	14	8	0	0	0	22	0	0	0	0	0	0	0	0	0	0	0	0	0	0	0	0	0	0	0	0	0	0	0	0	0	0	0	0	0	0	20	0	0	0	20	0	0	0	0	0	0	0	0	0	0	0	0	0	0	0	0	0	0	0	0	0	0	14	28	0	0	0	42	100	0	792	0	0	0	0	792	0	0	0	0	0	0	0	0	0	0	0	0	0	0	0	0	0	0	0	0	0	0	0	0	0	0	0	0	0	975	0	0	0	0	975	0	0	0	0	0	0	0	0	0	0	0	0	0	0	0	0	0	0	0	0	0	0	1767	0	0	0	0	1767	0	0	0	0	0	0	0	0	0	0	0	0	0	0	3.6		PATSY G. LUCAS	2057874521	3/17/2004	3/30/2004		
2003	20030900	COTULLA MUNICIPAL GAS SYSTEM	2824	117 N. FRONT STREET	COTULLA	LA SALLE	TX	78014						 TX	0	0	0	36	0	0	0	0	2	0	38	0	0	0	636	0	0	0	0	0	0	636	0	11	25	0	0	0	36	0	0	0	0	0	0	0	0	0	0	0	0	0	0	0	0	0	0	0	0	0	0	0	0	0	0	0	0	0	1	1	0	0	0	2	0	0	0	0	0	0	0	0	0	0	0	0	0	0	0	0	0	0	0	0	0	0	12	26	0	0	0	38	15	0	614	20	0	0	0	634	0	0	0	0	0	0	0	0	0	0	0	0	0	0	0	0	0	0	0	0	0	0	0	0	0	0	0	0	0	0	1	1	0	0	2	0	0	0	0	0	0	0	0	0	0	0	0	0	0	0	0	0	0	0	0	0	0	614	21	1	0	0	636	0	4	0	0	0	8	0	0	0	3	1	16	0	0	9		JUAN M. VELASQUEZ	8308792367	3/17/2004	3/30/2004		
2003	20030901	WALKER GAS & OIL CO INC	22070	105 DAUBENSPECK RD BOX K 	BRUIN	BUTLER	PA	16022						 PA	3	0	0	0	8	0	0	0	0	0	11	31	0	0	0	269	0	0	0	0	0	300	0	3	0	0	0	0	3	0	0	0	0	0	0	0	0	0	0	0	0	0	0	0	0	0	0	0	0	0	0	0	0	0	0	0	0	0	8	0	0	0	0	8	0	0	0	0	0	0	0	0	0	0	0	0	0	0	0	0	0	0	0	0	0	0	11	0	0	0	0	11	50	0	0	31	0	0	0	31	0	0	0	0	0	0	0	0	0	0	0	0	0	0	0	0	0	0	0	0	0	0	0	0	0	0	0	0	0	0	269	0	0	0	269	0	0	0	0	0	0	0	0	0	0	0	0	0	0	0	0	0	0	0	0	0	0	0	300	0	0	0	300	10	0	1	0	0	0	0	0	0	0	0	0	2	0	0.03		JEROME MACURAK	7247532410	3/17/2004	3/30/2004		
2003	20030902	SERGEANT GAS CO	18184	14 GREEVES STREET	KANE	MCKEAN	PA	16735						 PA	10	0	0	2	13	0	0	0	0	0	25	16	0	0	15	90	0	0	0	0	0	121	0	0	12	0	0	0	12	0	0	0	0	0	0	0	0	0	0	0	0	0	0	0	0	0	0	0	0	0	0	0	0	0	0	0	0	0	6	7	0	0	0	13	0	0	0	0	0	0	0	0	0	0	0	0	0	0	0	0	0	0	0	0	0	0	6	19	0	0	0	25	100	0	31	0	0	0	0	31	0	0	0	0	0	0	0	0	0	0	0	0	0	0	0	0	0	0	0	0	0	0	0	0	0	0	0	0	0	90	0	0	0	0	90	0	0	0	0	0	0	0	0	0	0	0	0	0	0	0	0	0	0	0	0	0	0	121	0	0	0	0	121	1	0	0	0	0	0	0	0	0	0	0	0	0	0	0		"GERTRUDE A. LORENZO, SECRETARY"	8148379885	3/17/2004	3/31/2004		
2003	20030903	"ROBERTSDALE GAS SYSTEM, CITY OF"	17556	"PO BOX 429, 22650 E CHICA"	ROBERTSDALE	BALDWIN	AL	36567						AL	0	0	0	10	0	0	0	0	0	0	10	0	0	0	400	0	0	0	0	0	0	400	0	9	1	0	0	0	10	0	0	0	0	0	0	0	0	0	0	0	0	0	0	0	0	0	0	0	0	0	0	0	0	0	0	0	0	0	0	0	0	0	0	0	0	0	0	0	0	0	0	0	0	0	0	0	0	0	0	0	0	0	0	0	0	0	9	1	0	0	0	10	0	0	384	4	0	0	0	388	0	0	0	0	0	0	0	0	0	0	0	0	0	0	0	0	0	0	0	0	0	0	0	0	0	0	0	0	0	12	0	0	0	0	12	0	0	0	0	0	0	0	0	0	0	0	0	0	0	0	0	0	0	0	0	0	0	396	4	0	0	0	400	0	2	0	0	0	0	0	0	0	18	0	0	0	0	2.97		JAMES BRILL	3349475772	3/17/2004	9/16/2004		
2003	20030904	MISSISSIPPI VALLEY GAS	12582	711 W. CAPITOL STREET	JACKSON	HINDS	MS	39203						 MS	0	13	0	3778	2043	110	0	0	0	0	5944	0	370	0	172032	116997	0	0	192	0	0	289591	0	2616	873	283	17	1	3790	0	0	0	0	0	0	0	0	0	0	0	0	0	0	0	57	38	14	1	0	110	0	0	0	0	0	0	0	0	1731	306	6	0	0	2043	0	0	0	0	0	0	0	0	0	0	0	0	0	0	0	0	0	0	0	0	0	0	4404	1217	304	18	1	5944	80	0	168446	3842	67	47	0	172402	0	0	0	0	0	0	0	0	192	0	0	0	0	192	0	0	0	0	0	0	0	0	0	0	0	0	0	0	0	113087	3836	74	0	0	116997	0	0	0	0	0	0	0	0	0	0	0	0	0	0	0	0	0	0	0	0	0	0	281725	7678	141	47	0	289591	82	146	25	156	98	240	20	115	14	107	97	718	4355	0	1.53		DAN W. OGLESBEE	6019616881	3/17/2004	3/30/2004		
2003	20030905	"ATMORE UTILITIES BOARD, CITY OF"	828	PO DRAWER 1296	ATMORE	ESCAMBIA	AL	36504						 AL	0	0	13	48	29	0	0	0	0	8	98	0	0	0	1030	821	0	0	0	0	733	2584	0	17	11	33	0	0	61	0	0	0	0	0	0	0	0	0	0	0	0	0	0	0	0	0	0	0	0	0	0	0	0	0	0	0	0	0	18	11	0	0	0	29	0	0	0	0	0	0	0	0	8	0	0	0	0	8	0	0	0	0	0	0	0	0	43	22	33	0	0	98	60	0	1119	11	0	0	0	1130	0	0	0	0	0	0	0	0	0	0	0	0	0	0	0	0	0	0	0	0	0	0	0	0	0	0	0	0	0	862	5	0	0	0	867	0	0	0	0	0	0	0	0	586	1	0	0	0	587	0	0	0	0	0	0	0	0	2567	17	0	0	0	2584	0	2	0	0	0	2	0	0	0	7	0	0	11	0	4.6		"BOBBY M. DAVIS, SUPERINTENDENT"	2513688833	3/17/2004	3/30/2004		
2003	20030906	MISSISSIPPI RIVER GAS LLC	31794	3003 LAKELAND COVE STE C	FLOWOOD		MS	39232	PO BOX 4647 	JACKSON	HINDS	MS	39296	 MS	0	0	0	86	25	0	0	0	0	0	111	0	0	0	1871	1245	0	0	0	0	0	3116	0	36	51	0	0	0	87	0	0	0	0	0	0	0	0	0	0	0	0	0	0	0	0	0	0	0	0	0	0	0	0	0	0	0	0	0	22	2	0	0	0	24	0	0	0	0	0	0	0	0	0	0	0	0	0	0	0	0	0	0	0	0	0	0	58	53	0	0	0	111	0	0	1827	36	0	0	0	1863	0	0	0	0	0	0	0	0	0	0	0	0	0	0	0	0	0	0	0	0	0	0	0	0	0	0	0	0	0	1240	13	0	0	0	1253	0	0	0	0	0	0	0	0	0	0	0	0	0	0	0	0	0	0	0	0	0	0	3067	49	0	0	0	3116	0	0	0	0	0	0	0	0	0	0	1	14	0	0	0		BILLY LEWIS	6019329335	3/17/2004	3/30/2004		
2003	20030907	"WHITEFACE GAS DEPT, CITY OF"	22581	105 WEST SECOND STREET	WHITEFACE	COCHRAN	TX	79379						 TX	0	0	0	0	4	0	0	0	5	0	9	0	0	51	27	0	0	0	0	215	0	293	0	0	0	0	0	0	0	0	0	0	0	0	0	0	0	0	0	0	0	0	0	0	0	0	0	0	0	0	0	2	4	0	0	0	6	0	3	0	0	0	0	3	0	0	0	0	0	0	0	0	0	0	0	0	0	0	0	0	0	0	0	0	0	0	5	4	0	0	0	9	15	0	75	3	0	0	0	78	0	0	0	0	0	0	0	0	0	0	0	0	0	0	0	0	0	0	0	0	0	0	0	0	0	0	0	0	0	211	4	0	0	0	215	0	0	0	0	0	0	0	0	0	0	0	0	0	0	0	0	0	0	0	0	0	0	286	7	0	0	0	293	0	0	0	0	0	0	0	0	0	0	0	0	0	0	16		BELINDA TERRELL	8062871111	3/17/2004	3/30/2004		
2003	20030908	FRONTIER ENERGY	31406	1927 NORTH BRIDGE STREET	ELKIN	SURRY	NC	28621						 NC	0	0	0	30	111	0	0	0	0	0	141	0	0	0	5	758	0	0	0	0	0	763	0	0	13	17	0	0	30	0	0	0	0	0	0	0	0	0	0	0	0	0	0	0	0	0	0	0	0	0	0	0	0	0	0	0	0	0	33	16	62	0	0	111	0	0	0	0	0	0	0	0	0	0	0	0	0	0	0	0	0	0	0	0	0	0	33	29	79	0	0	141	131	0	0	0	4	1	0	5	0	0	0	0	0	0	0	0	0	0	0	0	0	0	0	0	0	0	0	0	0	0	0	0	0	0	0	0	0	697	46	14	1	0	758	0	0	0	0	0	0	0	0	0	0	0	0	0	0	0	0	0	0	0	0	0	0	697	46	18	2	0	763	0	0	0	0	0	0	0	0	0	0	0	0	0	0	0.79		"ANNA WILLIAMS, COMPLIANCE COORDINATOR"	3365260198	3/17/2004	3/31/2004		
2003	20030909	CLARKE - MOBILE COUNTIES GAS DIST	2456	2003 COLLEGE AVENUE	JACKSON	CLARKE	AL	36545						 AL	0	0	0	207	219	0	0	0	0	0	426	0	0	0	4167	4590	0	0	0	0	0	8757	0	68	33	106	0	0	207	0	0	0	0	0	0	0	0	0	0	0	0	0	0	0	0	0	0	0	0	0	0	0	0	0	0	0	0	0	179	23	17	0	0	219	0	0	0	0	0	0	0	0	0	0	0	0	0	0	0	0	0	0	0	0	0	0	247	56	123	0	0	426	172	0	4167	0	0	0	0	4167	0	0	0	0	0	0	0	0	0	0	0	0	0	0	0	0	0	0	0	0	0	0	0	0	0	0	0	0	0	4536	52	2	0	0	4590	0	0	0	0	0	0	0	0	0	0	0	0	0	0	0	0	0	0	0	0	0	0	8703	52	2	0	0	8757	0	1	0	4	8	23	1	4	0	2	0	0	0	0	0		NEAL GRIMES	2512462428	3/17/2004	3/30/2004		
2003	20030910	"CITRONELLE GAS UTILITIES BOARD, TOWN OF"	2421	4800 MCCRARY ROAD	SEMMES		AL	36575	PO BOX 319	SEMMES		AL	36575	 AL	0	0	0	140	260	0	0	0	0	0	400	0	0	0	2429	4477	0	0	0	0	0	6906	0	72	45	17	0	0	134	0	0	0	0	0	0	0	0	0	0	0	0	0	0	0	0	0	0	0	0	0	0	0	0	0	0	0	0	0	255	11	0	0	0	266	0	0	0	0	0	0	0	0	0	0	0	0	0	0	0	0	0	0	0	0	0	0	327	56	17	0	0	400	202	0	2429	0	0	0	0	2429	0	0	0	0	0	0	0	0	0	0	0	0	0	0	0	0	0	0	0	0	0	0	0	0	0	0	0	0	0	4473	4	0	0	0	4477	0	0	0	0	0	0	0	0	0	0	0	0	0	0	0	0	0	0	0	0	0	0	6902	4	0	0	0	6906	1	2	1	4	5	101	1	11	2	12	0	0	0	0	3	DBA SOUTH ALABAMA UTILITIES	DARLENE HUDSON	2516494316	3/17/2004	3/30/2004		
2003	20030911	GAINESBORO NATURAL GAS SYSTEM	6020	402 EAST HALL	GAINESBORO	JACKSON	TN	38562						 TN	0	0	0	31	0	0	0	0	0	0	31	0	0	0	239	178	0	0	0	0	0	417	0	11	7	13	0	0	31	0	0	0	0	0	0	0	0	0	0	0	0	0	0	0	0	0	0	0	0	0	0	0	0	0	0	0	0	0	0	0	0	0	0	0	0	0	0	0	0	0	0	0	0	0	0	0	0	0	0	0	0	0	0	0	0	0	11	7	13	0	0	31	154	0	239	15	0	1	0	255	0	0	0	0	0	0	0	0	0	0	0	0	0	0	0	0	0	0	0	0	0	0	0	0	0	0	0	0	0	161	1	0	0	0	162	0	0	0	0	0	0	0	0	0	0	0	0	0	0	0	0	0	0	0	0	0	0	400	16	0	1	0	417	0	0	0	0	0	1	0	0	0	1	0	0	0	0	3		MIKE WASILL	9312689315	3/17/2004	3/30/2004		
2003	20030912	DANVILLE GAS DEPT	3110	1040 MONUMENT STREET	DANVILLE	PITTSYLVANIA	VA	24541						 VA	1	7	0	82	157	81	14	0	0	0	342	2988	41	0	4282	10965	1	0	0	0	0	18277	0	33	9	25	23	0	90	0	0	5	6	3	0	14	0	0	0	0	0	0	0	0	0	37	42	2	0	81	0	0	0	0	0	0	0	0	76	49	28	4	0	157	0	0	0	0	0	0	0	0	0	0	0	0	0	0	0	0	0	0	0	0	0	0	109	100	101	32	0	342	100	21	4466	2782	36	3	3	7311	0	0	0	0	0	0	0	0	0	0	0	0	0	0	0	0	0	0	1	0	1	0	0	0	0	0	0	0	9	9616	1311	27	2	0	10965	0	0	0	0	0	0	0	0	0	0	0	0	0	0	0	0	0	0	0	0	0	30	14082	4093	63	6	3	18277	31	0	3	14	3	20	5	3	2	4	46	163	196	0	3.65		DONALD FITZGERALD	4347995284	3/17/2004	3/30/2004		
2003	20030913	WEST COAST GAS CO INC	31267	9203 BEATY DRIVE	SACRAMENTO 	SACRAMENTO	CA	95826						 CA	0	0	0	31	12	0	0	0	0	0	43	0	0	0	150	1158	0	0	0	0	0	1308	0	9	16	6	0	0	31	0	0	0	0	0	0	0	0	0	0	0	0	0	0	0	0	0	0	0	0	0	0	0	0	0	0	0	0	0	0	12	0	0	0	12	0	0	0	0	0	0	0	0	0	0	0	0	0	0	0	0	0	0	0	0	0	0	9	28	6	0	0	43	60	0	150	0	0	0	0	150	0	0	0	0	0	0	0	0	0	0	0	0	0	0	0	0	0	0	0	0	0	0	0	0	0	0	0	0	0	1100	58	0	0	0	1158	0	0	0	0	0	0	0	0	0	0	0	0	0	0	0	0	0	0	0	0	0	0	1250	58	0	0	0	1308	30	20	1	3	0	0	0	0	0	0	0	0	12	0	3.1		RAYMOND J. CZAHAR	9163644100	3/17/2004	3/30/2004		
2003	20030914	DEKALB - CHEROKEE COUNTIES GAS DISTRICT	3200	1411 CHITWOOD AVE. S.E.	FORT PAYNE	DEKALB	AL	35967	205 GRAND AVE. N.W.	FORT PAYNE	DEKALB	AL	35967	 AL	0	0	0	299	274	0	0	0	0	0	573	0	0	0	1100	7443	0	0	0	0	0	8543	0	23	164	53	59	0	299	0	0	0	0	0	0	0	0	0	0	0	0	0	0	0	0	0	0	0	0	0	0	0	0	0	0	0	0	0	188	67	19	0	0	274	0	0	0	0	0	0	0	0	0	0	0	0	0	0	0	0	0	0	0	0	0	0	211	231	72	59	0	573	225	0	1079	13	8	0	0	1100	0	0	0	0	0	0	0	0	0	0	0	0	0	0	0	0	0	0	0	0	0	0	0	0	0	0	0	0	0	7263	170	10	0	0	7443	0	0	0	0	0	0	0	0	0	0	0	0	0	0	0	0	0	0	0	0	0	0	8342	183	18	0	0	8543	0	1	0	0	10	49	1	2	3	4	0	0	0	0	0		"PHILLIP L. ROBERTS, OPERATIONS SUPERVISOR"	2568458932	3/17/2004	3/30/2004		
2003	20030915	"COLFAX GAS DEPT, TOWN OF"	2548	1208 MAIN ST COLFAX CITY 	COLFAX	GRANT	LA	71417						 LA	0	0	0	31	16	0	0	0	0	0	47	0	0	0	917	288	0	0	0	0	0	1205	0	16	15	0	0	0	31	0	0	0	0	0	0	0	0	0	0	0	0	0	0	0	0	0	0	0	0	0	0	2	0	0	0	0	2	0	10	1	3	0	0	14	0	0	0	0	0	0	0	0	0	0	0	0	0	0	0	0	0	0	0	0	0	0	28	16	3	0	0	47	30	0	910	2	0	0	0	912	0	0	0	0	0	0	0	0	0	0	0	0	0	0	0	0	0	0	0	0	0	0	290	3	0	0	0	293	0	0	0	0	0	0	0	0	0	0	0	0	0	0	0	0	0	0	0	0	0	0	0	0	0	0	0	0	0	1200	5	0	0	0	1205	0	4	5	1	1	13	0	0	0	8	0	3	0	0	5		DERRIAN SAPP	3186273711	3/17/2004	3/30/2004		
2003	20030916	"JACKSON, TOWN OF"	9030	1610 CHARTER STREET	JACKSON	EAST FELICIANA	LA	70748						 LA	0	0	0	3	6	0	0	0	0	0	9	0	0	0	211	568	0	0	0	0	0	779	0	2	1	0	0	0	3	0	0	0	0	0	0	0	0	0	0	0	0	0	0	0	0	0	0	0	0	0	0	0	0	0	0	0	0	0	6	0	0	0	0	6	0	0	0	0	0	0	0	0	0	0	0	0	0	0	0	0	0	0	0	0	0	0	8	1	0	0	0	9	20	0	211	0	0	0	0	211	0	0	0	0	0	0	0	0	0	0	0	0	0	0	0	0	0	0	0	0	0	0	0	0	0	0	0	0	0	565	2	1	0	0	568	0	0	0	0	0	0	0	0	0	0	0	0	0	0	0	0	0	0	0	0	0	0	776	2	1	0	0	779	0	0	0	0	0	0	0	1	0	5	0	0	0	0	1		RICHARD DUDLEY	2256347777	3/17/2004	3/30/2004		
2003	20030917	"BILLINGS GAS CO, TOWN OF"	1448	122 W. MAIN ST BOX 216	BILLINGS	NOBLE	OK	74630						 OK	0	0	0	0	10	0	0	0	0	0	10	0	0	0	0	187	0	0	0	0	0	187	0	0	0	0	0	0	0	0	0	0	0	0	0	0	0	0	0	0	0	0	0	0	0	0	0	0	0	0	0	0	0	0	0	0	0	0	7	3	0	0	0	10	0	0	0	0	0	0	0	0	0	0	0	0	0	0	0	0	0	0	0	0	0	0	7	3	0	0	0	10	0	0	0	0	0	0	0	0	0	0	0	0	0	0	0	0	0	0	0	0	0	0	0	0	0	0	0	0	0	0	0	0	0	0	0	0	0	181	6	0	0	0	187	0	0	0	0	0	0	0	0	0	0	0	0	0	0	0	0	0	0	0	0	0	0	181	6	0	0	0	187	0	0	0	0	0	0	0	0	0	0	0	0	0	0	1.58		RICK HARTZ	5807253610	3/17/2004	3/30/2004		
2003	20030918	ORWELL NATURAL GAS CO	14341	10 E. MAIN ST. PO BOX 190	ORWELL	ASHTABULA	OH	44076						 OH	0	0	0	0	155	0	0	0	0	0	155	0	0	0	0	3503	0	0	0	0	0	3503	0	0	0	0	0	0	0	0	0	0	0	0	0	0	0	0	0	0	0	0	0	0	0	0	0	0	0	0	0	0	0	0	0	0	0	0	84	64	7	0	0	155	0	0	0	0	0	0	0	0	0	0	0	0	0	0	0	0	0	0	0	0	0	0	84	64	7	0	0	155	75	0	0	0	0	0	0	0	0	0	0	0	0	0	0	0	0	0	0	0	0	0	0	0	0	0	0	0	0	0	0	0	0	0	0	0	0	3486	16	1	0	0	3503	0	0	0	0	0	0	0	0	0	0	0	0	0	0	0	0	0	0	0	0	0	0	3486	16	1	0	0	3503	0	0	0	0	0	0	0	0	0	0	0	0	0	0	0		ANNE M. YEAGER	4404378600	3/17/2004	3/30/2004		
2003	20030919	CITRUS SPRINGS UTILITY	2425	1548 STATE RD 44 W	LEEBURG	LAKE	FL	34748						 FL	0	0	0	11	0	0	0	0	0	0	11	0	0	0	339	91	0	0	0	0	0	430	0	8	1	1	1	0	11	0	0	0	0	0	0	0	0	0	0	0	0	0	0	0	0	0	0	0	0	0	0	0	0	0	0	0	0	0	0	0	0	0	0	0	0	0	0	0	0	0	0	0	0	0	0	0	0	0	0	0	0	0	0	0	0	0	8	1	1	1	0	11	100	0	339	0	0	0	0	339	0	0	0	0	0	0	0	0	0	0	0	0	0	0	0	0	0	0	0	0	0	0	0	0	0	0	0	0	0	91	0	0	0	0	91	0	0	0	0	0	0	0	0	0	0	0	0	0	0	0	0	0	0	0	0	0	0	430	0	0	0	0	430	0	1	0	0	0	0	0	0	0	0	1	1	0	0	3		JACK BOLDERSON	3527876191	3/17/2004	3/30/2004		
2003	20030920	"BARDWELL GAS SYSTEM, CITY OF"	1120	ONE FRONT STREET	BARDWELL	CARLISLE	KY	42023						 KY	0	0	0	24	7	0	0	0	0	0	31	0	0	0	390	470	0	0	0	0	0	860	0	12	12	0	0	0	24	0	0	0	0	0	0	0	0	0	0	0	0	0	0	0	0	0	0	0	0	0	0	0	0	0	0	0	0	0	7	0	0	0	0	7	0	0	0	0	0	0	0	0	0	0	0	0	0	0	0	0	0	0	0	0	0	0	19	12	0	0	0	31	0	0	390	0	0	0	0	390	0	0	0	0	0	0	0	0	0	0	0	0	0	0	0	0	0	0	0	0	0	0	0	0	0	0	0	0	0	470	0	0	0	0	470	0	0	0	0	0	0	0	0	0	0	0	0	0	0	0	0	0	0	0	0	0	0	860	0	0	0	0	860	0	0	0	2	0	1	0	0	0	0	0	0	0	0	5		ROBIN PHELPS	2706283833	3/17/2004	3/30/2004		
2003	20030921	KENTWOOD NATURAL GAS SYSTEM	10180	308 AVE. G	KENTWOOD	TANGIPAHOA	LA	70444						 LA	0	0	0	28	4	0	0	0	0	0	32	0	0	0	706	90	0	0	0	0	0	796	0	13	15	0	0	0	28	0	0	0	0	0	0	0	0	0	0	0	0	0	0	0	0	0	0	0	0	0	0	0	0	0	0	0	0	0	1	3	0	0	0	4	0	0	0	0	0	0	0	0	0	0	0	0	0	0	0	0	0	0	0	0	0	0	14	18	0	0	0	32	0	0	683	17	0	0	0	700	0	0	0	0	0	0	0	0	0	0	0	0	0	0	0	0	0	0	0	0	0	0	0	0	0	0	0	0	0	96	0	0	0	0	96	0	0	0	0	0	0	0	0	0	0	0	0	0	0	0	0	0	0	0	0	0	0	779	17	0	0	0	796	11	26	0	0	0	0	0	0	0	0	0	0	37	0	1		DAVID SELLERS/MICHELLE ANTHONY	9852293451	3/17/2004	3/30/2004		
2003	20030922	NIAGARA MOHAWK POWER CORP	13480	300 ERIE BOULEVARD WEST	SYRACUSE	ONONDAGA	NY	13202						 NY	54	487	0	3338	3501	829	0	0	0	0	8209	39637	105847	0	21596	322483	3902	0	20523	0	0	513988	0	287	961	1778	759	94	3879	0	0	0	0	0	0	0	0	0	0	0	0	0	0	0	5	307	441	66	10	829	0	0	0	0	0	0	0	0	1555	1096	845	5	0	3501	0	0	0	0	0	0	0	0	0	0	0	0	0	0	0	0	0	0	0	0	0	0	1847	2364	3064	830	104	8209	71	0	80884	84475	1467	244	10	167080	0	0	0	0	0	0	0	0	20477	46	0	0	0	20523	0	1877	2004	19	2	0	3902	0	0	0	0	0	0	0	0	314099	7544	731	100	9	322483	0	0	0	0	0	0	0	0	0	0	0	0	0	0	0	0	0	0	0	0	0	0	417337	94069	2217	346	19	513988	173	404	143	54	116	540	12	19	10	9	431	440	151	0	1.1		MARLENE M. O'DONNELL	3154285972	3/17/2004	3/30/2004		
2003	20030923	HAMILTON MUNICIPAL UTILITIES	7045	"14 E. MAIN, PO BOX 58"	HAMILTON	GREENWOOD	KS	66853						 KS	0	0	0	14	0	0	0	0	0	0	14	0	0	0	168	0	0	0	0	0	0	168	0	4	10	0	0	0	14	0	0	0	0	0	0	0	0	0	0	0	0	0	0	0	0	0	0	0	0	0	0	0	0	0	0	0	0	0	0	0	0	0	0	0	0	0	0	0	0	0	0	0	0	0	0	0	0	0	0	0	0	0	0	0	0	0	4	10	0	0	0	14	0	0	144	3	0	0	0	147	0	0	0	0	0	0	0	0	0	0	0	0	0	0	0	0	0	0	0	0	0	0	20	1	0	0	0	21	0	0	0	0	0	0	0	0	0	0	0	0	0	0	0	0	0	0	0	0	0	0	0	0	0	0	0	0	0	164	4	0	0	0	168	0	0	0	0	0	0	0	0	0	0	0	0	0	0	0		SCOTT LEDFORD	6206783371	3/17/2004	3/30/2004		
2003	20030924	"PRESTON, CITY OF"	15848	1 W. GILLET ST.	PRESTON		IA	52069						 IA	0	0	0	5	0	0	0	0	0	0	5	0	0	0	328	122	0	0	0	0	0	450	0	4	1	0	0	0	5	0	0	0	0	0	0	0	0	0	0	0	0	0	0	0	0	0	0	0	0	0	0	0	0	0	0	0	0	0	0	0	0	0	0	0	0	0	0	0	0	0	0	0	0	0	0	0	0	0	0	0	0	0	0	0	0	0	4	1	0	0	0	5	100	0	294	32	2	0	0	328	0	0	0	0	0	0	0	0	0	0	0	0	0	0	0	0	0	0	0	0	0	0	120	2	0	0	0	122	0	0	0	0	0	0	0	0	0	0	0	0	0	0	0	0	0	0	0	0	0	0	0	0	0	0	0	0	0	414	34	2	0	0	450	0	0	0	0	0	0	0	0	0	0	0	0	0	0	0.0001		DAVID MICHEL	5636893081	3/17/2004	3/30/2004		
2003	20030925	"HATCH GAS DEPT, VILLAGE OF"	7140	133 N FRANKLIN ST BOX 220	HATCH 	DONA ANA	NM	87937						 NM	0	0	0	6	27	0	0	0	8	0	41	0	0	0	12	506	0	0	0	406	0	924	0	0	6	0	0	0	6	0	0	0	0	0	0	0	0	0	0	0	0	0	0	0	0	0	0	0	0	0	0	27	0	0	0	0	27	0	5	3	0	0	0	8	0	0	0	0	0	0	0	0	0	0	0	0	0	0	0	0	0	0	0	0	0	0	32	9	0	0	0	41	75	0	12	0	0	0	0	12	0	0	0	0	0	0	0	0	0	0	0	0	0	0	0	0	0	0	0	0	0	0	506	10	0	0	0	516	0	396	0	0	0	0	396	0	0	0	0	0	0	0	0	0	0	0	0	0	0	0	0	0	0	0	0	0	0	914	10	0	0	0	924	0	0	0	0	2	2	0	0	0	0	2	0	0	0	0.02		GILBERT VALLEJOS	5052675216	3/17/2004	3/31/2004		
2003	20030926	MILLER OIL COMPANY	31065	120 1ST AVENUE EAST	CULBERTSON	ROOSEVELT	MT	59218						 MT	0	0	0	5	1	0	0	0	0	0	6	0	0	0	222	186	0	0	0	0	0	408	0	4	1	0	0	0	5	0	0	0	0	0	0	0	0	0	0	0	0	0	0	0	0	0	0	0	0	0	0	0	0	0	0	0	0	0	1	0	0	0	0	1	0	0	0	0	0	0	0	0	0	0	0	0	0	0	0	0	0	0	0	0	0	0	5	1	0	0	0	6	75	222	0	0	0	0	0	222	0	0	0	0	0	0	0	0	0	0	0	0	0	0	0	0	0	0	0	0	0	0	0	0	0	0	0	0	186	0	0	0	0	0	186	0	0	0	0	0	0	0	0	0	0	0	0	0	0	0	0	0	0	0	0	0	408	0	0	0	0	0	408	0	0	0	0	0	0	0	0	0	0	0	0	0	0	0		GORDON W. MILLER	4067876271	3/17/2004	3/31/2004		
2003	20030927	"TOLEDO, VILLAGE OF"	19510	160 COURTHOUSE SQ BOX 443	TOLEDO 	CUMBERLAND	IL	62468						 IL	0	0	0	15	0	0	0	0	0	0	15	0	0	0	577	0	0	0	0	0	0	577	0	11	3	1	0	0	15	0	0	0	0	0	0	0	0	0	0	0	0	0	0	0	0	0	0	0	0	0	0	0	0	0	0	0	0	0	0	0	0	0	0	0	0	0	0	0	0	0	0	0	0	0	0	0	0	0	0	0	0	0	0	0	0	0	11	3	1	0	0	15	65	0	567	10	0	0	0	577	0	0	0	0	0	0	0	0	0	0	0	0	0	0	0	0	0	0	0	0	0	0	0	0	0	0	0	0	0	0	0	0	0	0	0	0	0	0	0	0	0	0	0	0	0	0	0	0	0	0	0	0	0	0	0	0	0	567	10	0	0	0	577	0	0	0	0	0	0	0	0	0	0	0	0	0	0	2.8		DOUG MORGAN	2178493336	3/17/2004	3/31/2004		
2003	20030928	TRIMBLE GAS SYSTEM	19670	BOX 215 22 MAIN STREET	TRIMBLE 	DYER	TN	38259						 TN	0	0	0	5	0	0	0	0	0	0	5	0	0	0	282	25	0	0	0	0	0	307	0	5	0	0	0	0	5	0	0	0	0	0	0	0	0	0	0	0	0	0	0	0	0	0	0	0	0	0	0	0	0	0	0	0	0	0	0	0	0	0	0	0	0	0	0	0	0	0	0	0	0	0	0	0	0	0	0	0	0	0	0	0	0	0	5	0	0	0	0	5	0	0	278	4	0	0	0	282	0	0	0	0	0	0	0	0	0	0	0	0	0	0	0	0	0	0	0	0	0	0	0	0	0	0	0	0	0	25	0	0	0	0	25	0	0	0	0	0	0	0	0	0	0	0	0	0	0	0	0	0	0	0	0	0	0	303	4	0	0	0	307	0	0	0	0	1	0	0	0	0	0	0	0	0	0	1		DAVID NORSWORTHY	7312973955	3/17/2004	3/31/2004		
2003	20030929	MARION OAKS UTILITIES	12169	1548 STATE ROAD 44 WEST	LEESBURG	LAKE	FL	34748						 FL	0	0	0	9	7	0	0	0	0	0	16	0	0	0	220	652	0	0	0	0	0	872	0	6	3	0	0	0	9	0	0	0	0	0	0	0	0	0	0	0	0	0	0	0	0	0	0	0	0	0	0	0	0	0	0	0	0	0	3	4	0	0	0	7	0	0	0	0	0	0	0	0	0	0	0	0	0	0	0	0	0	0	0	0	0	0	9	7	0	0	0	16	100	0	220	0	0	0	0	220	0	0	0	0	0	0	0	0	0	0	0	0	0	0	0	0	0	0	0	0	0	0	0	0	0	0	0	0	0	652	0	0	0	0	652	0	0	0	0	0	0	0	0	0	0	0	0	0	0	0	0	0	0	0	0	0	0	872	0	0	0	0	872	0	2	0	0	0	0	0	0	0	0	1	16	0	0	9		JACK BOLDERSON	3527876191	3/17/2004	3/31/2004		
2003	20030930	WAKEFIELD MUNICIPAL LIGHT DEPT	22035	9 ALBION STREET	WAKEFIELD		MA	1880						 MA	43	0	0	6	24	4	0	0	0	0	77	2041	0	0	639	1697	0	0	1	0	0	4378	0	3	39	6	1	0	49	0	0	0	0	0	0	0	0	0	0	0	0	0	0	0	0	3	0	0	0	3	0	0	0	0	0	0	0	0	3	4	17	1	0	25	0	0	0	0	0	0	0	0	0	0	0	0	0	0	0	0	0	0	0	0	0	0	6	46	23	2	0	77	0	299	68	2284	29	0	0	2680	0	0	0	0	0	0	0	0	1	0	0	0	0	1	0	0	0	0	0	0	0	0	0	0	0	0	0	0	3	858	796	35	5	0	1697	0	0	0	0	0	0	0	0	0	0	0	0	0	0	0	0	0	0	0	0	0	302	927	3080	64	5	0	4378	25	44	4	0	0	0	0	0	0	0	0	0	10	0	2.29	"THIS SUPPLEMENT REPORT INCLUDES 0.5 MILES OF 12"" PE PIPE AND 4 LEAKS FROM OUTSIDE FORCES THAT WERE OMITTED FROM THE ORIGINAL REPORT."	LEO J. MAJESKI	7812466363	3/17/2004	3/31/2004		
2003	20030931	CAPITAN - CARRIZOZO NATURAL GAS ASSO	2072	217 LINCOLN & 3RD STREET	CAPITAN 	LINCOLN	NM	88316						 NM	0	0	0	38	4	0	0	0	21	0	63	0	0	0	844	19	0	0	0	397	0	1260	0	0	38	0	0	0	38	0	0	0	0	0	0	0	0	0	0	0	0	0	0	0	0	0	0	0	0	0	0	4	0	0	0	0	4	0	21	0	0	0	0	21	0	0	0	0	0	0	0	0	0	0	0	0	0	0	0	0	0	0	0	0	0	0	25	38	0	0	0	63	0	0	844	0	0	0	0	844	0	0	0	0	0	0	0	0	0	0	0	0	0	0	0	0	0	0	0	0	0	0	19	0	0	0	0	19	0	397	0	0	0	0	397	0	0	0	0	0	0	0	0	0	0	0	0	0	0	0	0	0	0	0	0	0	0	1260	0	0	0	0	1260	0	0	0	0	0	0	0	0	0	0	0	0	0	0	0		ERINEO VALLEJOS	5053542260	3/17/2004	3/31/2004		
2003	20030932	BRAINARD GAS CORP	31366	4369 BRAINARD ROAD	ORANGE 	VILLAGE	OH	44022						 OH	0	0	0	6	11	0	0	0	0	0	17	0	0	0	0	75	0	0	0	0	0	75	0	5	1	0	0	0	6	0	0	0	0	0	0	0	0	0	0	0	0	0	0	0	0	0	0	0	0	0	0	0	0	0	0	0	0	0	8	3	0	0	0	11	0	0	0	0	0	0	0	0	0	0	0	0	0	0	0	0	0	0	0	0	0	0	13	4	0	0	0	17	150	0	0	0	0	0	0	0	0	0	0	0	0	0	0	0	0	0	0	0	0	0	0	0	0	0	0	0	0	0	0	0	0	0	0	0	0	68	5	2	0	0	75	0	0	0	0	0	0	0	0	0	0	0	0	0	0	0	0	0	0	0	0	0	0	68	5	2	0	0	75	0	0	0	0	1	0	0	0	0	0	0	0	0	0	0		EDWARD J. BONK	2165919110	3/17/2004	3/31/2004		
2003	20030933	"TALLASSEE, CITY OF"	19050	3 FREEMAN AVENUE	TALLASSEE	ELMORE & TALLAPOOSA	AL	36078						 AL	0	0	0	3	16	38	0	0	0	0	57	0	0	322	106	1753	0	0	0	0	0	2181	0	1	3	2	0	0	6	0	0	0	0	0	0	0	0	0	0	0	0	0	0	0	6	30	2	0	0	38	0	0	0	0	0	0	0	0	8	2	3	0	0	13	0	0	0	0	0	0	0	0	0	0	0	0	0	0	0	0	0	0	0	0	0	0	15	35	7	0	0	57	0	0	106	0	0	0	0	106	0	0	0	0	0	0	0	0	0	0	0	0	0	0	0	0	0	0	0	0	0	0	0	0	0	0	0	0	0	1753	0	0	0	0	1753	0	0	0	0	0	0	0	0	322	0	0	0	0	322	0	0	0	0	0	0	0	0	2181	0	0	0	0	2181	0	2	2	0	2	3	0	0	0	0	0	0	2	0	0.027		JAMES GARNER	3342836571	3/17/2004	3/31/2004		
2003	20030934	COMMUNITY ENERGY RESOURCE COOPERATIVE	31413	15461 US 36	MARYSVILLE	UNION	OH	43040						 OH	0	0	0	0	13	0	0	0	0	0	13	0	0	0	0	174	0	0	0	0	0	174	0	0	0	0	0	0	0	0	0	0	0	0	0	0	0	0	0	0	0	0	0	0	0	0	0	0	0	0	0	0	0	0	0	0	0	0	5	2	6	0	0	13	0	0	0	0	0	0	0	0	0	0	0	0	0	0	0	0	0	0	0	0	0	0	5	2	6	0	0	13	75	0	0	0	0	0	0	0	0	0	0	0	0	0	0	0	0	0	0	0	0	0	0	0	0	0	0	0	0	0	0	0	0	0	0	0	0	162	11	1	0	0	174	0	0	0	0	0	0	0	0	0	0	0	0	0	0	0	0	0	0	0	0	0	0	162	11	1	0	0	174	0	0	0	0	1	0	0	0	0	0	0	0	0	0	2.1		F. JOSEPH LOVE	9376421826	3/17/2004	3/31/2004		
2003	20030935	"BUCKLEY GAS DEPT, CITY OF"	1848	PO BOX 1960 933 MAIN ST	BUCKLEY	PIERCE	WA	98321						 WA	0	0	0	24	10	0	0	0	0	0	34	0	0	0	963	362	0	0	0	0	0	1325	0	20	4	0	0	0	24	0	0	0	0	0	0	0	0	0	0	0	0	0	0	0	0	0	0	0	0	0	0	0	0	0	0	0	0	0	10	0	0	0	0	10	0	0	0	0	0	0	0	0	0	0	0	0	0	0	0	0	0	0	0	0	0	0	30	4	0	0	0	34	0	0	952	10	1	0	0	963	0	0	0	0	0	0	0	0	0	0	0	0	0	0	0	0	0	0	0	0	0	0	0	0	0	0	0	0	0	362	0	0	0	0	362	0	0	0	0	0	0	0	0	0	0	0	0	0	0	0	0	0	0	0	0	0	0	1314	10	1	0	0	1325	0	1	0	0	0	0	0	0	0	0	0	0	0	0	0		"DAVE SCHMIDT, CITY ADMINISTRATOR"	3608291921	3/17/2004	3/31/2004		
2003	20030936	ZIA NATURAL GAS CO	25000	707 SHORT DR  DRAWER 888	RUIDOSO DOWNS	LINCOLN	NM	88346	101 DIVISION ST BOX 541	WORLAND 	WASHAKIE	WY	82401	 NM	0	0	90	165	481	0	0	0	0	0	736	0	0	0	1624	9934	11534	0	0	0	0	23092	0	143	45	67	0	0	255	0	0	0	0	0	0	0	0	0	0	0	0	0	0	0	0	0	0	0	0	0	0	8	0	0	0	0	8	0	417	56	0	0	0	473	0	0	0	0	0	0	0	0	0	0	0	0	0	0	0	0	0	0	0	0	0	0	568	101	67	0	0	736	52	0	11311	242	5	0	0	11558	0	0	0	0	0	0	0	0	0	0	0	0	0	0	0	0	0	0	0	0	0	0	0	0	0	0	0	0	0	11327	207	0	0	0	11534	0	0	0	0	0	0	0	0	0	0	0	0	0	0	0	0	0	0	0	0	0	0	22638	449	5	0	0	23092	5	0	0	0	29	55	1	0	3	4	6	0	0	0	0.63		LESLIE HAMILTON/DIVISION MANAGER	5053784277	3/17/2004	3/31/2004		
2003	20030937	ZIA NATURAL GAS CO	25000	510 E. BENDER BLVD	HOBBS	LEA	NM	88240	PO BOX 541	WORLAND		WY	82401	 TX	0	0	0	0	4	0	0	0	0	0	4	0	0	0	0	29	0	0	0	0	0	29	0	0	0	0	0	0	0	0	0	0	0	0	0	0	0	0	0	0	0	0	0	0	0	0	0	0	0	0	0	0	0	0	0	0	0	0	3	1	0	0	0	4	0	0	0	0	0	0	0	0	0	0	0	0	0	0	0	0	0	0	0	0	0	0	3	1	0	0	0	4	15	0	0	0	0	0	0	0	0	0	0	0	0	0	0	0	0	0	0	0	0	0	0	0	0	0	0	0	0	0	0	0	0	0	0	0	0	29	0	0	0	0	29	0	0	0	0	0	0	0	0	0	0	0	0	0	0	0	0	0	0	0	0	0	0	29	0	0	0	0	29	0	0	0	0	0	0	0	0	0	0	0	0	0	0	0.28		GUY KESNER	5053924277	3/17/2004	3/31/2004		
2003	20030938	CASCADE NATURAL GAS CORP	2128	222 FAIRVIEW AVENUE N. 	SEATTLE	KING	WA	98109						 WA	0	0	7	2760	1025	0	0	0	0	0	3792	0	0	50	119373	59364	0	0	0	0	0	178787	0	1897	492	338	38	2	2767	0	0	0	0	0	0	0	0	0	0	0	0	0	0	0	0	0	0	0	0	0	0	0	0	0	0	0	0	0	845	175	5	0	0	1025	0	0	0	0	0	0	0	0	0	0	0	0	0	0	0	0	0	0	0	0	0	0	2742	667	343	38	2	3792	82	0	115302	3930	179	12	0	119423	0	0	0	0	0	0	0	0	0	0	0	0	0	0	0	0	0	0	0	0	0	0	0	0	0	0	0	0	0	58707	631	26	0	0	59364	0	0	0	0	0	0	0	0	0	0	0	0	0	0	0	0	0	0	0	0	0	0	174009	4561	205	12	0	178787	4	4	1	1	70	229	4	1	1	1	5	3	0	0	0.2		"JACE MCMASTER, PROJECT ENGINEER"	2063816738	3/17/2004	3/31/2004		
2003	20030939	CASCADE NATURAL GAS CORP	2128	222 FAIRVIEW AVENUE N.	SEATTLE	KING	WA	98109						 OR	0	0	0	789	414	0	0	0	0	0	1203	0	0	0	31262	20364	0	0	0	0	0	51626	0	562	150	77	0	0	789	0	0	0	0	0	0	0	0	0	0	0	0	0	0	0	0	0	0	0	0	0	0	0	0	0	0	0	0	0	360	54	0	0	0	414	0	0	0	0	0	0	0	0	0	0	0	0	0	0	0	0	0	0	0	0	0	0	922	204	77	0	0	1203	83	0	29848	1373	37	4	0	31262	0	0	0	0	0	0	0	0	0	0	0	0	0	0	0	0	0	0	0	0	0	0	0	0	0	0	0	0	0	20112	246	6	0	0	20364	0	0	0	0	0	0	0	0	0	0	0	0	0	0	0	0	0	0	0	0	0	0	49960	1619	43	4	0	51626	1	0	0	1	33	106	3	6	1	0	0	2	0	0	0.2		"JACE MCMASTER, PROJECT ENGINEER"	2063816738	3/17/2004	3/31/2004		
2003	20030940	NORTHWESTERN PUBLIC SERVICE CO	13850	600 MARKET ST. W.	HURON	BEADLE	SD	57350						 NE	0	0	0	420	314	0	0	0	0	0	734	0	0	0	16941	22037	0	0	0	0	0	38978	0	237	120	59	4	0	420	0	0	0	0	0	0	0	0	0	0	0	0	0	0	0	0	0	0	0	0	0	0	0	1	0	0	0	1	0	267	46	0	0	0	313	0	0	0	0	0	0	0	0	0	0	0	0	0	0	0	0	0	0	0	0	0	0	504	167	59	4	0	734	98	0	11262	5639	40	0	0	16941	0	0	0	0	0	0	0	0	0	0	0	0	0	0	0	0	0	0	0	0	0	0	0	0	0	0	0	0	0	21889	144	4	0	0	22037	0	0	0	0	0	0	0	0	0	0	0	0	0	0	0	0	0	0	0	0	0	0	33151	5783	44	0	0	38978	0	1	0	1	11	101	0	0	2	2	0	4	0	0	1.62	"*EXAMPLES OF ""OTHER"" LEAKS INCLUDE GOPHER AND TREADED LEAKS ON METERFITS AND FIRST CUT REGULATORS."	"MELISSA BARUTH, DOT COORDINATOR"	6053537462	3/17/2004	3/31/2004		
2003	20030941	NORTHWESTERN PUBLIC SERVICE CO	13850	600 MARKET ST. W.	HURON	BEADLE	SD	57350						 SD	0	0	0	699	669	0	0	0	0	0	1368	0	0	0	19835	24462	0	0	0	0	0	44297	0	360	226	85	28	0	699	0	0	0	0	0	0	0	0	0	0	0	0	0	0	0	0	0	0	0	0	0	0	0	0	0	0	0	0	0	473	196	0	0	0	669	0	0	0	0	0	0	0	0	0	0	0	0	0	0	0	0	0	0	0	0	0	0	833	422	85	28	0	1368	0	0	6990	12663	178	4	0	19835	0	0	0	0	0	0	0	0	0	0	0	0	0	0	0	0	0	0	0	0	0	0	0	0	0	0	0	0	0	24180	270	12	0	0	24462	0	0	0	0	0	0	0	0	0	0	0	0	0	0	0	0	0	0	0	0	0	0	31170	12933	190	4	0	44297	1	4	1	12	16	42	1	5	1	20	0	56	12	0	0.89		MELISSA BARUTH/DOT COORDINATOR	6053537462	3/17/2004	3/31/2004		
2003	20030942	"DUPO GAS SYSTEM, VILLAGE OF"	3630	100 N. SECOND ST.	DUPO	ST. CLAIR	IL	62239						 IL	0	0	0	12	9	0	0	0	0	0	21	0	0	0	890	411	0	0	2	0	0	1303	0	6	6	0	0	0	12	0	0	0	0	0	0	0	0	0	0	0	0	0	0	0	0	0	0	0	0	0	0	0	0	0	0	0	0	0	4	5	0	0	0	9	0	0	0	0	0	0	0	0	0	0	0	0	0	0	0	0	0	0	0	0	0	0	10	11	0	0	0	21	75	0	872	18	0	0	0	890	0	0	0	0	0	0	0	0	2	0	0	0	0	2	0	0	0	0	0	0	0	0	0	0	0	0	0	0	0	404	4	2	1	0	411	0	0	0	0	0	0	0	0	0	0	0	0	0	0	0	0	0	0	0	0	0	0	1278	22	2	1	0	1303	0	0	0	4	0	1	0	0	0	0	0	20	2	0	0		ROBERT ERXLEBEN	6184752544	3/17/2004	3/31/2004		
2003	20030943	"NASHVILLE, CITY OF"	13030	190 N. EAST COURT ST.	NASHVILLE	WASHINGTON	IL	62263						 IL	0	0	0	30	0	0	0	0	0	0	30	0	0	0	982	29	0	0	471	0	0	1482	0	15	9	6	0	0	30	0	0	0	0	0	0	0	0	0	0	0	0	0	0	0	0	0	0	0	0	0	0	0	0	0	0	0	0	0	0	0	0	0	0	0	0	0	0	0	0	0	0	0	0	0	0	0	0	0	0	0	0	0	0	0	0	0	15	9	6	0	0	30	75	0	951	29	2	0	0	982	0	0	0	0	0	0	0	0	461	10	0	0	0	471	0	0	0	0	0	0	0	0	0	0	0	0	0	0	0	29	0	0	0	0	29	0	0	0	0	0	0	0	0	0	0	0	0	0	0	0	0	0	0	0	0	0	0	1441	39	2	0	0	1482	2	0	0	0	0	0	0	0	1	1	0	30	0	0	1		ROBERT ERXLEBEN	6184752544	3/17/2004	3/31/2004		
2003	20030944	MARATHON ASHLAND PIPE LINE LLC	12127	539 SOUTH MAIN STREET	FINDLAY	HANCOCK	OH	45840						 OH	0	0	0	0	0	0	0	0	0	0	0	0	0	0	1	0	0	0	0	0	0	1	0	0	0	0	0	0	0	0	0	0	0	0	0	0	0	0	0	0	0	0	0	0	0	0	0	0	0	0	0	0	0	0	0	0	0	0	0	0	0	0	0	0	0	0	0	0	0	0	0	0	0	0	0	0	0	0	0	0	0	0	0	0	0	0	0	0	0	0	0	0	9240	0	0	0	0	1	0	1	0	0	0	0	0	0	0	0	0	0	0	0	0	0	0	0	0	0	0	0	0	0	0	0	0	0	0	0	0	0	0	0	0	0	0	0	0	0	0	0	0	0	0	0	0	0	0	0	0	0	0	0	0	0	0	0	0	0	0	0	1	0	1	0	0	0	0	0	0	0	0	0	0	0	0	0	0	0	ALL GAS PURCHASED FROM NORTH EAST OHIO GAS IS USED BY THE CANTON REFINERY.	"ANN-MARIE KAYSER MAPL ENVIRONMENTAL, SAFETY & REGULATORY"	4194295629	3/17/2004	3/31/2004		
2003	20030945	ATHENS UTILITIES BOARD	774	100 NEW ENGLEWOOD ROAD	ATHENS	MCMINN	TN	37303						 TN	0	0	0	117	265	0	0	0	0	0	382	0	0	0	2011	4790	0	0	0	0	0	6801	0	70	27	20	0	0	117	0	0	0	0	0	0	0	0	0	0	0	0	0	0	0	0	0	0	0	0	0	0	0	0	0	0	0	0	0	251	14	0	0	0	265	0	0	0	0	0	0	0	0	0	0	0	0	0	0	0	0	0	0	0	0	0	0	321	41	20	0	0	382	0	0	1982	27	2	0	0	2011	0	0	0	0	0	0	0	0	0	0	0	0	0	0	0	0	0	0	0	0	0	0	0	0	0	0	0	0	0	4766	22	2	0	0	4790	0	0	0	0	0	0	0	0	0	0	0	0	0	0	0	0	0	0	0	0	0	0	6748	49	4	0	0	6801	0	6	0	0	14	35	2	56	0	25	0	0	1	0	0.002		SHERRE G. REED	4237454501	3/16/2004	3/31/2004		
2003	20030946	PENINSULAR GAS CO	15231	307 SIXTH STREET	CALUMET	HOUGHTON	MI	49913						 MI	8	0	0	15	65	0	0	0	0	0	88	0	0	0	1014	3141	0	0	0	0	0	4155	0	23	1	0	0	0	24	0	0	0	0	0	0	0	0	0	0	0	0	0	0	0	0	0	0	0	0	0	0	0	0	0	0	0	0	0	35	28	1	0	0	64	0	0	0	0	0	0	0	0	0	0	0	0	0	0	0	0	0	0	0	0	0	0	58	29	1	0	0	88	85	4	1010	0	0	0	0	1014	0	0	0	0	0	0	0	0	0	0	0	0	0	0	0	0	0	0	0	0	0	0	0	0	0	0	0	0	0	3124	17	0	0	0	3141	0	0	0	0	0	0	0	0	0	0	0	0	0	0	0	0	0	0	0	0	0	4	4134	17	0	0	0	4155	3	0	5	0	4	13	5	0	2	0	0	0	0	0	0		"RON KANGAS, MANAGER"	9063372312	3/10/2004	3/31/2004		
2003	20030947	VERMONT GAS SYSTEMS INC	21190	85 SWIFT STREET	SOUTH BURLINGTON	CHITTENDEN	VT	5403					5403	 VT	1	0	0	195	321	1	0	0	0	0	518	106	0	0	6170	19983	0	0	0	0	0	26259	0	93	56	47	0	0	196	0	0	0	0	0	0	0	0	0	0	0	0	0	0	0	0	0	1	0	0	1	0	0	0	0	0	0	0	0	243	65	13	0	0	321	0	0	0	0	0	0	0	0	0	0	0	0	0	0	0	0	0	0	0	0	0	0	336	121	61	0	0	518	83	0	4465	1776	35	0	0	6276	0	0	0	0	0	0	0	0	0	0	0	0	0	0	0	0	0	0	0	0	0	0	0	0	0	0	0	0	0	19728	254	1	0	0	19983	0	0	0	0	0	0	0	0	0	0	0	0	0	0	0	0	0	0	0	0	0	0	24193	2030	36	0	0	26259	0	5	3	4	2	29	0	1	1	1	47	115	1	0	0.2	"BECAUSE OF ROUNDING, VT. GAS SHOWS ONE MILE OF CAST/WROUGHT IRON PIPE IN THE 1.GENERAL SECTION AND ERO MILES OF ALL SIZES IN THE 2. MILES OF MAIN IN SYSTEM SECTION.  HOWEVER, WE HAVE 0 MILES OF < 2"", 0.1 MILES OF OVER 2"" THRU 4"", 0.4 MILES OF OVER 4"" THRU 8"".  THIS CAUSES THE DISCREPENCY IN THE TOTAL MILES OF MAIN BETWEEN THE SECTIONS."	MICHAEL J. O'BRIAN	8028634511	3/17/2004	4/2/2004		
2003	20030948	KEYSPAN ENERGY DELIVERY - NEW YORK CITY	1800	175 EAST OLD COUNTRY ROAD	HICKSVILLE	NASSAU	NY	11801	1 METROTECH CENTER	BROOKLYN	KINGS	NY	11201	 NY	431	0	0	1119	632	1836	0	0	0	0	4018	39196	0	0	59720	310192	0	0	146693	0	0	555801	0	236	196	772	299	47	1550	0	0	0	0	0	0	0	0	0	0	0	0	0	0	0	1	317	1158	242	118	1836	0	0	0	0	0	0	0	0	152	67	398	15	0	632	0	0	0	0	0	0	0	0	0	0	0	0	0	0	0	0	0	0	0	0	0	0	389	580	2328	556	165	4018	45	0	30	90395	8058	420	13	98916	0	0	0	0	0	0	0	0	0	146693	0	0	0	146693	0	0	0	0	0	0	0	0	0	0	0	0	0	0	0	7871	294117	4956	2688	560	310192	0	0	0	0	0	0	0	0	0	0	0	0	0	0	0	0	0	0	0	0	0	0	7901	531205	13014	3108	573	555801	354	866	74	72	467	261	8	17	170	57	1369	965	139	0	3.3		"JOHN J DISTEFANO, SENIOR ENGINEER"	5165453376	3/17/2004	8/30/2004		
2003	20030949	KEYSPAN ENERGY DELIVERY - LONG ISLAND	11713	175 EAST OLD COUNTRY ROAD	HICKSVILLE	NASSAU	NY	11801						 NY	2848	802	239	878	2132	409	0	0	0	0	7308	136743	35519	12961	22478	261916	0	0	5865	0	0	475482	0	2331	1450	818	127	41	4767	0	0	0	0	0	0	0	0	0	0	0	0	0	0	0	0	76	304	18	11	409	0	0	0	0	0	0	0	0	1379	451	288	14	0	2132	0	0	0	0	0	0	0	0	0	0	0	0	0	0	0	0	0	0	0	0	0	0	3710	1977	1410	159	52	7308	65	0	128540	78179	948	33	1	207701	0	0	0	0	0	0	0	0	5865	0	0	0	0	5865	0	0	0	0	0	0	0	0	0	0	0	0	0	0	0	238784	21377	1534	218	3	261916	0	0	0	0	0	0	0	0	0	0	0	0	0	0	0	0	0	0	0	0	0	0	373189	99556	2482	251	4	475482	1614	1822	458	467	98	636	46	81	140	607	713	943	419	0	1.5		"JOHN J DISTEFANO, SENIOR ENGINEER"	5185453376	3/17/2004	8/30/2004		
2003	20030950	NASHVILLE GAS CO	13041	665 MAINSTREAM DR	NASHVILLE	DAVIDSON	TN	37228						 TN	0	0	0	2050	747	10	0	0	0	0	2807	5029	0	0	101516	49892	0	0	0	0	0	156437	0	1469	386	153	35	7	2050	0	0	0	0	0	0	0	0	0	0	0	0	0	0	0	0	0	6	4	0	10	0	0	0	0	0	0	0	0	640	91	16	0	0	747	0	0	0	0	0	0	0	0	0	0	0	0	0	0	0	0	0	0	0	0	0	0	2109	477	175	39	7	2807	100	0	91357	14821	346	18	3	106545	0	0	0	0	0	0	0	0	0	0	0	0	0	0	0	0	0	0	0	0	0	0	0	0	0	0	0	0	0	48035	1837	19	1	0	49892	0	0	0	0	0	0	0	0	0	0	0	0	0	0	0	0	0	0	0	0	0	0	139392	16658	365	19	3	156437	14	40	0	0	44	168	8	8	13	9	40	534	1811	0	1.36		"ROBERT E. GARNER, PE"	6157341770	3/17/2004	4/2/2004		
2003	20030951	HARTSVILLE GAS CO	7115	116 WEST MCMURRY BLVD.	HARTSVILLE	TROUSDALE	TN	37074	665 MAINSTREAM DRIVE	NASHVILLE	DAVIDSON	TN	37074	 TN	0	0	0	15	2	0	0	0	0	0	17	0	0	0	553	200	0	0	0	0	0	753	0	13	1	0	0	0	14	0	0	0	0	0	0	0	0	0	0	0	0	0	0	0	0	0	0	0	0	0	0	0	0	0	0	0	0	0	2	0	1	0	0	3	0	0	0	0	0	0	0	0	0	0	0	0	0	0	0	0	0	0	0	0	0	0	15	1	1	0	0	17	85	0	541	12	0	0	0	553	0	0	0	0	0	0	0	0	0	0	0	0	0	0	0	0	0	0	0	0	0	0	0	0	0	0	0	0	0	197	3	0	0	0	200	0	0	0	0	0	0	0	0	0	0	0	0	0	0	0	0	0	0	0	0	0	0	738	15	0	0	0	753	1	0	0	0	0	0	0	0	0	0	0	2	2	0	0.93		ALLEN HICKS	6153742964	3/17/2004	4/2/2004		
2003	20030952	MEMPHIS LIGHT GAS & WATER DIVISION	12342	PO BOX 430	MEMPHIS	SHELBY	TN	38101						 TN	0	0	0	2555	1905	157	0	0	0	0	4617	0	0	0	111517	178900	0	0	0	0	0	290417	0	1749	448	248	46	64	2555	0	0	0	0	0	0	0	0	0	0	0	0	0	0	0	13	45	95	0	4	157	0	2	0	0	0	0	2	0	1367	389	144	3	0	1903	0	0	0	0	0	0	0	0	0	0	0	0	0	0	0	0	0	0	0	0	0	0	3131	882	487	49	68	4617	60	0	95197	15471	816	33	0	111517	0	0	0	0	0	0	0	0	0	0	0	0	0	0	0	0	0	0	0	0	0	0	0	0	0	0	0	0	0	176787	1920	188	5	0	178900	0	0	0	0	0	0	0	0	0	0	0	0	0	0	0	0	0	0	0	0	0	0	271984	17391	1004	38	0	290417	17	54	24	78	146	288	55	81	178	523	344	3255	1916	0	3.45		"CARAIG POWERS,  GAS MATRIX ENGINEERING ASSISTANT"	9013673366	3/17/2004	4/2/2004		
2003	20030953	MICHIGAN CONSOLIDATED GAS CO (MICHCON)	12408	17150 ALLEN ROAD	MELVINDALE	WAYNE	MI	48122	2000 SECOND AVE	DETROIT	WAYNE	MI	48226	 MI	594	1219	0	5149	8004	2778	0	0	0	0	17744	47822	0	0	272930	677656	11	0	151142	0	0	1149561	0	1986	2918	1632	256	169	6961	0	0	0	0	0	0	0	0	0	0	0	0	0	0	0	3	1927	564	213	72	2779	0	0	0	0	0	0	0	0	5186	2458	358	2	0	8004	0	0	0	0	0	0	0	0	0	0	0	0	0	0	0	0	0	0	0	0	0	0	7175	7303	2554	471	241	17744	85	0	0	316864	3300	551	37	320752	0	0	0	0	0	0	0	0	0	151142	0	0	0	151142	0	0	0	2	6	3	11	0	0	0	0	0	0	0	0	0	675554	2014	87	1	677656	0	0	0	0	0	0	0	0	0	0	0	0	0	0	0	0	0	0	0	0	0	0	0	1143560	5316	644	41	1149561	1454	2979	290	340	284	1714	29	57	35	159	1455	1232	148	0	0.73	"*PART B (1):  THE NUMBER OF CATHODICALLY PROTECTED VS. UNPROTECTED COATED STEEL SERVICES IS NOT AVAILABLE.    **PART B (3):  THE NUMBER OF SERVICE LINES SHOWN AS OVER 1"" THRU 2"" INCLUDES THE TOTAL NUMBER OF SERVICES 2"" AND UNDER."	MICHAEL R. LASKOWSKI	3133897762	3/17/2004	4/2/2004		
2003	20030954	"CROOKS MUNICIPAL GAS, CITY OF"	31090	108 EAST MAIN ST	CROOKS	MINNEHAHA	SD	57020					57020	 SD	0	0	0	0	17	0	0	0	0	0	17	0	0	0	0	631	0	0	0	0	0	631	0	0	0	0	0	0	0	0	0	0	0	0	0	0	0	0	0	0	0	0	0	0	0	0	0	0	0	0	0	0	0	0	0	0	0	0	15	2	0	0	0	17	0	0	0	0	0	0	0	0	0	0	0	0	0	0	0	0	0	0	0	0	0	0	15	2	0	0	0	17	100	0	0	0	0	0	0	0	0	0	0	0	0	0	0	0	0	0	0	0	0	0	0	0	0	0	0	0	0	0	0	0	0	0	0	0	0	629	2	0	0	0	631	0	0	0	0	0	0	0	0	0	0	0	0	0	0	0	0	0	0	0	0	0	0	629	2	0	0	0	631	0	0	0	0	1	3	0	0	0	0	2	1	0	0	0		LINDA D HUNNEL	6055435238	3/17/2004	4/5/2004		
2003	20030955	PPL GAS UTILITIES CORP	31467	555 CAMARGO ROAD	QUARRYVILLE	LANCASTER	PA	17566	2 N. NINTH STREET	ALLENTOWN	LEHIGH	PA	18101	 MD	0	0	0	12	5	0	0	0	0	0	17	0	0	0	148	173	0	0	0	0	0	321	0	2	2	8	0	0	12	0	0	0	0	0	0	0	0	0	0	0	0	0	0	0	0	0	0	0	0	0	0	0	0	0	0	0	0	0	2	2	1	0	0	5	0	0	0	0	0	0	0	0	0	0	0	0	0	0	0	0	0	0	0	0	0	0	4	4	9	0	0	17	73	0	141	4	3	0	0	148	0	0	0	0	0	0	0	0	0	0	0	0	0	0	0	0	0	0	0	0	0	0	0	0	0	0	0	0	0	162	10	0	1	0	173	0	0	0	0	0	0	0	0	0	0	0	0	0	0	0	0	0	0	0	0	0	0	303	14	3	1	0	321	0	0	0	1	2	1	0	0	0	0	1	0	0	0	2.1	THIS REPORT LIST PPL GAS UTILITIES FACILITIES IN MARYLAND.  PPL GAS UTILITIES ALSO OPERATES FACILITIES IN PENNSYLVANIA.	FRANK BENNETT	7175602751	3/17/2004	4/5/2004		
2003	20030956	PPL GAS UTILITIES CORP	31467	555 CAMARGO ROAD	QUARRYVILLE	LANCASTER	PA	17566	2 N. NINTH STREET	ALLENTOWN	LEHIGH	PA	18101	 PA	695	6	14	733	2042	40	0	0	0	0	3530	5428	143	0	7382	63471	0	0	66	0	0	76490	0	390	508	505	38	7	1448	0	0	0	0	0	0	0	0	0	0	0	0	0	0	0	1	25	11	3	0	40	0	33	5	0	0	0	38	0	1377	576	51	0	0	2004	0	0	0	0	0	0	0	0	0	0	0	0	0	0	0	0	0	0	0	0	0	0	1801	1114	567	41	7	3530	73	0	7954	4819	150	30	0	12953	0	0	0	0	0	0	0	0	65	1	0	0	0	66	0	0	0	0	0	0	0	0	42	0	0	0	0	42	0	50659	12603	165	2	0	63429	0	0	0	0	0	0	0	0	0	0	0	0	0	0	0	0	0	0	0	0	0	0	58720	17423	315	32	0	76490	71	15	24	1	21	37	7	5	32	3	51	11	630	0	1.4	THIS REPORT LIST PPL GAS UTILITIES FACILITIES IN PENNSYLVANIA.  PPL GAS UTILITIES ALSO OPERATES FACILITIES IN MARYLAND.	FRANK BENNETT	7175602751	3/17/2004	4/5/2004		
2003	20030957	LOUISVILLE GAS & ELECTRIC CO	11824	P.O. BOX 32010	LOUISVILLE	JEFFERSON	KY	40232						 KY	125	3	0	2391	1270	154	0	0	0	0	3943	15846	0	0	109597	131447	25342	0	0	0	0	282232	0	913	938	511	80	77	2519	0	0	0	0	0	0	0	0	0	0	0	0	0	0	0	17	67	37	20	13	154	0	0	0	0	0	0	0	0	762	414	94	0	0	1270	0	0	0	0	0	0	0	0	0	0	0	0	0	0	0	0	0	0	0	0	0	0	1692	1419	642	100	90	3943	30	0	65777	58348	1439	166	0	125730	0	0	0	0	0	0	0	0	0	0	0	0	0	0	0	0	24774	281	0	0	25055	0	0	0	0	0	0	0	0	125675	5666	103	3	0	131447	0	0	0	0	0	0	0	0	0	0	0	0	0	0	0	0	0	0	0	0	0	0	191452	88788	1823	169	0	282232	63	215	8	28	62	278	0	3	4	37	464	6544	1783	1	3.58		ROBERTA CRAIG / JOE RYAN	5026282899	3/17/2004	4/5/2004		
2003	20030958	MORNING SUN MUNICIPAL GAS SYSTEM	12794	P.O. BOX 426 11 E. DIVISI	MORNING SUN	 LOUISA	IA	52460					52460	 IA	0	0	0	5	2	0	0	0	0	0	7	0	0	0	229	192	0	0	0	0	0	421	0	3	1	1	0	0	5	0	0	0	0	0	0	0	0	0	0	0	0	0	0	0	0	0	0	0	0	0	0	0	0	0	0	0	0	0	2	0	0	0	0	2	0	0	0	0	0	0	0	0	0	0	0	0	0	0	0	0	0	0	0	0	0	0	5	1	1	0	0	7	55	0	197	32	0	0	0	229	0	0	0	0	0	0	0	0	0	0	0	0	0	0	0	0	0	0	0	0	0	0	0	0	0	0	0	0	0	187	5	0	0	0	192	0	0	0	0	0	0	0	0	0	0	0	0	0	0	0	0	0	0	0	0	0	0	384	37	0	0	0	421	0	0	0	0	0	0	0	0	0	0	0	0	0	0	5.6		HOLLY FLETCHER	3198687936	3/11/2004	4/5/2004		
2003	20030959	VIRGINIA NATURAL GAS	21349	5100 E VIRGINIA BEACH BLV	NORFOLK		VA	23502						 VA	7	396	3	1645	2736	106	0	17	0	0	4910	470	25334	0	73077	167179	0	0	559	0	0	266619	0	1177	264	493	55	62	2051	0	0	0	0	0	0	0	0	14	3	0	0	0	17	0	7	62	32	4	1	106	0	0	0	0	0	0	0	0	2264	427	45	0	0	2736	0	0	0	0	0	0	0	0	0	0	0	0	0	0	0	0	0	0	0	0	0	0	3462	756	570	59	63	4910	91	0	85355	13221	256	46	3	98881	0	0	0	0	0	0	0	0	559	0	0	0	0	559	0	0	0	0	0	0	0	0	0	0	0	0	0	0	0	162105	4865	204	5	0	167179	0	0	0	0	0	0	0	0	0	0	0	0	0	0	0	0	0	0	0	0	0	0	248019	18086	460	51	3	266619	227	483	37	139	79	195	24	66	128	469	166	446	162	0	1.47		"LESLIA A. FLORA, JR., MANAGER - ENGINEERING SERVICES"	7574552033	3/15/2004	4/5/2004		
2003	20030960	PECO ENERGY CO	15462	2301 MARKET ST. S9-1	PHILADELPHIA		PA	19101						 PA	395	126	15	2678	2229	869	62	0	0	0	6374	51889	9073	3	9642	320729	0	0	2980	0	0	394316	0	1186	781	928	177	142	3214	0	0	42	20	0	0	62	0	0	0	0	0	0	0	0	3	460	352	53	1	869	0	0	0	0	0	0	0	0	1192	686	351	0	0	2229	0	0	0	0	0	0	0	0	0	0	0	0	0	0	0	0	0	0	0	0	0	0	2381	1969	1651	230	143	6374	71	0	32788	37243	555	21	0	70607	0	0	0	0	0	0	0	0	2957	23	0	0	0	2980	0	0	0	0	0	0	0	0	0	0	0	0	0	0	0	309033	11380	313	3	0	320729	0	0	0	0	0	0	0	0	0	0	0	0	0	0	0	0	0	0	0	0	0	0	344778	48646	868	24	0	394316	1916	456	173	7	89	672	7	46	32	43	294	41	1100	0	2.84		EDWARD J. HAUGH	2158416494	3/15/2004	4/5/2004		
2003	20030961	PUBLIC SERVICE COMPANY OF NEW MEXICO - GAS SVCS	6141	414 SILVER AVE. SW	ALBUQUERQUE	BERNALILLO	NM	87158						 NM	0	0	157	4885	4082	0	0	0	0	0	9124	0	0	73833	183306	184891	0	0	0	0	0	442030	0	3334	1003	619	52	34	5042	0	0	0	0	0	0	0	0	0	0	0	0	0	0	0	0	0	0	0	0	0	0	0	0	0	0	0	0	0	3443	547	92	0	0	4082	0	0	0	0	0	0	0	0	0	0	0	0	0	0	0	0	0	0	0	0	0	0	6777	1550	711	52	34	9124	29	0	248372	8303	448	16	0	257139	0	0	0	0	0	0	0	0	0	0	0	0	0	0	0	0	0	0	0	0	0	0	0	0	0	0	0	0	0	178104	6403	246	138	0	184891	0	0	0	0	0	0	0	0	0	0	0	0	0	0	0	0	0	0	0	0	0	0	426476	14706	694	154	0	442030	53	77	4	15	167	387	27	42	24	48	176	391	706	0		"* PNM HAS PE, ABS AND PVC PIPE IN THE DISTRIBUTION SYSTEM.  THE MILES OF MAIN BY SEIZE IS NOT AVAILABLE AT THIS TIME.      * UNACCOUNTED FOR GAS AS A PERCENT OF TOTAL INPUT FOR YEAR ENDING 6/30 IS -0.79%"	STEVEN EMRICK	5052414503	3/15/2004	4/5/2004		
2003	20030962	CHEYENNE LIGHT FUEL & POWER	2332	1123 W 3RD AVENUE	DENVER	DENVER	CO	80223	PO BOX 1409	CHEYENNE		WY	82003	 WY	0	0	0	288	390	0	0	0	0	0	678	5	0	0	12758	14241	0	0	0	0	0	27004	0	159	53	60	9	7	288	0	0	0	0	0	0	0	0	0	0	0	0	0	0	0	0	0	0	0	0	0	0	20	0	0	0	0	20	0	328	41	1	0	0	370	0	0	0	0	0	0	0	0	0	0	0	0	0	0	0	0	0	0	0	0	0	0	507	94	61	9	7	678	63	0	11387	1349	23	4	0	12763	0	0	0	0	0	0	0	0	0	0	0	0	0	0	0	0	0	0	0	0	0	0	798	15	0	0	0	813	0	13073	354	1	0	0	13428	0	0	0	0	0	0	0	0	0	0	0	0	0	0	0	0	0	0	0	0	0	0	25258	1718	24	4	0	27004	0	1	1	0	15	20	4	1	2	0	6	13	0	0	0	"DANIEL A. MOE, PRNCIPAL GAS CONSULTANT"	"DANIEL A. MOE, PRINCIPAL GAS CONSULTANT"	3035713119	3/15/2004	4/5/2004		
2003	20030963	UNION OIL & GAS INC	20120	P.O. BOX 27 / 13 FERRY ST	WINFIELD	PUTNAM	WY	25213	1901 KANAWHA VALLEY BLDG.	CHARLESTON	KANAWHA	WV	25301	 WV	2	0	0	3	177	0	0	0	0	0	182	1283	0	0	0	4253	0	0	0	0	0	5536	0	2	3	0	0	0	5	0	0	0	0	0	0	0	0	0	0	0	0	0	0	0	0	0	0	0	0	0	0	0	0	0	0	0	0	0	67	97	13	0	0	177	0	0	0	0	0	0	0	0	0	0	0	0	0	0	0	0	0	0	0	0	0	0	69	100	13	0	0	182	0	0	1283	0	0	0	0	1283	0	0	0	0	0	0	0	0	0	0	0	0	0	0	0	0	0	0	0	0	0	0	0	0	0	0	0	0	0	4148	105	0	0	0	4253	0	0	0	0	0	0	0	0	0	0	0	0	0	0	0	0	0	0	0	0	0	0	5431	105	0	0	0	5536	17	45	0	21	21	23	0	0	1	22	0	0	0	0	7.15		CHRISTIAN V. SMITH	3045862151	3/16/2004	4/5/2004		
2003	20030964	TEAVEE OIL & GAS INC	19125	P.O. BOX 27 / 13 FERRY ST	WINSFIELD	PUTNAM	WV	25213	1901 KANAWHA VALLEY BLDG.	CHARLESTON	KANAWHA	WV	25301	 WV	0	1	0	0	3	0	0	0	0	0	4	0	7	0	0	3	0	0	0	0	0	10	0	1	0	0	0	0	1	0	0	0	0	0	0	0	0	0	0	0	0	0	0	0	0	0	0	0	0	0	0	0	0	0	0	0	0	0	0	1	2	0	0	3	0	0	0	0	0	0	0	0	0	0	0	0	0	0	0	0	0	0	0	0	0	0	1	1	2	0	0	4	0	0	7	0	0	0	0	7	0	0	0	0	0	0	0	0	0	0	0	0	0	0	0	0	0	0	0	0	0	0	0	0	0	0	0	0	0	0	1	2	0	0	3	0	0	0	0	0	0	0	0	0	0	0	0	0	0	0	0	0	0	0	0	0	0	7	1	2	0	0	10	0	0	0	0	0	0	0	0	0	0	0	0	0	0	0		CHRISTIAN V. SMITH	3045869699	3/16/2004	4/5/2004		
2003	20030965	"COVINGTON GAS DEPT, TOWN OF"	2856	3RD 2 MAIN ST	COVINGTON	GARFIELD	OK	73730						 OK	0	0	0	0	6	0	0	0	0	0	6	0	0	0	0	245	0	0	0	0	0	245	0	0	0	0	0	0	0	0	0	0	0	0	0	0	0	0	0	0	0	0	0	0	0	0	0	0	0	0	0	0	0	0	0	0	0	0	4	2	0	0	0	6	0	0	0	0	0	0	0	0	0	0	0	0	0	0	0	0	0	0	0	0	0	0	4	2	0	0	0	6	8	0	0	0	0	0	0	0	0	0	0	0	0	0	0	0	0	0	0	0	0	0	0	0	0	0	0	0	0	0	0	0	0	0	0	0	0	241	4	0	0	0	245	0	0	0	0	0	0	0	0	0	0	0	0	0	0	0	0	0	0	0	0	0	0	241	4	0	0	0	245	0	0	0	0	0	0	0	0	0	0	0	0	0	0	0		STANLEY ANGLETER	5808647428	3/24/2004	4/5/2004		
2003	20030966	THE GAS COMPANY	6243	515 KAMAKEE STREET	HONOLULU		HI	96814						 HI	156	0	0	169	280	0	0	0	0	0	605	9221	0	0	6518	18067	0	0	53	2885	0	36744	0	223	67	33	2	0	325	0	0	0	0	0	0	0	0	0	0	0	0	0	0	0	0	0	0	0	0	0	0	0	0	0	0	0	0	0	235	35	10	0	0	280	0	0	0	0	0	0	0	0	0	0	0	0	0	0	0	0	0	0	0	0	0	0	458	102	43	2	0	605	65	742	14860	118	19	0	0	15739	0	0	0	0	0	0	0	0	53	0	0	0	0	53	0	0	0	0	0	0	0	0	0	0	0	0	0	0	0	17584	458	25	0	0	18067	0	0	0	0	0	0	0	0	2792	80	13	0	0	2885	0	0	0	0	0	0	0	742	35289	656	57	0	0	36744	196	272	14	34	20	113	13	10	6	62	16	536	301	46	5.3	THE GAS COMPANY CATEGORIZES ABOVEGROUND STEEL SERVICES AS 'OTHER' RATHER THAN BARE STEEL.	EDWIN SAWA	8085945661	3/24/2004	8/25/2004		
2003	20030967	ENSTAR NATURAL GAS CO	4483	3000 SPENARD RD	ANCHORAGE		AK	99519						 AK	0	0	1	531	1929	0	0	0	0	0	2461	0	0	0	18104	81638	0	0	1667	0	0	101409	0	325	140	52	15	0	532	0	0	0	0	0	0	0	0	0	0	0	0	0	0	0	0	0	0	0	0	0	0	0	0	0	0	0	0	0	1504	306	119	0	0	1929	0	0	0	0	0	0	0	0	0	0	0	0	0	0	0	0	0	0	0	0	0	0	1829	446	171	15	0	2461	100	0	17050	1049	3	2	0	18104	0	0	0	0	0	0	0	0	1667	0	0	0	0	1667	0	0	0	0	0	0	0	0	0	0	0	0	0	0	0	81108	500	30	0	0	81638	0	0	0	0	0	0	0	0	0	0	0	0	0	0	0	0	0	0	0	0	0	0	99825	1549	33	2	0	101409	1	16	4	7	134	386	0	0	1	11	0	4	0	0		UNACCUONTED FOR GAS AS A PERCENT OF TOTAL INPUT FOR YEAR ENDING 6/30 IS -1.39%	DREW SMITH	9072643744	3/13/2004	4/5/2004		
2003	20030968	ATMOS ENERGY CORPORATION - COLORADO - KANSAS DIVISION	6720	1301 PENNSYLVANIA ST #800	DENVER	DENVER	CO	80203	5430 LBJ FREEWAY #1800	DALLAS	DALLAS	TX	75240	 CO	112	0	68	1022	1495	0	0	0	0	0	2697	3899	0	1418	30243	48379	0	0	0	0	0	83939	0	725	349	126	2	0	1202	0	0	0	0	0	0	0	0	0	0	0	0	0	0	0	0	0	0	0	0	0	0	374	20	0	0	0	394	0	846	216	12	0	0	1074	0	27	0	0	0	0	27	0	0	0	0	0	0	0	0	0	0	0	0	0	0	0	1972	585	138	2	0	2697	82	106	25258	10146	47	2	1	35560	0	0	0	0	0	0	0	0	0	0	0	0	0	0	0	0	0	0	0	0	0	0	192	0	0	0	0	192	60	45894	2166	67	0	0	48187	0	0	0	0	0	0	0	0	0	0	0	0	0	0	0	0	0	0	0	0	0	166	71344	12312	114	2	1	83939	84	75	4	2	51	95	3	16	3	2	58	61	206	0	0.9		STEVE MITCHELL	3038315685	3/11/2004	7/30/2004		
2003	20030969	ATMOS ENERGY CORPORATION - COLORADO - KANSAS DIVISION	6720	1301 PENNSYLVANIA ST #800	DENVER	DENVER	CO	80203	5430 KBJ FREEWAY #1800	DALLAS	DALLAS	TX	75240	 KS	0	0	797	991	1687	1	0	0	0	0	3476	11516	0	5990	25022	84805	0	0	0	0	0	127333	0	699	639	406	44	0	1788	0	0	0	0	0	0	0	0	0	0	0	0	0	0	0	0	1	0	0	0	1	0	117	14	0	0	0	131	0	1200	300	56	0	0	1556	0	0	0	0	0	0	0	0	0	0	0	0	0	0	0	0	0	0	0	0	0	0	2016	954	462	44	0	3476	40	217	37065	4919	322	5	0	42528	0	0	0	0	0	0	0	0	0	0	0	0	0	0	0	0	0	0	0	0	0	0	98	0	0	0	0	98	6	79948	4357	396	0	0	84707	0	0	0	0	0	0	0	0	0	0	0	0	0	0	0	0	0	0	0	0	0	223	117111	9276	718	5	0	127333	231	118	8	15	175	178	11	14	16	17	212	186	411	0		UNACCOUNTED FOR GAS -2.62%	"STEVE MITCHELL,"	3038315685	3/15/2004	7/30/2004		
2003	20030970	ATMOS ENERGY - KENTUCKY DIVISION	22476	2401 NEW HARTFORD RD	OWENSBORO	DAVIESS	KY	42303						 KY	206	0	82	2204	1100	2	0	0	0	0	3594	1621	0	6386	85620	80025	0	0	0	0	0	173652	0	1332	845	295	20	0	2492	0	0	0	0	0	0	0	0	0	0	0	0	0	0	0	0	2	0	0	0	2	0	0	0	0	0	0	0	0	966	134	0	0	0	1100	0	0	0	0	0	0	0	0	0	0	0	0	0	0	0	0	0	0	0	0	0	0	2298	981	295	20	0	3594	34	406	23680	68410	1000	131	0	93627	0	0	0	0	0	0	0	0	0	0	0	0	0	0	0	0	0	0	0	0	0	0	0	0	0	0	0	0	0	77039	2923	63	0	0	80025	0	0	0	0	0	0	0	0	0	0	0	0	0	0	0	0	0	0	0	0	0	406	100719	71333	1063	131	0	173652	281	393	8	41	101	315	26	59	18	53	28	83	412	0	1.6		"HOWARD SCHAEFFER, PE"	2706858050	3/11/2004	9/10/2004		
2003	20030971	OPTIMIST VILLAGE INC.	970	3650 OPTIMIST WAY	ORANGE	ORANGE	TX	77630	410 BROAD	ORANGE		TX	77630	 TX	0	10	0	0	0	0	0	0	0	0	10	0	2	0	0	0	0	0	0	0	0	2	0	10	0	0	0	0	10	0	0	0	0	0	0	0	0	0	0	0	0	0	0	0	0	0	0	0	0	0	0	0	0	0	0	0	0	0	0	0	0	0	0	0	0	0	0	0	0	0	0	0	0	0	0	0	0	0	0	0	0	0	0	0	0	0	10	0	0	0	0	10	0	0	2	0	0	0	0	2	0	0	0	0	0	0	0	0	0	0	0	0	0	0	0	0	0	0	0	0	0	0	0	0	0	0	0	0	0	0	0	0	0	0	0	0	0	0	0	0	0	0	0	0	0	0	0	0	0	0	0	0	0	0	0	0	0	2	0	0	0	0	2	0	0	0	0	0	0	0	0	0	0	0	0	0	0	0	AIR PRESSURE TEST 10LBS FOR 15 MIN AS REQUIRED.  NO LEAKS.  INSPECTED BY JIM ALEXANDER #j-27198. INSPECTION DATE 2-17-04	JIM ALEXANDER	4098861383	2/23/2004	4/5/2004		
2003	20030972	BOONVILLE NATURAL GAS CORP	1632	1425 N ROCKPORT ROAD	BOONVILLE	WARRICK	IN	47601						 IN	0	0	0	51	81	0	0	0	0	0	132	0	0	0	2016	1760	0	0	0	0	0	3776	0	26	25	0	0	0	51	0	0	0	0	0	0	0	0	0	0	0	0	0	0	0	0	0	0	0	0	0	0	0	0	0	0	0	0	0	40	41	0	0	0	81	0	0	0	0	0	0	0	0	0	0	0	0	0	0	0	0	0	0	0	0	0	0	66	66	0	0	0	132	85	0	811	1205	0	0	0	2016	0	0	0	0	0	0	0	0	0	0	0	0	0	0	0	0	0	0	0	0	0	0	0	0	0	0	0	0	0	1728	32	0	0	0	1760	0	0	0	0	0	0	0	0	0	0	0	0	0	0	0	0	0	0	0	0	0	0	2539	1237	0	0	0	3776	2	0	0	0	0	0	0	0	0	5	0	0	0	0	2		SUSIE PEERMAN	8128972260	3/10/2004	4/5/2004		
2003	20030973	CHANDLER NATURAL GAS CORP	2248	1425 N. ROCKPORT ROAD	BOONVILLE	WARRICK	IN	47601						 IN	0	0	0	26	18	0	0	0	0	0	44	0	0	0	1304	389	0	0	0	0	0	1693	0	17	9	0	0	0	26	0	0	0	0	0	0	0	0	0	0	0	0	0	0	0	0	0	0	0	0	0	0	0	0	0	0	0	0	0	9	9	0	0	0	18	0	0	0	0	0	0	0	0	0	0	0	0	0	0	0	0	0	0	0	0	0	0	26	18	0	0	0	44	85	0	1219	85	0	0	0	1304	0	0	0	0	0	0	0	0	0	0	0	0	0	0	0	0	0	0	0	0	0	0	0	0	0	0	0	0	0	385	4	0	0	0	389	0	0	0	0	0	0	0	0	0	0	0	0	0	0	0	0	0	0	0	0	0	0	1604	89	0	0	0	1693	1	0	0	0	0	0	0	0	1	8	0	0	0	0	0.3		SUSIE PEERMAN	8128972260	3/10/2004	4/5/2004		
2003	20030975	"ENERGY MANAGEMENT SYSTEMS, INC., LAKESIDE DIVISION"	31945	4445 EAST PIKE	ZANESVILLE	MUSKINGUM	OH	43701						 OH	0	0	0	0	3	0	0	0	0	0	3	40	0	0	0	103	0	0	0	0	0	143	0	0	0	0	0	0	0	0	0	0	0	0	0	0	0	0	0	0	0	0	0	0	0	0	0	0	0	0	0	0	0	0	0	0	0	0	1	2	0	0	0	3	0	0	0	0	0	0	0	0	0	0	0	0	0	0	0	0	0	0	0	0	0	0	1	2	0	0	0	3	90	0	0	40	0	0	0	40	0	0	0	0	0	0	0	0	0	0	0	0	0	0	0	0	0	0	0	0	0	0	0	0	0	0	0	0	0	0	103	0	0	0	103	0	0	0	0	0	0	0	0	0	0	0	0	0	0	0	0	0	0	0	0	0	0	0	143	0	0	0	143	1	0	0	0	0	0	0	0	0	0	0	0	0	0	5		"KEN LEPAGE, DIVISION MANAGER"	7404546198	3/16/2004	4/5/2004		
2003	20030976	"ENERGY MANAGEMENT SYSTEMS, INC., MUDLAKE DIVISION"	31946	4445 EAST PIKE	ZANESVILLE	MUSKINGUM	OH	43701						 OH	0	0	0	0	1	0	0	0	0	0	1	0	0	0	0	8	0	0	0	0	0	8	0	0	0	0	0	0	0	0	0	0	0	0	0	0	0	0	0	0	0	0	0	0	0	0	0	0	0	0	0	0	0	0	0	0	0	0	1	0	0	0	0	1	0	0	0	0	0	0	0	0	0	0	0	0	0	0	0	0	0	0	0	0	0	0	1	0	0	0	0	1	90	0	0	0	0	0	0	0	0	0	0	0	0	0	0	0	0	0	0	0	0	0	0	0	0	0	0	0	0	0	0	0	0	0	0	0	0	8	0	0	0	0	8	0	0	0	0	0	0	0	0	0	0	0	0	0	0	0	0	0	0	0	0	0	0	8	0	0	0	0	8	0	0	0	0	0	0	0	0	0	0	0	0	0	0	5		"KEN LEPAGE, DIVISION MGR."	7404546198	3/16/2004	4/5/2004		
2003	20030977	SCOTTSBORO WATER SEWER & GAS BOARD	18140	P.O. BOX 550	SCOTTSBORO		AL	35768						 AL	0	0	0	77	115	0	0	0	0	0	192	0	0	268	826	2970	0	0	0	0	0	4064	34	15	30	1	0	0	80	0	0	0	0	0	0	0	0	0	0	0	0	0	0	0	0	0	0	0	0	0	0	0	0	0	0	0	0	60	48	4	0	0	0	112	0	0	0	0	0	0	0	0	0	0	0	0	0	0	0	0	0	0	0	0	0	94	63	34	1	0	0	192	100	0	1067	14	4	3	0	1088	0	0	0	0	0	0	0	0	0	0	0	0	0	0	0	0	0	0	0	0	0	0	0	0	0	0	0	0	0	2970	4	2	0	0	2976	0	0	0	0	0	0	0	0	0	0	0	0	0	0	0	0	0	0	0	0	0	0	4037	18	6	3	0	4064	0	0	0	0	0	0	0	0	0	0	3	4	1	0	1.4		BILLY L. WEBB	2565741744	3/17/2004	4/5/2004		
2003	20030978	NETWORK ENERGY OF OHIO	31233	PO BOX 110226	PITTSBURGH	ALLEGHENY	PA	15232						 OH	0	0	0	0	2	0	0	0	0	0	2	0	0	0	0	1	0	0	0	0	0	1	0	0	0	0	0	0	0	0	0	0	0	0	0	0	0	0	0	0	0	0	0	0	0	0	0	0	0	0	0	0	0	0	2	0	2	0	0	0	0	0	0	0	0	0	0	0	0	0	0	0	0	0	0	0	0	0	0	0	0	0	0	0	0	0	0	0	0	2	0	2	8000	0	0	0	0	0	0	0	0	0	0	0	0	0	0	0	0	0	0	0	0	0	0	0	0	0	0	0	0	0	0	0	0	0	0	0	0	0	0	0	0	1	1	0	0	0	0	0	0	0	0	0	0	0	0	0	0	0	0	0	0	0	0	0	0	0	0	0	0	1	1	0	0	0	0	0	0	0	0	0	0	0	0	0	0	0		EUGENE J. HASLETT	6147386950	3/17/2004	4/5/2004		
2003	20030979	VALLEY GAS CO	21070	218 MAIN STREET PO BOX 92	CLAY	CLAY	WV	25043						 WV	6	0	1	0	12	0	0	0	0	0	19	340	0	0	0	292	0	0	0	0	0	632	0	6	1	0	0	0	7	0	0	0	0	0	0	0	0	0	0	0	0	0	0	0	0	0	0	0	0	0	0	0	0	0	0	0	0	0	0	12	0	0	0	12	0	0	0	0	0	0	0	0	0	0	0	0	0	0	0	0	0	0	0	0	0	0	6	13	0	0	0	19	100	340	0	0	0	0	0	340	0	0	0	0	0	0	0	0	0	0	0	0	0	0	0	0	0	0	0	0	0	0	0	0	0	0	0	0	0	0	292	0	0	0	292	0	0	0	0	0	0	0	0	0	0	0	0	0	0	0	0	0	0	0	0	0	340	0	292	0	0	0	632	16	0	0	0	0	0	0	0	0	0	0	0	0	0	8		JOHN HABJAN	3045872984	4/1/2004	4/6/2004		
2003	20030980	LAWRENCEBURG UTILITIES SYSTEMS	11296	"PO BOX 649, 2009 LIBERTY "	LAWRENCEBURG	LAWRENCE	TX	38464						 TN	0	0	0	113	203	0	0	0	0	0	316	0	0	0	891	5290	0	0	0	0	0	6181	0	88	0	25	0	0	113	0	0	0	0	0	0	0	0	0	0	0	0	0	0	0	0	0	0	0	0	0	0	0	0	0	0	0	0	0	110	89	4	0	0	203	0	0	0	0	0	0	0	0	0	0	0	0	0	0	0	0	0	0	0	0	0	0	198	89	29	0	0	316	100	0	606	283	2	0	0	891	0	0	0	0	0	0	0	0	0	0	0	0	0	0	0	0	0	0	0	0	0	0	0	0	0	0	0	0	0	5225	65	0	0	0	5290	0	0	0	0	0	0	0	0	0	0	0	0	0	0	0	0	0	0	0	0	0	0	5831	348	2	0	0	6181	0	5	1	1	2	12	4	14	10	75	0	0	13	0	3		SHARMON COX	9317620586	4/1/2004	8/30/2004		
2003	20030981	BRIDGEPORT UTILITIES BOARD	1736	513 ALABAMA AVENUE	BRIDGEPORT		AL	35740						 AL	0	0	0	13	14	0	0	0	0	0	27	0	391	0	0	599	0	0	0	0	0	990	0	8	4	0	0	0	12	0	0	0	0	0	0	0	0	0	0	0	0	0	0	0	0	0	0	0	0	0	0	0	0	0	0	0	0	0	13	1	1	0	0	15	0	0	0	0	0	0	0	0	0	0	0	0	0	0	0	0	0	0	0	0	0	0	21	5	1	0	0	27	60	0	383	8	1	0	0	392	0	0	0	0	0	0	0	0	0	0	0	0	0	0	0	0	0	0	0	0	0	0	0	0	0	0	0	0	0	587	11	0	0	0	598	0	0	0	0	0	0	0	0	0	0	0	0	0	0	0	0	0	0	0	0	0	0	970	19	1	0	0	990	0	4	0	0	0	1	0	4	0	0	0	0	0	0	0.01		"WILLIAM J. HUGHES, JR."	2569452471	4/1/2004	4/6/2004		
2003	20030982	MIAMI PIPELINE CO	12396	31395 OLD KC ROAD	PAOLA	MIAMI	KS	66071						 KS	6	0	3	4	3	0	0	0	0	0	16	26	0	17	9	24	0	0	0	0	0	76	0	0	13	0	0	0	13	0	0	0	0	0	0	0	0	0	0	0	0	0	0	0	0	0	0	0	0	0	0	0	0	0	0	0	0	0	3	0	0	0	0	3	0	0	0	0	0	0	0	0	0	0	0	0	0	0	0	0	0	0	0	0	0	0	3	13	0	0	0	16	150	0	12	0	1	0	0	13	0	0	0	0	0	0	0	0	0	0	0	0	0	0	0	0	0	0	0	0	0	0	0	0	0	0	0	0	0	62	1	0	0	0	63	0	0	0	0	0	0	0	0	0	0	0	0	0	0	0	0	0	0	0	0	0	0	74	1	1	0	0	76	1	0	0	0	1	0	0	0	0	0	0	0	3	0	3.5		STEVE COTTRELL	9132949180	4/1/2004	4/6/2004		
2003	20030983	"CENTRAL FEEDERS, INC"	31092	2240AVENUE P	LYONS	RICE	KS	67554						 KS	0	0	0	0	3	0	0	0	0	0	3	0	0	0	0	1	0	0	0	0	0	1	0	0	0	0	0	0	0	0	0	0	0	0	0	0	0	0	0	0	0	0	0	0	0	0	0	0	0	0	0	3	0	0	0	0	3	0	0	0	0	0	0	0	0	0	0	0	0	0	0	0	0	0	0	0	0	0	0	0	0	0	0	0	0	0	3	0	0	0	0	3	0	0	0	0	0	0	0	0	0	0	0	0	0	0	0	0	0	0	0	0	0	0	0	0	0	0	0	0	0	0	0	0	0	0	0	0	0	0	1	0	0	0	1	0	0	0	0	0	0	0	0	0	0	0	0	0	0	0	0	0	0	0	0	0	0	0	1	0	0	0	1	0	0	0	0	0	0	0	0	0	0	0	0	0	0	0		HEATHER MAXWELL	6202572346	4/1/2004	4/6/2004		
2003	20030984	CITY OF PAWNEE ROCK	15175	"700 PAWNEE AVE,PO BOX 218"	PAWNEE ROCK	BARTON	KS	67567						 KS	0	0	1	11	3	0	0	0	0	0	15	0	0	1	218	10	0	0	0	0	0	229	0	5	7	0	0	0	12	0	0	0	0	0	0	0	0	0	0	0	0	0	0	0	0	0	0	0	0	0	0	1	0	0	0	0	1	0	2	0	0	0	0	2	0	0	0	0	0	0	0	0	0	0	0	0	0	0	0	0	0	0	0	0	0	0	8	7	0	0	0	15	0	0	0	219	0	0	0	219	0	0	0	0	0	0	0	0	0	0	0	0	0	0	0	0	0	0	0	0	0	0	0	2	0	0	0	2	0	0	8	0	0	0	8	0	0	0	0	0	0	0	0	0	0	0	0	0	0	0	0	0	0	0	0	0	0	0	229	0	0	0	229	0	0	0	3	0	0	0	0	0	0	2	1	1	0	0.92	PURCHASED 19.204 MCF  SOLD/USED 17.707 MCF  UNACCOUNTED FOR  1497 MCF	"LES DOOLEY, MAINT SUPERINTENDENT"	6207864065	4/1/2004	7/20/2004		
2003	20030985	"DONALDSONVILLE, CITY OF"	3470	PO BOX 470	DONALDSONVILLE	ASCENSION	LA	70346						LA	5	0	0	0	5	47	0	0	0	0	57	0	0	0	0	745	532	0	1942	0	0	3219	0	0	0	5	0	0	5	0	0	0	0	0	0	0	0	0	0	0	0	0	0	0	0	42	4	0	0	46	0	0	0	0	0	0	0	0	1	5	0	0	0	6	0	0	0	0	0	0	0	0	0	0	0	0	0	0	0	0	0	0	0	0	0	0	1	47	9	0	0	57	50	0	0	0	0	0	0	0	0	0	0	0	0	0	0	0	1942	0	0	0	0	1942	0	0	532	0	0	0	532	0	0	0	0	0	0	0	0	745	0	0	0	0	745	0	0	0	0	0	0	0	0	0	0	0	0	0	0	0	0	0	0	0	0	0	0	2687	532	0	0	0	3219	8	6	1	2	0	3	0	0	1	2	0	0	1	0	11	"UNACCOUNTED FOR GAS TAKEN FROM EIA -176 TOTAL RECEIPTS FROM LMGA = 131,870 (2003) TOTAL DISPOSITION FROM CITY CUSTOMERS = 119,805 (2003)"	"KAREN KENNEDY, PE"	2256445523	4/1/2004	5/10/2004		
2003	20030986	CHOUTEAU PUBLIC WORKS AUTH	2356	111 NORTH MCCRACKEN ST	CHOUTEAU	MAYES	OK	74337						 OK	0	0	0	4	25	0	0	0	0	0	29	0	0	0	0	678	0	0	0	0	0	678	0	0	0	4	0	0	4	0	0	0	0	0	0	0	0	0	0	0	0	0	0	0	0	0	0	0	0	0	0	0	0	0	0	0	0	0	18	7	0	0	0	25	0	0	0	0	0	0	0	0	0	0	0	0	0	0	0	0	0	0	0	0	0	0	18	7	4	0	0	29	10	0	0	0	0	0	0	0	0	0	0	0	0	0	0	0	0	0	0	0	0	0	0	0	0	0	0	0	0	0	0	0	0	0	0	0	0	674	4	0	0	0	678	0	0	0	0	0	0	0	0	0	0	0	0	0	0	0	0	0	0	0	0	0	0	674	4	0	0	0	678	0	0	0	0	1	3	0	0	1	0	0	0	0	0	3		KEITH HARRIS	9184768925	3/26/2004	4/6/2004		
2003	20030987	AMERENCIPS	2204	607 EAST ADAMS STREET	SPRINGFIELD	SANGAMON	IL	62739					22222	 IL	0	0	0	2957	1719	0	0	0	0	0	4676	0	0	0	83627	89235	0	0	0	0	0	172862	0	1610	776	539	32	0	2957	0	0	0	0	0	0	0	0	0	0	0	0	0	0	0	0	0	0	0	0	0	0	0	0	0	0	0	0	0	1528	167	24	0	0	1719	0	0	0	0	0	0	0	0	0	0	0	0	0	0	0	0	0	0	0	0	0	0	3138	943	563	32	0	4676	75	15974	65872	1528	252	1	0	83627	0	0	0	0	0	0	0	0	0	0	0	0	0	0	0	0	0	0	0	0	0	0	0	0	0	0	0	0	0	88195	1021	9	10	0	89235	0	0	0	0	0	0	0	0	0	0	0	0	0	0	0	0	0	0	0	0	0	15974	154067	2549	261	11	0	172862	13	35	2	38	69	175	29	112	22	120	30	126	2	0	3		PATTY MARCOLINI	2175355409	3/26/2004	4/7/2004		
2003	20030988	WILLMUT GAS & OIL CO - MAIN OFFICE	22658	315 S. MAIN STREET	HATTIESBURG	FORREST	MS	39401						 MS	0	0	54	436	203	0	0	0	0	0	693	0	0	2772	16773	4125	0	0	0	0	0	23670	0	368	91	18	13	0	490	0	0	0	0	0	0	0	0	0	0	0	0	0	0	0	0	0	0	0	0	0	0	0	0	0	0	0	0	0	158	45	0	0	0	203	0	0	0	0	0	0	0	0	0	0	0	0	0	0	0	0	0	0	0	0	0	0	526	136	18	13	0	693	104	0	2387	17120	37	1	0	19545	0	0	0	0	0	0	0	0	0	0	0	0	0	0	0	0	0	0	0	0	0	0	0	0	0	0	0	0	0	4124	0	1	0	0	4125	0	0	0	0	0	0	0	0	0	0	0	0	0	0	0	0	0	0	0	0	0	0	6511	17120	38	1	0	23670	38	71	0	0	19	74	0	0	0	0	6	181	0	0	0		DAVID SKINNER	6015446001	3/29/2004	4/6/2004		
2003	20030989	"SHELBY GAS DEPT, CITY OF"	18264	824 W. GROVER STREET	SHELBY	CLEVELAND	NC	28150	CITY OF SHELBY PO BOX 207	SHELBY	CLEVELAND	NC	28151	 NC	0	0	0	216	232	0	0	0	0	0	448	0	0	0	2777	7176	0	0	0	216	0	10169	0	84	51	80	1	0	216	0	0	0	0	0	0	0	0	0	0	0	0	0	0	0	0	0	0	0	0	0	0	0	0	0	0	0	0	0	175	57	0	0	0	232	0	0	0	0	0	0	0	0	0	0	0	0	0	0	0	0	0	0	0	0	0	0	259	108	80	1	0	448	115	0	2732	36	6	3	0	2777	0	0	0	0	0	0	0	0	0	0	0	0	0	0	0	0	0	0	0	0	0	0	0	0	0	0	0	0	0	7137	37	2	0	0	7176	0	0	0	0	0	0	0	0	215	1	0	0	0	216	0	0	0	0	0	0	0	0	10084	74	8	3	0	10169	1	1	0	1	3	17	4	4	0	0	0	0	0	0	1	"PART B, NUMBER 3- OTHER-THIS IS PLASTIC/STEEL COMBINATIONS."	KAREN D. WILKINS	7044846840	3/29/2004	4/6/2004		
2003	20030990	"BYHALIA MUNICIPAL SYSTEM, TOWN OF"	1976	161 HWY 309 S	BYHALIA		MS	38611						 MS	0	0	0	7	43	0	0	0	0	0	50	0	0	0	253	632	0	0	0	0	0	885	0	5	2	0	0	0	7	0	0	0	0	0	0	0	0	0	0	0	0	0	0	0	0	0	0	0	0	0	0	0	0	0	0	0	0	0	28	15	0	0	0	43	0	0	0	0	0	0	0	0	0	0	0	0	0	0	0	0	0	0	0	0	0	0	33	17	0	0	0	50	0	0	246	4	2	0	0	252	0	0	0	0	0	0	0	0	0	0	0	0	0	0	0	0	0	0	0	0	0	0	0	0	0	0	0	0	0	626	10	0	0	0	636	0	0	0	0	0	0	0	0	0	0	0	0	0	0	0	0	0	0	0	0	0	0	872	14	2	0	0	888	0	2	0	0	0	5	3	7	0	0	0	0	0	0	5.542		ANGIE MILLIORN	6628382135	3/30/2004	4/6/2004		
2003	20030991	"COHASSET, CITY OF"	31014	1608 4TH ST NW	GRAND RAPIDS	ITASCA	MN	55744						 MN	0	0	0	0	42	0	0	0	0	0	42	0	0	0	0	687	0	0	0	0	0	687	0	0	0	0	0	0	0	0	0	0	0	0	0	0	0	0	0	0	0	0	0	0	0	0	0	0	0	0	0	0	0	0	0	0	0	0	31	10	1	0	0	42	0	0	0	0	0	0	0	0	0	0	0	0	0	0	0	0	0	0	0	0	0	0	31	10	1	0	0	42	0	0	0	0	0	0	0	0	0	0	0	0	0	0	0	0	0	0	0	0	0	0	0	0	0	0	0	0	0	0	0	0	0	0	0	0	0	663	24	0	0	0	687	0	0	0	0	0	0	0	0	0	0	0	0	0	0	0	0	0	0	0	0	0	0	663	24	0	0	0	687	0	0	0	0	0	3	0	0	0	0	0	0	0	0	0		NORTHWEST GAS	2183263495	3/29/2004	4/6/2004		
2003	20030992	NORTHWEST GAS	31292	1608 4TH ST NW	GRAND RAPIDS	ITASCA	MN	55744						 MN	0	0	0	0	2	0	0	0	0	0	2	0	0	0	0	66	0	0	0	0	0	66	0	0	0	0	0	0	0	0	0	0	0	0	0	0	0	0	0	0	0	0	0	0	0	0	0	0	0	0	0	0	0	0	0	0	0	0	2	0	0	0	0	2	0	0	0	0	0	0	0	0	0	0	0	0	0	0	0	0	0	0	0	0	0	0	2	0	0	0	0	2	125	0	0	0	0	0	0	0	0	0	0	0	0	0	0	0	0	0	0	0	0	0	0	0	0	0	0	0	0	0	0	0	0	0	0	0	0	66	0	0	0	0	66	0	0	0	0	0	0	0	0	0	0	0	0	0	0	0	0	0	0	0	0	0	0	66	0	0	0	0	66	0	0	0	0	0	0	0	0	0	0	0	0	0	0	0	RUTTGERS SUGAR LK	NORTHWEST GAS	2183263495	3/29/2004	4/6/2004		
2003	20030993	NORTHWEST GAS	31292	1608 4TH STREET NW	GRAND RAPIDS	ITASCA	MN	55744						 MN	0	0	0	0	21	0	0	0	0	0	21	0	0	0	0	253	0	0	0	0	0	253	0	0	0	0	0	0	0	0	0	0	0	0	0	0	0	0	0	0	0	0	0	0	0	0	0	0	0	0	0	0	0	0	0	0	0	0	11	10	0	0	0	21	0	0	0	0	0	0	0	0	0	0	0	0	0	0	0	0	0	0	0	0	0	0	11	10	0	0	0	21	120	0	0	0	0	0	0	0	0	0	0	0	0	0	0	0	0	0	0	0	0	0	0	0	0	0	0	0	0	0	0	0	0	0	0	0	0	243	10	0	0	0	253	0	0	0	0	0	0	0	0	0	0	0	0	0	0	0	0	0	0	0	0	0	0	243	10	0	0	0	253	0	0	0	0	0	3	0	0	0	0	0	0	0	0	0	CASS LK	NORTHWEST GAS	2183263495	3/22/2004	4/6/2004		
2003	20030994	"WINSTONVILLE, CITY OF"	22746	105 OSLEY ST BOX 151	WINSTONVILLE		MS	38781						 MS	0	0	0	1	3	0	0	0	0	0	4	0	0	0	0	116	0	0	0	0	0	116	0	1	0	0	0	0	1	0	0	0	0	0	0	0	0	0	0	0	0	0	0	0	0	0	0	0	0	0	0	0	0	0	0	0	0	0	3	0	0	0	0	3	0	0	0	0	0	0	0	0	0	0	0	0	0	0	0	0	0	0	0	0	0	0	4	0	0	0	0	4	0	0	0	0	0	0	0	0	0	0	0	0	0	0	0	0	0	0	0	0	0	0	0	0	0	0	0	0	0	0	0	0	0	0	0	0	0	116	0	0	0	0	116	0	0	0	0	0	0	0	0	0	0	0	0	0	0	0	0	0	0	0	0	0	0	116	0	0	0	0	116	1	1	0	0	0	0	0	0	0	0	0	0	0	0	0.06		"HENRY PERKINS, JR."	6627412106	3/30/2004	4/6/2004		
2003	20030995	SHANNON MUNICIPLE GAS SYSTEM	18224	1426 NORTH STREET	SHANNON 	LEE	MS	38868						 MS	0	0	0	21	13	0	0	0	0	0	34	0	0	0	225	511	0	0	0	0	0	736	0	7	14	0	0	0	21	0	0	0	0	0	0	0	0	0	0	0	0	0	0	0	0	0	0	0	0	0	0	0	0	0	0	0	0	0	10	3	0	0	0	13	0	0	0	0	0	0	0	0	0	0	0	0	0	0	0	0	0	0	0	0	0	0	17	17	0	0	0	34	150	0	225	0	0	0	0	225	0	0	0	0	0	0	0	0	0	0	0	0	0	0	0	0	0	0	0	0	0	0	0	0	0	0	0	0	0	511	0	0	0	0	511	0	0	0	0	0	0	0	0	0	0	0	0	0	0	0	0	0	0	0	0	0	0	736	0	0	0	0	736	0	0	0	0	0	0	0	0	0	0	0	0	1	0	0	UNACCOUNTED FOR GAS -1.9%	TOM ABERNATHY	6627673969	3/30/2004	4/6/2004		
2003	20030996	"QUITMAN GAS DEPT, CITY OF"	16020	100 W. SCREVEN STREET	QUTIMAN	BROOKS	GA	31643						 GA	0	0	0	29	4	0	0	0	0	0	33	0	0	0	1110	221	0	0	0	0	0	1331	0	28	2	0	0	0	30	0	0	0	0	0	0	0	0	0	0	0	0	0	0	0	0	0	0	0	0	0	0	0	0	0	0	0	0	0	1	2	0	0	0	3	0	0	0	0	0	0	0	0	0	0	0	0	0	0	0	0	0	0	0	0	0	0	29	4	0	0	0	33	65	0	1103	6	0	0	0	1109	0	0	0	0	0	0	0	0	0	0	0	0	0	0	0	0	0	0	0	0	0	0	0	0	0	0	0	0	0	219	2	1	0	0	222	0	0	0	0	0	0	0	0	0	0	0	0	0	0	0	0	0	0	0	0	0	0	1322	8	1	0	0	1331	1	1	0	4	0	0	0	0	0	5	0	31	9	0	0		TONY MCRAE	2292634166	3/30/2004	4/6/2004		
2003	20030997	WEST JEFFERSON GAS SYSTEM	22406	7076 WEST JEFFERSON ROAD	WEST JEFFERSON	JEFFERSON	AL	35130						 AL	0	0	0	22	8	0	0	0	0	0	30	0	0	46	54	232	0	0	0	311	0	643	0	11	10	1	0	0	22	0	0	0	0	0	0	0	0	0	0	0	0	0	0	0	0	0	0	0	0	0	0	0	0	0	0	0	0	0	8	0	0	0	0	8	0	0	0	0	0	0	0	0	0	0	0	0	0	0	0	0	0	0	0	0	0	0	19	10	1	0	0	30	125	0	409	2	0	0	0	411	0	0	0	0	0	0	0	0	0	0	0	0	0	0	0	0	0	0	0	0	0	0	0	0	0	0	0	0	0	232	0	0	0	0	232	0	0	0	0	0	0	0	0	0	0	0	0	0	0	0	0	0	0	0	0	0	0	641	2	0	0	0	643	0	1	0	0	0	0	0	0	0	0	0	0	0	0	2		"CHARLES NIX, UTILITIES SUPERVISOR"	2056743219	3/30/2004	4/6/2004		
2003	20030998	"UNIVERSAL NATURAL GAS, INC."	968	9750 FM 1488	MAGNOLIA	MONTGOMERY	TX	77354						 TX	0	0	0	8	177	0	0	0	0	0	185	0	0	0	0	3119	0	0	0	0	0	3119	0	1	6	0	0	0	7	0	0	0	0	0	0	0	0	0	0	0	0	0	0	0	0	0	0	0	0	0	0	0	0	0	0	0	0	0	121	55	2	0	0	178	0	0	0	0	0	0	0	0	0	0	0	0	0	0	0	0	0	0	0	0	0	0	122	61	2	0	0	185	30	0	0	0	0	0	0	0	0	0	0	0	0	0	0	0	0	0	0	0	0	0	0	0	0	0	0	0	0	0	0	0	0	0	0	0	0	3104	15	0	0	0	3119	0	0	0	0	0	0	0	0	0	0	0	0	0	0	0	0	0	0	0	0	0	0	3104	15	0	0	0	3119	0	0	0	1	5	3	0	0	1	1	0	0	0	0	0.35		ROBERT S. BARNWELL	2812526700	3/29/2004	4/6/2004		
2003	20030999	"ALTO NATURAL GAS CO, CITY OF"	387	404 WEST SAN ANTONIO	ALTO 	CHEROKEE	TX	75925						 TX	0	0	0	67	11	0	0	0	0	0	78	0	0	0	767	130	0	0	0	0	0	897	0	34	18	15	0	0	67	0	0	0	0	0	0	0	0	0	0	0	0	0	0	0	0	0	0	0	0	0	0	3	0	0	0	0	3	0	0	8	0	0	0	8	0	0	0	0	0	0	0	0	0	0	0	0	0	0	0	0	0	0	0	0	0	0	37	26	15	0	0	78	12	0	0	773	0	0	0	773	0	0	0	0	0	0	0	0	0	0	0	0	0	0	0	0	0	0	0	0	0	0	59	30	0	0	0	89	0	0	34	1	0	0	35	0	0	0	0	0	0	0	0	0	0	0	0	0	0	0	0	0	0	0	0	0	0	59	837	1	0	0	897	7	0	0	0	0	0	23	0	0	0	0	0	101	0	1		DANNY F. CHRISTOPHER	9368584711	3/30/2004	4/6/2004		
2003	20031000	COPAN PUBLIC WORKS AUTHORITY	2776	"112 N CANEY, PO BOX 219"	COPAN	WASHINGTON	OK	74022						 OK	1	1	0	11	0	0	0	0	0	0	13	1	2	0	425	0	0	0	0	0	0	428	0	1	0	0	0	0	1	0	0	0	0	0	0	0	0	0	0	0	0	0	0	0	0	0	0	0	0	0	0	0	0	0	0	0	0	0	12	0	0	0	0	12	0	0	0	0	0	0	0	0	0	0	0	0	0	0	0	0	0	0	0	0	0	0	13	0	0	0	0	13	0	0	3	0	0	0	0	3	0	0	0	0	0	0	0	0	0	0	0	0	0	0	0	0	0	0	0	0	0	0	0	0	0	0	0	0	0	0	0	0	0	0	0	0	425	0	0	0	0	425	0	0	0	0	0	0	0	0	0	0	0	0	0	0	0	428	0	0	0	0	428	0	0	1	0	0	0	0	0	2	0	0	3	0	0	8.67		KATHLEEN PRUETT	9185324114	3/30/2004	8/25/2004		
2003	20031001	KAMPS PROPANE	31964	1915 E MOFFAT BLVD	MANTECA		CA	95336						 CA	0	0	0	1	1	0	0	0	0	0	2	0	0	0	97	16	0	0	0	0	0	113	0	1	0	0	0	0	1	0	0	0	0	0	0	0	0	0	0	0	0	0	0	0	0	0	0	0	0	0	0	0	0	0	0	0	0	0	1	0	0	0	0	1	0	0	0	0	0	0	0	0	0	0	0	0	0	0	0	0	0	0	0	0	0	0	2	0	0	0	0	2	40	0	97	0	0	0	0	97	0	0	0	0	0	0	0	0	0	0	0	0	0	0	0	0	0	0	0	0	0	0	0	0	0	0	0	0	0	16	0	0	0	0	16	0	0	0	0	0	0	0	0	0	0	0	0	0	0	0	0	0	0	0	0	0	0	113	0	0	0	0	113	0	0	0	0	0	0	0	0	0	0	0	0	26	0	9	"CASCADE MOBILE    LEAK- ABOVE GROUND FITTINGS- TEE'S UNIONS, ELBOWS.      VALVES- NEEDING LUBACATION."	J. OLIVER	5304701748	3/31/2004	4/21/2004		
2003	20031002	KAMPS PROPANE	31964	9811 E. MOFFAT BLVD	MANTECA		CA	95336						 CA	0	0	0	2	0	0	0	0	0	0	2	0	0	0	148	0	0	0	0	0	0	148	0	2	0	0	0	0	2	0	0	0	0	0	0	0	0	0	0	0	0	0	0	0	0	0	0	0	0	0	0	0	0	0	0	0	0	0	0	0	0	0	0	0	0	0	0	0	0	0	0	0	0	0	0	0	0	0	0	0	0	0	0	0	0	0	2	0	0	0	0	2	50	0	148	0	0	0	0	148	0	0	0	0	0	0	0	0	0	0	0	0	0	0	0	0	0	0	0	0	0	0	0	0	0	0	0	0	0	0	0	0	0	0	0	0	0	0	0	0	0	0	0	0	0	0	0	0	0	0	0	0	0	0	0	0	0	148	0	0	0	0	148	0	0	0	0	0	0	0	0	0	0	4	0	16	0	9	"DIAMOND SPRINGS MOBILE    LEAKS-MOSTLEY ABOVE GROUND FITTINGS, UNIONS, ELBOWS, TEE'S, VALVES NEEDING LUBACATION."	J. OLIVER	5304701748	3/31/2004	4/21/2004		
2003	20031003	KAMPS PROPANE	31964	9811 E. MOFFAT BLVD.	MANTECA		CA	95336						 CA	0	0	0	1	1	0	0	0	0	0	2	0	0	0	105	105	0	0	0	0	0	210	0	1	0	0	0	0	1	0	0	0	0	0	0	0	0	0	0	0	0	0	0	0	0	0	0	0	0	0	0	0	0	0	0	0	0	0	1	0	0	0	0	1	0	0	0	0	0	0	0	0	0	0	0	0	0	0	0	0	0	0	0	0	0	0	2	0	0	0	0	2	50	0	105	0	0	0	0	105	0	0	0	0	0	0	0	0	0	0	0	0	0	0	0	0	0	0	0	0	0	0	0	0	0	0	0	0	0	105	0	0	0	0	105	0	0	0	0	0	0	0	0	0	0	0	0	0	0	0	0	0	0	0	0	0	0	210	0	0	0	0	210	0	0	0	0	0	0	0	0	0	0	0	4	0	0	4	"TOWER PARK    LEAKS- ABOVE GROUND FITTINGS, UNION AND VALVES NEEDING LUBACATION."	J. OLIVER	5304701748	3/31/2004	4/21/2004		
2003	20031004	KAMPS PROPANE	31964	9811 E. MOFFAT BLVD.	MANTECA		CA	95336						 CA	0	0	0	1	0	0	0	0	0	0	1	0	0	0	182	0	0	0	0	0	0	182	0	1	0	0	0	0	1	0	0	0	0	0	0	0	0	0	0	0	0	0	0	0	0	0	0	0	0	0	0	0	0	0	0	0	0	0	0	0	0	0	0	0	0	0	0	0	0	0	0	0	0	0	0	0	0	0	0	0	0	0	0	0	0	0	1	0	0	0	0	1	60	0	182	0	0	0	0	182	0	0	0	0	0	0	0	0	0	0	0	0	0	0	0	0	0	0	0	0	0	0	0	0	0	0	0	0	0	0	0	0	0	0	0	0	0	0	0	0	0	0	0	0	0	0	0	0	0	0	0	0	0	0	0	0	0	182	0	0	0	0	182	0	1	0	0	0	0	0	0	0	0	0	0	47	0	16	"THE WILLOWS@BETHEL ISLAND    LAEKS- ABOVE GROUND FITTINGS- TEES, UNIONS, ELBOWS.    VALVES- NEEDING LABACATION."	J. OLIVER	5304701748	3/31/2004	4/21/2004		
2003	20031005	MARTIN GAS COMPANY INC	12208	PO BOX 783	HINDMAN	KNOTT	KY	41822						 KY	0	0	0	0	18	0	0	0	0	0	18	0	0	0	0	506	0	0	0	0	0	506	0	0	0	0	0	0	0	0	0	0	0	0	0	0	0	0	0	0	0	0	0	0	0	0	0	0	0	0	0	0	0	0	0	0	0	0	7	11	0	0	0	18	0	0	0	0	0	0	0	0	0	0	0	0	0	0	0	0	0	0	0	0	0	0	7	11	0	0	0	18	20	0	0	0	0	0	0	0	0	0	0	0	0	0	0	0	0	0	0	0	0	0	0	0	0	0	0	0	0	0	0	0	0	0	0	0	0	498	8	0	0	0	506	0	0	0	0	0	0	0	0	0	0	0	0	0	0	0	0	0	0	0	0	0	0	498	8	0	0	0	506	0	0	0	0	2	3	0	0	0	0	0	0	0	0	1.3		"JERRY MADDEN, BOOKKEEPER"	6067850761	3/31/2004	4/6/2004		
2003	20031006	"JAMESTOWN MUNICIPAL GAS DEPT, CITY OF"	9110	300 WALNUT PO BOX 274	JAMESTOWN	CLOUD	KS	66948						 KS	0	0	0	18	0	0	0	0	0	0	18	0	0	0	201	0	0	0	0	0	0	201	0	4	14	0	0	0	18	0	0	0	0	0	0	0	0	0	0	0	0	0	0	0	0	0	0	0	0	0	0	0	0	0	0	0	0	0	0	0	0	0	0	0	0	0	0	0	0	0	0	0	0	0	0	0	0	0	0	0	0	0	0	0	0	0	4	14	0	0	0	18	75	0	0	196	0	0	0	196	0	0	0	0	0	0	0	0	0	0	0	0	0	0	0	0	0	0	0	0	0	0	0	0	0	0	0	0	0	0	5	0	0	0	5	0	0	0	0	0	0	0	0	0	0	0	0	0	0	0	0	0	0	0	0	0	0	0	201	0	0	0	201	0	0	0	0	0	0	0	0	0	0	0	0	0	0	2		MARY K. BALLARD	7854396621	3/30/2004	4/6/2004		
2003	20031007	"CHIRENO MUNICIPAL GAS, CITY OF"	2352	P.O. BOX 87   664 MAIN ST	CHIRENO 	NACODOEHES	TX	75961						 TX	0	0	0	50	187	0	0	0	0	0	237	0	784	0	613	301	0	0	0	0	0	1698	0	0	30	20	0	0	50	0	0	0	0	0	0	0	0	0	0	0	0	0	0	0	0	0	0	0	0	0	0	0	0	0	0	0	0	0	31	140	0	0	0	171	0	16	0	0	0	0	16	0	0	0	0	0	0	0	0	0	0	0	0	0	0	0	47	170	20	0	0	237	25	0	1212	185	0	0	0	1397	0	0	0	0	0	0	0	0	0	0	0	0	0	0	0	0	0	0	0	0	0	0	0	0	0	0	0	0	0	263	38	0	0	0	301	0	0	0	0	0	0	0	0	0	0	0	0	0	0	0	0	0	0	0	0	0	0	1475	223	0	0	0	1698	0	1	0	2	2	6	0	0	0	0	0	2	0	0	9.15		"DEANNIE MEADOR, CITY SEC."	9363622312	3/24/2004	4/6/2004		
2003	20031008	"LIBERTY MUNICIPLE SYSTEM, TOWN OF"	11480	160 CLINIC DRIVE	LIBERTY	AMITE	MS	39645					39645	 MS	0	0	0	43	2	0	0	0	0	0	45	0	0	0	339	9	0	0	0	0	0	348	0	24	19	0	0	0	43	0	0	0	0	0	0	0	0	0	0	0	0	0	0	0	0	0	0	0	0	0	0	0	0	0	0	0	0	0	2	0	0	0	0	2	0	0	0	0	0	0	0	0	0	0	0	0	0	0	0	0	0	0	0	0	0	0	26	19	0	0	0	45	50	0	339	0	0	0	0	339	0	0	0	0	0	0	0	0	0	0	0	0	0	0	0	0	0	0	0	0	0	0	0	0	0	0	0	0	1	1	7	0	0	0	9	0	0	0	0	0	0	0	0	0	0	0	0	0	0	0	0	0	0	0	0	0	1	340	7	0	0	0	348	1	2	0	5	0	0	0	10	0	7	0	0	0	0		UNACCOUNTED FOR GAS A A PERCENT OF TOTAL INPUT FOR YEAR ENDING 6/30 IS -1.3%	"GEORGE E MOULEDOUX, JR."	5048914711	3/24/2004	4/6/2004		
2003	20031009	"WOODVILLE, TOWN OF"	22882	501 MAIN ST	WOODVILLE	WILKINSON	MS	39669						 MS	0	0	7	16	1	0	0	0	0	0	24	0	0	275	715	7	0	0	0	0	0	997	0	11	12	0	0	0	23	0	0	0	0	0	0	0	0	0	0	0	0	0	0	0	0	0	0	0	0	0	0	0	0	0	0	0	0	0	1	0	0	0	0	1	0	0	0	0	0	0	0	0	0	0	0	0	0	0	0	0	0	0	0	0	0	0	12	12	0	0	0	24	50	0	978	12	0	0	0	990	0	0	0	0	0	0	0	0	0	0	0	0	0	0	0	0	0	0	0	0	0	0	0	0	0	0	0	0	0	7	0	0	0	0	7	0	0	0	0	0	0	0	0	0	0	0	0	0	0	0	0	0	0	0	0	0	0	985	12	0	0	0	997	2	3	0	2	0	0	0	15	0	6	0	0	0	0	14.77		"GEORGE E MOULEDOUX, JR."	5048914711	3/24/2004	4/6/2004		
2003	20031010	BUFFALO GAS CO	1864	P.O. BOX 857	WOODVILLE	WILKINSON	MS	39669						 MS	0	0	0	1	0	0	0	0	0	0	1	0	0	0	20	0	0	0	0	0	0	20	0	1	0	0	0	0	1	0	0	0	0	0	0	0	0	0	0	0	0	0	0	0	0	0	0	0	0	0	0	0	0	0	0	0	0	0	0	0	0	0	0	0	0	0	0	0	0	0	0	0	0	0	0	0	0	0	0	0	0	0	0	0	0	0	1	0	0	0	0	1	50	0	20	0	0	0	0	20	0	0	0	0	0	0	0	0	0	0	0	0	0	0	0	0	0	0	0	0	0	0	0	0	0	0	0	0	0	0	0	0	0	0	0	0	0	0	0	0	0	0	0	0	0	0	0	0	0	0	0	0	0	0	0	0	0	20	0	0	0	0	20	0	0	0	0	0	0	0	0	0	0	0	0	0	0	11.2		"GEORGE E MOULEDOUX, JR."	5048914711	3/24/2004	4/6/2004		
2003	20031011	"JONESVILLE, TOWN OF"	9310	P.O. BOX 428	JONESVILLE	CATAHOULA	LA	71343						 LA	0	0	0	20	28	0	0	0	0	0	48	0	0	0	83	1012	0	0	0	0	0	1095	0	1	12	7	0	0	20	0	0	0	0	0	0	0	0	0	0	0	0	0	0	0	0	0	0	0	0	0	0	0	0	0	0	0	0	0	28	0	0	0	0	28	0	0	0	0	0	0	0	0	0	0	0	0	0	0	0	0	0	0	0	0	0	0	29	12	7	0	0	48	20	0	32	51	0	0	0	83	0	0	0	0	0	0	0	0	0	0	0	0	0	0	0	0	0	0	0	0	0	0	0	0	0	0	0	0	0	1008	4	0	0	0	1012	0	0	0	0	0	0	0	0	0	0	0	0	0	0	0	0	0	0	0	0	0	0	1040	55	0	0	0	1095	0	3	0	0	0	0	0	5	0	1	0	0	0	0		UNACCUONTED FOR GAS AS A PERCENT OF TOTAL INPUT FOR YEAR ENDING 6/30 IS -3.9%.	"GEORGE E MOULEDOUX, JR."	5048914711	3/24/2004	4/6/2004		
2003	20031012	"GRAND ISLE, TOWN OF"	6510	"P.O. BOX 200, 170 LUDWIG "	GRAND ISLE	JEFFERSON	LA	70358						 LA	0	0	0	34	2	0	0	0	0	0	36	0	0	0	1027	310	0	0	0	0	0	1337	0	25	9	0	0	0	34	0	0	0	0	0	0	0	0	0	0	0	0	0	0	0	0	0	0	0	0	0	0	0	0	0	0	0	0	0	2	0	0	0	0	2	0	0	0	0	0	0	0	0	0	0	0	0	0	0	0	0	0	0	0	0	0	0	27	9	0	0	0	36	140	0	1027	0	0	0	0	1027	0	0	0	0	0	0	0	0	0	0	0	0	0	0	0	0	0	0	0	0	0	0	0	0	0	0	0	0	0	310	0	0	0	0	310	0	0	0	0	0	0	0	0	0	0	0	0	0	0	0	0	0	0	0	0	0	0	1337	0	0	0	0	1337	11	3	0	3	0	0	0	0	3	27	0	0	0	0	14.3		"GEROGE E. MOULEDOUX, JR."	5048914711	3/24/2004	4/6/2004		
2003	20031013	"DORA GAS BOARD, TOWN OF"	3490	1485 SHARON BLVD	DORA 	WALKER	AL	35062						 AL	0	0	0	20	12	0	0	0	0	0	32	0	0	0	680	240	0	0	0	0	0	920	0	16	0	4	0	0	20	0	0	0	0	0	0	0	0	0	0	0	0	0	0	0	0	0	0	0	0	0	0	0	0	0	0	0	0	0	7	3	2	0	0	12	0	0	0	0	0	0	0	0	0	0	0	0	0	0	0	0	0	0	0	0	0	0	23	3	6	0	0	32	75	0	670	0	11	0	0	681	0	0	0	0	0	0	0	0	0	0	0	0	0	0	0	0	0	0	0	0	0	0	0	0	0	0	0	0	0	239	0	0	0	0	239	0	0	0	0	0	0	0	0	0	0	0	0	0	0	0	0	0	0	0	0	0	0	909	0	11	0	0	920	0	1	0	0	0	6	0	0	0	0	0	0	0	0	2		ROD ROBERTS      SEC/TREA	2056486363	3/24/2004	4/6/2004		
2003	20031014	TOWN OF WADLEY	22014	311 MAIN ST	WADLEY	RANDOLPH	AL	36276						 AL	0	0	0	2	7	0	0	0	0	0	9	0	0	3	0	205	0	0	0	0	0	208	0	0	2	0	0	0	2	0	0	0	0	0	0	0	0	0	0	0	0	0	0	0	0	0	0	0	0	0	0	0	0	0	0	0	0	0	6	1	0	0	0	7	0	0	0	0	0	0	0	0	0	0	0	0	0	0	0	0	0	0	0	0	0	0	6	3	0	0	0	9	24	0	0	2	1	0	0	3	0	0	0	0	0	0	0	0	0	0	0	0	0	0	0	0	0	0	0	0	0	0	0	0	0	0	0	0	0	199	5	1	0	0	205	0	0	0	0	0	0	0	0	0	0	0	0	0	0	0	0	0	0	0	0	0	0	199	7	2	0	0	208	0	0	0	0	0	0	0	0	0	0	0	0	0	0	2		"MARSHA C POE, CITY CLERK"	2563959112	3/24/2004	8/4/2004		
2003	20031015	"VALLEY RURAL UTILITY CO. C/O UTILITY PIPELINE, LTD"	31940	5900 MAYFAIR ROAD NW	NORTH CANTON		OH	44720						 IN	0	0	0	0	32	0	0	0	0	0	32	0	0	0	0	152	0	0	0	0	0	152	0	0	0	0	0	0	0	0	0	0	0	0	0	0	0	0	0	0	0	0	0	0	0	0	0	0	0	0	0	0	0	0	0	0	0	0	23	7	2	0	0	32	0	0	0	0	0	0	0	0	0	0	0	0	0	0	0	0	0	0	0	0	0	0	23	7	2	0	0	32	60	0	0	0	0	0	0	0	0	0	0	0	0	0	0	0	0	0	0	0	0	0	0	0	0	0	0	0	0	0	0	0	0	0	0	0	0	152	0	0	0	0	152	0	0	0	0	0	0	0	0	0	0	0	0	0	0	0	0	0	0	0	0	0	0	152	0	0	0	0	152	0	0	0	0	0	0	0	0	0	4	0	0	0	0	0		ROBERT WENTZEL	3304989130	3/10/2004	4/6/2004		
2003	20031016	"VIENNA MUNICIPAL GAS SYSTEM, CITY OF"	21260	BOX 1442	VIENNA	JOHNSON	IL	62996						 IL	0	0	0	9	4	0	0	0	0	0	13	0	0	0	520	113	0	0	0	0	0	633	0	6	3	0	0	0	9	0	0	0	0	0	0	0	0	0	0	0	0	0	0	0	0	0	0	0	0	0	0	0	0	0	0	0	0	0	4	0	0	0	0	4	0	0	0	0	0	0	0	0	0	0	0	0	0	0	0	0	0	0	0	0	0	0	10	3	0	0	0	13	65	0	510	10	0	0	0	520	0	0	0	0	0	0	0	0	0	0	0	0	0	0	0	0	0	0	0	0	0	0	0	0	0	0	0	0	0	112	1	0	0	0	113	0	0	0	0	0	0	0	0	0	0	0	0	0	0	0	0	0	0	0	0	0	0	622	11	0	0	0	633	1	0	0	0	0	0	0	0	0	0	0	0	1	0	5	"1998 - INSTALLED 1,000' OF 2"" PE MAIN  1998 - INSTALLED 503' OF 1 1/4"" PE MAIN  2001 - INSTALLED 2350'OF 2"" PE MAIN  2003 - INSTALLED 726'  OF 1 1/4"" PE MAIN"	UNTILITY SAFETY DESIGN INC	6186561235	3/24/2004	4/6/2004		
2003	20031017	APPLEBY NATURAL GAS SYSTEM	558	14059 N US HWY 59	NACOGDOCHES	NACOGDOCHES	TX	75965						 TX	0	0	0	35	11	0	0	0	0	0	46	0	0	0	334	61	0	0	0	0	0	395	0	0	32	3	0	0	35	0	0	0	0	0	0	0	0	0	0	0	0	0	0	0	0	0	0	0	0	0	0	0	0	0	0	0	0	0	3	8	0	0	0	11	0	0	0	0	0	0	0	0	0	0	0	0	0	0	0	0	0	0	0	0	0	0	3	40	3	0	0	46	20	0	0	329	0	0	0	329	0	0	0	0	0	0	0	0	0	0	0	0	0	0	0	0	0	0	0	0	0	0	0	0	0	0	0	0	0	0	66	0	0	0	66	0	0	0	0	0	0	0	0	0	0	0	0	0	0	0	0	0	0	0	0	0	0	0	395	0	0	0	395	0	0	0	0	0	12	0	0	0	0	0	0	0	0	5		SUE WILLIFORD	5644139	3/12/2004	4/6/2004		
2003	20031018	"REMSEN MUNICIPAL UTILITIES, TOWN OF"	17210	205 FULTON STREET	REMSEN	PLYMOUTH	IA	51050						 IA	0	0	0	8	1	0	0	0	0	0	9	0	0	0	697	50	0	0	0	0	0	747	0	5	2	1	0	0	8	0	0	0	0	0	0	0	0	0	0	0	0	0	0	0	0	0	0	0	0	0	0	1	0	0	0	0	1	0	0	0	0	0	0	0	0	0	0	0	0	0	0	0	0	0	0	0	0	0	0	0	0	0	0	0	0	0	6	2	1	0	0	9	75	0	681	16	0	0	0	697	0	0	0	0	0	0	0	0	0	0	0	0	0	0	0	0	0	0	0	0	0	0	49	1	0	0	0	50	0	0	0	0	0	0	0	0	0	0	0	0	0	0	0	0	0	0	0	0	0	0	0	0	0	0	0	0	0	730	17	0	0	0	747	0	0	0	4	0	0	0	1	0	0	0	0	0	0	3.5		STEVEN J. PICK	7127862136	3/24/2004	4/6/2004		
2003	20031019	"MCLEAN, CITY OF"	12288	220 N. MAIN	MCLEAN	GRAY	TX	79057						 TX	3	0	0	2	45	0	0	0	0	0	50	0	0	0	0	669	0	0	0	0	0	669	0	0	5	0	0	0	5	0	0	0	0	0	0	0	0	0	0	0	0	0	0	0	0	0	0	0	0	0	0	0	0	0	0	0	0	0	35	10	0	0	0	45	0	0	0	0	0	0	0	0	0	0	0	0	0	0	0	0	0	0	0	0	0	0	35	15	0	0	0	50	12	0	0	0	0	0	0	0	0	0	0	0	0	0	0	0	0	0	0	0	0	0	0	0	0	0	0	0	0	0	0	0	0	0	0	0	0	664	5	0	0	0	669	0	0	0	0	0	0	0	0	0	0	0	0	0	0	0	0	0	0	0	0	0	0	664	5	0	0	0	669	2	0	0	0	0	0	0	2	0	0	0	0	0	0	14		JIM ADAMS	8067792481	3/24/2004	4/6/2004		
2003	20031021	"MORGANZA, VILLAGE OF"	12786	P.O. BOX 66  112 LA. 3050	MORGANZA	POINTE COUPEE	LA	70759						 LA	0	0	4	10	9	0	0	0	0	0	23	0	0	278	30	277	0	0	0	0	0	585	0	14	0	0	0	0	14	0	0	0	0	0	0	0	0	0	0	0	0	0	0	0	0	0	0	0	0	0	0	0	4	0	0	0	4	0	1	4	0	0	0	5	0	0	0	0	0	0	0	0	0	0	0	0	0	0	0	0	0	0	0	0	0	0	15	8	0	0	0	23	35	0	555	0	0	0	0	555	0	0	0	0	0	0	0	0	0	0	0	0	0	0	0	0	0	0	0	0	0	0	0	0	0	0	0	0	0	30	0	0	0	0	30	0	0	0	0	0	0	0	0	0	0	0	0	0	0	0	0	0	0	0	0	0	0	585	0	0	0	0	585	0	2	0	1	0	1	0	2	0	0	0	0	1	0	0.02		MARK RAMAGOS	2256943655	3/24/2004	4/6/2004		
2003	20031022	BLUFORD MUNICIPAL GAS SYSTEM	1568	P.O. BOX 140 1005 W. 4 ST	BLUFORD	JEFFERSON	IL	62814						 IL	0	0	0	21	11	0	0	0	0	0	32	0	0	0	389	127	0	0	0	0	0	516	0	14	7	0	0	0	21	0	0	0	0	0	0	0	0	0	0	0	0	0	0	0	0	0	0	0	0	0	0	0	0	0	0	0	0	0	8	3	0	0	0	11	0	0	0	0	0	0	0	0	0	0	0	0	0	0	0	0	0	0	0	0	0	0	22	10	0	0	0	32	0	0	380	9	0	0	0	389	0	0	0	0	0	0	0	0	0	0	0	0	0	0	0	0	0	0	0	0	0	0	0	0	0	0	0	0	0	126	1	0	0	0	127	0	0	0	0	0	0	0	0	0	0	0	0	0	0	0	0	0	0	0	0	0	0	506	10	0	0	0	516	0	0	0	0	0	0	0	0	0	0	0	0	0	0	0		BRIAN ANDERSON	6187328773	3/24/2004	4/6/2004		
2003	20031023	"LORDSBURG, CITY OF"	11744	206 SO. MAIN STREET	LORDSBURG	HIDALGO	NM	88045						 NM	0	0	0	6	18	0	0	0	0	0	24	0	0	0	595	741	0	0	0	0	0	1336	0	2	3	0	0	0	5	0	0	0	0	0	0	0	0	0	0	0	0	0	0	0	0	0	0	0	0	0	0	0	0	0	0	0	0	0	16	3	0	0	0	19	0	0	0	0	0	0	0	0	0	0	0	0	0	0	0	0	0	0	0	0	0	0	18	6	0	0	0	24	0	0	525	66	0	0	0	591	0	0	0	0	0	0	0	0	0	0	0	0	0	0	0	0	0	0	0	0	0	0	0	0	0	0	0	0	0	727	18	0	0	0	745	0	0	0	0	0	0	0	0	0	0	0	0	0	0	0	0	0	0	0	0	0	0	1252	84	0	0	0	1336	0	0	0	0	0	0	0	0	0	0	0	0	0	0	0	"ELIMINATED 12 -1"" GAS RISERS (STEEL)"	GUILLERMO RODRIQUEZ	5055423421	3/24/2004	4/6/2004		
2003	20031024	"SMYRNA NATURAL GAS SYSTEM, TOWN OF"	18368	315 SOUTH LOWRY ST	SMYRNA	RUTHERFORD	TN	37167						 TN	0	0	0	39	164	0	0	0	0	0	203	0	0	0	739	7070	0	0	0	0	0	7809	0	19	5	8	7	0	39	0	0	0	0	0	0	0	0	0	0	0	0	0	0	0	0	0	0	0	0	0	0	0	0	0	0	0	0	0	109	38	17	0	0	164	0	0	0	0	0	0	0	0	0	0	0	0	0	0	0	0	0	0	0	0	0	0	128	43	25	7	0	203	97	0	3	708	27	0	1	739	0	0	0	0	0	0	0	0	0	0	0	0	0	0	0	0	0	0	0	0	0	0	0	0	0	0	0	0	0	6957	102	11	0	0	7070	0	0	0	0	0	0	0	0	0	0	0	0	0	0	0	0	0	0	0	0	0	0	6960	810	38	0	1	7809	0	2	0	0	12	21	0	0	0	0	0	2	1	0	3.98		SHANE MORGAN	3555711	3/24/2004	4/6/2004		
2003	20031025	"BUTLER UTILITIES BOARD, TOWN OF"	1952	114 NORTH ACADEMY AVENUE	BUTLER 	CHOCTAW	AL	36904						 AL	0	0	0	8	13	1	0	0	0	0	22	0	0	0	67	473	0	0	0	0	0	540	0	0	8	0	0	0	8	0	0	0	0	0	0	0	0	0	0	0	0	0	0	0	1	0	0	0	0	1	0	0	0	0	0	0	0	0	13	0	0	0	0	13	0	0	0	0	0	0	0	0	0	0	0	0	0	0	0	0	0	0	0	0	0	0	14	8	0	0	0	22	60	0	67	0	0	0	0	67	0	0	0	0	0	0	0	0	0	0	0	0	0	0	0	0	0	0	0	0	0	0	0	0	0	0	0	0	0	473	0	0	0	0	473	0	0	0	0	0	0	0	0	0	0	0	0	0	0	0	0	0	0	0	0	0	0	540	0	0	0	0	540	0	0	0	0	0	0	0	0	3	1	0	0	0	0	4		JOHNNY LEE JOHNSON	2054593795	3/24/2004	4/6/2004		
2003	20031026	"GREENSBURG GAS & WATER, TOWN OF"	6770	"PO BOX 160, 14516 HWY 37"	GREENSBURG	ST HELENA	LA	70441						 LA	0	0	0	21	0	0	0	0	0	0	21	0	0	0	241	30	0	0	0	0	0	271	0	8	13	0	0	0	21	0	0	0	0	0	0	0	0	0	0	0	0	0	0	0	0	0	0	0	0	0	0	0	0	0	0	0	0	0	0	0	0	0	0	0	0	0	0	0	0	0	0	0	0	0	0	0	0	0	0	0	0	0	0	0	0	0	8	13	0	0	0	21	0	0	241	0	0	0	0	241	0	0	0	0	0	0	0	0	0	0	0	0	0	0	0	0	0	0	0	0	0	0	0	0	0	0	0	0	0	30	0	0	0	0	30	0	0	0	0	0	0	0	0	0	0	0	0	0	0	0	0	0	0	0	0	0	0	271	0	0	0	0	271	0	1	0	0	0	0	0	0	0	0	0	3	0	0	2		CHARLES DITON	2252224312	3/24/2004	4/6/2004		
2003	20031027	COMMUNITY UTILITIES CO.	888	104 EAST MAIN ST	RACINE	MOWER	MN	55967						 MN	0	0	0	19	13	0	0	0	0	0	32	0	0	0	544	200	0	0	0	0	0	744	0	1	18	0	0	0	19	0	0	0	0	0	0	0	0	0	0	0	0	0	0	0	0	0	0	0	0	0	0	0	0	0	0	0	0	0	5	8	0	0	0	13	0	0	0	0	0	0	0	0	0	0	0	0	0	0	0	0	0	0	0	0	0	0	6	26	0	0	0	32	0	0	539	5	0	0	0	544	0	0	0	0	0	0	0	0	0	0	0	0	0	0	0	0	0	0	0	0	0	0	0	0	0	0	0	0	0	190	10	0	0	0	200	0	0	0	0	0	0	0	0	0	0	0	0	0	0	0	0	0	0	0	0	0	0	729	15	0	0	0	744	0	0	0	0	0	0	0	0	0	0	0	1	0	0	0		EDDIE DOHERTY	5073782121	3/24/2004	4/6/2004		
2003	20031028	WELLMAN MUNICIPAL GAS SYSTEM	22357	"PO BOX 129, 316 8TH AVENU"	WELLMAN	WASHINGTON	IA	52356						 IA	0	0	0	10	3	0	0	0	0	0	13	0	0	0	613	29	0	0	0	0	0	642	0	9	1	0	0	0	10	0	0	0	0	0	0	0	0	0	0	0	0	0	0	0	0	0	0	0	0	0	0	0	0	0	0	0	0	0	3	0	0	0	0	3	0	0	0	0	0	0	0	0	0	0	0	0	0	0	0	0	0	0	0	0	0	0	12	1	0	0	0	13	60	0	605	8	0	0	0	613	0	0	0	0	0	0	0	0	0	0	0	0	0	0	0	0	0	0	0	0	0	0	0	0	0	0	0	0	0	27	2	0	0	0	29	0	0	0	0	0	0	0	0	0	0	0	0	0	0	0	0	0	0	0	0	0	0	632	10	0	0	0	642	0	0	0	0	0	0	1	0	0	0	0	0	0	0	0		DONNA B WADE	3196462154	3/24/2004	4/6/2004		
2003	20031029	FRANNIE - DEAVER UTILITIES	5580	111 4TH ST	FRANNIE	BIG HORN	WY	82423						 WY	2	0	15	36	0	0	0	0	0	0	53	0	0	0	104	141	0	0	0	0	0	245	0	1	16	0	0	0	17	0	0	0	0	0	0	0	0	0	0	0	0	0	0	0	0	0	0	0	0	0	0	0	0	0	0	0	0	0	36	0	0	0	0	36	0	0	0	0	0	0	0	0	0	0	0	0	0	0	0	0	0	0	0	0	0	0	37	16	0	0	0	53	75	0	96	8	0	0	0	104	0	0	0	0	0	0	0	0	0	0	0	0	0	0	0	0	0	0	0	0	0	0	0	0	0	0	0	0	0	141	0	0	0	0	141	0	0	0	0	0	0	0	0	0	0	0	0	0	0	0	0	0	0	0	0	0	0	237	8	0	0	0	245	0	0	0	0	0	0	0	0	0	0	0	0	0	0	9		BRYAN LEE	3076642221	3/24/2004	4/6/2004		
2003	20031030	SOUTH ALABAMA GAS DISTRICT	2688	602 BELLEVILLE STREET	EVERGREEN 	CONECUH	AL	36401						 AL	0	0	0	190	107	0	0	0	0	0	297	0	0	2026	336	3866	0	0	0	0	0	6228	0	4	59	127	0	0	190	0	0	0	0	0	0	0	0	0	0	0	0	0	0	0	0	0	0	0	0	0	0	0	0	0	0	0	0	0	86	21	0	0	0	107	0	0	0	0	0	0	0	0	0	0	0	0	0	0	0	0	0	0	0	0	0	0	90	80	127	0	0	297	163	0	2300	55	4	3	0	2362	0	0	0	0	0	0	0	0	0	0	0	0	0	0	0	0	0	0	0	0	0	0	0	0	0	0	0	0	0	3830	36	0	0	0	3866	0	0	0	0	0	0	0	0	0	0	0	0	0	0	0	0	0	0	0	0	0	0	6130	91	4	3	0	6228	0	0	0	0	2	7	0	0	0	1	0	7	0	0	0.0897		MARK BURGESS	2515782740	3/24/2004	4/6/2004		
2003	20031031	PORT ALLEN MUNICIPAL SYSTEM	15763	750 NORTH JEFFERSON	PORT ALLEN	WEST BATON ROUGE	LA	70767	PO BOX 468	PORT ALLEN	WEST BATON ROUGE	LA	70767	 LA	0	0	0	40	13	0	0	0	0	0	53	0	0	0	1105	491	0	0	0	0	0	1596	0	31	6	0	0	0	37	0	0	0	0	0	0	0	0	0	0	0	0	0	0	0	0	0	0	0	0	0	0	0	0	0	0	0	0	0	10	2	4	0	0	16	0	0	0	0	0	0	0	0	0	0	0	0	0	0	0	0	0	0	0	0	0	0	41	8	4	0	0	53	50	0	1008	87	10	0	0	1105	0	0	0	0	0	0	0	0	0	0	0	0	0	0	0	0	0	0	0	0	0	0	0	0	0	0	0	0	0	464	23	4	0	0	491	0	0	0	0	0	0	0	0	0	0	0	0	0	0	0	0	0	0	0	0	0	0	1472	110	14	0	0	1596	8	106	2	5	0	0	0	0	0	0	0	0	0	0	3.5		WG LANE	2253465678	3/23/2004	4/7/2004		
2003	20031032	"NORTHERN UTILITIES, INC. (NH)"	13800	325 WEST ROAD	PORTSMOUTH	ROCKINGHAM	NH	3801						 NH	61	0	0	81	296	12	0	0	0	0	450	776	11	0	427	17185	0	0	0	0	0	18399	0	41	43	57	1	0	142	0	0	0	0	0	0	0	0	0	0	0	0	0	0	0	0	6	6	0	0	12	0	0	0	0	0	0	0	0	151	78	67	0	0	296	0	0	0	0	0	0	0	0	0	0	0	0	0	0	0	0	0	0	0	0	0	0	192	127	130	1	0	450	70	0	613	593	0	7	1	1214	0	0	0	0	0	0	0	0	0	0	0	0	0	0	0	0	0	0	0	0	0	0	0	0	0	0	0	0	0	13225	3809	142	9	0	17185	0	0	0	0	0	0	0	0	0	0	0	0	0	0	0	0	0	0	0	0	0	0	13838	4402	142	16	1	18399	104	56	9	6	12	39	0	0	1	1	29	59	0	0	0	"5 MILES OF 8"" COATED STEEL PIPE WAS ADDED TO THIS REPORT AND REMOVED FROM OUR TRANSMISSION REPORT DUE TO A REVIEW OF SYMS REQUIREMENTS ON THIS SECTION OF PIPE."	SIMONE T. MAJOR	6034360310	3/24/2004	4/6/2004		
2003	20031033	WYOMING NATURAL GAS INC (WV)	14060	PO BOX 449	PINEVILLE 	WYOMING	WV	24874						 WV	12	0	1	0	33	0	0	0	0	0	46	1985	0	0	0	718	0	0	0	0	0	2703	0	8	6	0	0	0	14	0	0	0	0	0	0	0	0	0	0	0	0	0	0	0	0	0	0	0	0	0	0	0	0	0	0	0	0	0	26	6	0	0	0	32	0	0	0	0	0	0	0	0	0	0	0	0	0	0	0	0	0	0	0	0	0	0	34	12	0	0	0	46	0	0	18	1967	0	0	0	1985	0	0	0	0	0	0	0	0	0	0	0	0	0	0	0	0	0	0	0	0	0	0	0	0	0	0	0	0	0	91	627	0	0	0	718	0	0	0	0	0	0	0	0	0	0	0	0	0	0	0	0	0	0	0	0	0	0	109	2594	0	0	0	2703	53	42	10	5	0	0	0	0	0	0	0	0	6	0	16.07		BECKY FARLEY	3047326606	3/23/2004	4/6/2004		
2003	20031034	FULTONDALE GAS BOARD	5700	1210 WALKERS CHAPEL ROAD 	FULTONDALE	JEFFERSON	AL	35068	PO BOX 699	FULTONDALE	JEFFERSON	AL	35068	 AK	0	0	0	67	67	54	0	0	0	0	188	1335	0	0	1982	4639	0	0	0	0	0	7956	0	41	21	5	0	0	67	0	0	0	0	0	0	0	0	0	0	0	0	0	0	0	8	46	0	0	0	54	0	0	0	0	0	0	0	0	35	31	1	0	0	67	0	0	0	0	0	0	0	0	0	0	0	0	0	0	0	0	0	0	0	0	0	0	84	98	6	0	0	188	128	0	1982	0	0	0	0	1982	0	0	0	0	0	0	0	0	0	0	0	0	0	0	0	0	0	0	0	0	0	0	0	0	0	0	0	0	0	4630	9	0	0	0	4639	0	0	0	0	0	0	0	0	1335	0	0	0	0	1335	0	0	0	0	0	0	0	0	7947	9	0	0	0	7956	14	7	2	1	3	37	4	1	13	5	0	0	54	0	4.85		LESLIE D. SHIPP	2058416456	3/23/2004	4/6/2004		
2003	20031035	NORTHERN UTILITIES INC (ME)	13795	1075 FOREST AVE BOX 3586	PORTLAND	CUMBERLAND	ME	4104	325 WEST ROAD	PORTSMOUTH	ROCKINGHAM	NH	3801	 ME	7	0	0	92	198	130	0	0	0	0	427	1140	0	0	846	14268	0	0	5	0	0	16259	0	20	13	63	3	0	99	0	0	0	0	0	0	0	0	0	0	0	0	0	0	0	0	80	36	10	4	130	0	0	0	0	0	0	0	0	84	73	41	0	0	198	0	0	0	0	0	0	0	0	0	0	0	0	0	0	0	0	0	0	0	0	0	0	104	166	140	13	4	427	50	0	447	1468	26	45	0	1986	0	0	0	0	0	0	0	0	0	5	0	0	0	5	0	0	0	0	0	0	0	0	0	0	0	0	0	0	0	6605	7406	227	30	0	14268	0	0	0	0	0	0	0	0	0	0	0	0	0	0	0	0	0	0	0	0	0	0	7052	8879	253	75	0	16259	32	14	29	13	11	25	0	0	4	4	41	1	0	0	2.9		MARK ALLEN	2077978000	3/23/2004	4/6/2004		
2003	20031036	"WILLCOX MUNICIPAL SYSTEM, CITY OF"	22609	250 N. RAILROAD AVENUE	WILLCOX	COCHISE	AZ	85643	101 S. RAILROAD AVE STE B	WILLCOX	COCHISE	AZ	85643	 AZ	0	0	0	28	16	0	0	0	0	0	44	0	0	0	490	696	0	0	0	0	0	1186	0	23	5	0	0	0	28	0	0	0	0	0	0	0	0	0	0	0	0	0	0	0	0	0	0	0	0	0	0	0	0	0	0	0	0	0	10	6	0	0	0	16	0	0	0	0	0	0	0	0	0	0	0	0	0	0	0	0	0	0	0	0	0	0	33	11	0	0	0	44	17	0	478	12	0	0	0	490	0	0	0	0	0	0	0	0	0	0	0	0	0	0	0	0	0	0	0	0	0	0	0	0	0	0	0	0	0	677	19	0	0	0	696	0	0	0	0	0	0	0	0	0	0	0	0	0	0	0	0	0	0	0	0	0	0	1155	31	0	0	0	1186	5	3	0	0	0	0	0	0	0	0	0	13	54	0	3.1	THE CITY OF WILCOX CONDUCTED A SERVICE COUNT SURVEY.  THE RESULTS OF THE NUMBER OF SERVICES ARE DIFFERENT FROM PREVIOUS REPORTS SUBMITTED.  THE NUMBERS IN THIS REPORT REPRENSENTS THE ACTUAL SERVICE COUNT IN SIZE AND TYPE OF MATERIAL.	GUADALUPE PEREZ	5203846447	3/23/2004	4/6/2004		
2003	20031037	COPPER MARKET INC	2778	PO BOX 245	BAGDAD	YAVAPAI	AZ	86321						 AZ	0	0	0	0	16	0	0	0	0	0	16	0	0	4	10	780	0	0	0	0	0	794	0	0	0	0	0	0	0	0	0	0	0	0	0	0	0	0	0	0	0	0	0	0	0	0	0	0	0	0	0	0	0	0	0	0	0	0	12	3	1	0	0	16	0	0	0	0	0	0	0	0	0	0	0	0	0	0	0	0	0	0	0	0	0	0	12	3	1	0	0	16	0	0	10	4	0	0	0	14	0	0	0	0	0	0	0	0	0	0	0	0	0	0	0	0	0	0	0	0	0	0	0	0	0	0	0	0	0	778	2	0	0	0	780	0	0	0	0	0	0	0	0	0	0	0	0	0	0	0	0	0	0	0	0	0	0	788	6	0	0	0	794	0	0	2	0	0	0	0	0	0	0	0	14	1	0	3.08		JACK MCBRIDE	9286333262	3/23/2004	8/25/2004		
2003	20031038	SPERRY UTILITY SERVICES AUTH	18578	PO BOX 609 115 N. CINN.	SPERRY 	TULSA	OK	74073						 OK	0	0	0	0	0	0	0	0	0	15	15	0	0	0	0	0	0	0	0	0	600	600	0	0	0	0	0	0	0	0	0	0	0	0	0	0	0	0	0	0	0	0	0	0	0	0	0	0	0	0	0	0	0	0	0	0	0	0	0	0	0	0	0	0	0	0	0	0	0	0	0	0	7	8	0	0	0	15	0	0	0	0	0	0	0	0	7	8	0	0	0	15	0	0	0	0	0	0	0	0	0	0	0	0	0	0	0	0	0	0	0	0	0	0	0	0	0	0	0	0	0	0	0	0	0	0	0	0	0	0	0	0	0	0	0	0	0	0	0	0	0	0	0	600	0	0	0	0	600	0	0	0	0	0	0	0	0	600	0	0	0	0	600	3	0	0	0	0	1	0	0	4	0	0	0	8	0	17		KANDA TUCKER	9182887144	3/23/2004	4/6/2004		
2003	20031039	"HARRISONBURG, VILLAGE OF"	7100	108 SICILY STREET	HARRISONBURG	CATAHOULA	LA	71340						LA	0	0	0	70	12	0	0	0	0	0	82	0	0	0	675	88	0	0	0	0	0	763	0	58	12	0	0	0	70	0	0	0	0	0	0	0	0	0	0	0	0	0	0	0	0	0	0	0	0	0	0	0	0	0	0	0	0	0	11	1	0	0	0	12	0	0	0	0	0	0	0	0	0	0	0	0	0	0	0	0	0	0	0	0	0	0	69	13	0	0	0	82	30	0	675	0	0	0	0	675	0	0	0	0	0	0	0	0	0	0	0	0	0	0	0	0	0	0	0	0	0	0	0	0	0	0	0	0	0	88	0	0	0	0	88	0	0	0	0	0	0	0	0	0	0	0	0	0	0	0	0	0	0	0	0	0	0	763	0	0	0	0	763	0	4	0	3	0	5	1	0	0	2	0	0	2	0	6.5		"ROB FREEMAN, ASST. SUPERINTENDENT"	3187445048	3/23/2004	6/24/2004		
2003	20031040	LORIMOR MUNICIPAL GAS SYSTEM	11760	406 MAIN STREET	LORIMOR	UNION	IA	50149						 IA	0	0	0	8	0	0	0	0	0	0	8	0	0	0	156	57	0	0	0	0	0	213	0	7	1	0	0	0	8	0	0	0	0	0	0	0	0	0	0	0	0	0	0	0	0	0	0	0	0	0	0	0	0	0	0	0	0	0	0	0	0	0	0	0	0	0	0	0	0	0	0	0	0	0	0	0	0	0	0	0	0	0	0	0	0	0	7	1	0	0	0	8	75	0	156	0	0	0	0	156	0	0	0	0	0	0	0	0	0	0	0	0	0	0	0	0	0	0	0	0	0	0	0	0	0	0	0	0	0	57	0	0	0	0	57	0	0	0	0	0	0	0	0	0	0	0	0	0	0	0	0	0	0	0	0	0	0	213	0	0	0	0	213	0	0	0	0	0	1	0	0	0	0	0	0	0	0	0		MARY SEALES	6417632297	3/23/2004	4/6/2004		
2003	20031041	"BLUEGRASS GAS SALES, INC."	30894	3400 ROCKLAND MILLS ROAD	CENTER	METCALFE	KY	42129						 KY	0	0	0	0	49	0	0	0	0	0	49	0	0	0	0	548	0	0	0	0	0	548	0	0	0	0	0	0	0	0	0	0	0	0	0	0	0	0	0	0	0	0	0	0	0	0	0	0	0	0	0	0	0	0	0	0	0	0	18	24	7	0	0	49	0	0	0	0	0	0	0	0	0	0	0	0	0	0	0	0	0	0	0	0	0	0	18	24	7	0	0	49	150	0	0	0	0	0	0	0	0	0	0	0	0	0	0	0	0	0	0	0	0	0	0	0	0	0	0	0	0	0	0	0	0	0	0	0	0	543	5	0	0	0	548	0	0	0	0	0	0	0	0	0	0	0	0	0	0	0	0	0	0	0	0	0	0	543	5	0	0	0	548	0	0	0	0	0	3	0	0	0	0	0	0	0	0	0		JULIE PARSONS	2705655757	3/23/2004	4/6/2004		
2003	20031042	ALPINE NATURAL GAS	31515	15 ST ANDREWS ROAD #7	VALLEY SPRINGS		CA	95252	PO BOX 550	VALLEY SPRINGS		CA	95252	 CA	0	0	0	0	31	0	0	0	0	0	31	0	0	0	0	750	0	0	0	0	0	750	0	0	0	0	0	0	0	0	0	0	0	0	0	0	0	0	0	0	0	0	0	0	0	0	0	0	0	0	0	0	0	0	0	0	0	0	23	3	5	0	0	31	0	0	0	0	0	0	0	0	0	0	0	0	0	0	0	0	0	0	0	0	0	0	23	3	5	0	0	31	85	0	0	0	0	0	0	0	0	0	0	0	0	0	0	0	0	0	0	0	0	0	0	0	0	0	0	0	0	0	0	0	0	0	0	0	0	750	0	0	0	0	750	0	0	0	0	0	0	0	0	0	0	0	0	0	0	0	0	0	0	0	0	0	0	750	0	0	0	0	750	0	0	0	0	0	3	0	0	0	0	0	0	0	0	1		MICHAEL LAMOND	2097723006	3/23/2004	4/6/2004		
2003	20031043	KAW CITY MUNICIPAL GAS DEPT	10100	900 MORGAN SQUARE	KAW CITY	KAY	OK	74641						 OK	0	0	5	7	0	0	0	0	0	0	12	0	0	179	12	0	0	0	0	0	0	191	0	4	2	0	0	0	6	0	0	0	0	0	0	0	0	0	0	0	0	0	0	0	0	0	0	0	0	0	0	0	0	0	0	0	0	0	0	6	0	0	0	6	0	0	0	0	0	0	0	0	0	0	0	0	0	0	0	0	0	0	0	0	0	0	4	8	0	0	0	12	64	0	149	30	0	0	0	179	0	0	0	0	0	0	0	0	0	0	0	0	0	0	0	0	0	0	0	0	0	0	0	0	0	0	0	0	0	118	0	0	0	0	118	0	0	0	0	0	0	0	0	0	0	0	0	0	0	0	0	0	0	0	0	0	0	267	30	0	0	0	297	0	0	0	0	0	0	0	0	0	0	0	0	0	0	3		ALVIN ROLLINS	9999999999	3/23/2004	4/6/2004		
2003	20031044	GRAND COUTEAU MUNICIPAL SYSTEM	6500	PO DRAWER G	GRAND COTEAU	LANDRY	LA	70541						 LA	0	0	0	14	6	0	0	0	0	0	20	0	0	0	354	78	0	0	0	0	0	432	0	10	4	0	0	0	14	0	0	0	0	0	0	0	0	0	0	0	0	0	0	0	0	0	0	0	0	0	0	0	0	0	0	0	0	0	6	0	0	0	0	6	0	0	0	0	0	0	0	0	0	0	0	0	0	0	0	0	0	0	0	0	0	0	16	4	0	0	0	20	0	0	352	2	0	0	0	354	0	0	0	0	0	0	0	0	0	0	0	0	0	0	0	0	0	0	0	0	0	0	0	0	0	0	0	0	0	78	0	0	0	0	78	0	0	0	0	0	0	0	0	0	0	0	0	0	0	0	0	0	0	0	0	0	0	430	2	0	0	0	432	0	0	0	0	0	0	0	0	0	0	2	22	4	0	1		"MARK B. DUBROC, P.E."	3379894545	3/23/2004	4/6/2004		
2003	20031045	"JASPER, CITY OF"	9130	208 HATLEY STREET  W.	JASPER		FL	32052						 FL	0	0	0	19	2	0	0	0	0	0	21	0	0	0	655	135	0	0	0	0	0	790	0	11	7	1	0	0	19	0	0	0	0	0	0	0	0	0	0	0	0	0	0	0	0	0	0	0	0	0	0	0	0	0	0	0	0	0	2	0	0	0	0	2	0	0	0	0	0	0	0	0	0	0	0	0	0	0	0	0	0	0	0	0	0	0	13	7	1	0	0	21	60	0	646	8	1	0	0	655	0	0	0	0	0	0	0	0	0	0	0	0	0	0	0	0	0	0	0	0	0	0	0	0	0	0	0	0	0	124	11	0	0	0	135	0	0	0	0	0	0	0	0	0	0	0	0	0	0	0	0	0	0	0	0	0	0	770	19	1	0	0	790	0	0	0	0	0	0	0	0	0	0	1	7	0	0	0		WILLIAM HARVEY	3867921212	3/23/2004	4/6/2004		
2003	20031046	"CLIFTON GAS DEPT, CITY OF"	972	142 MAIN ST. PO BOX 192	CLIFTON	WAYNE	TN	38425						 TN	0	0	0	0	14	0	0	0	0	0	14	0	0	0	0	309	0	0	0	0	0	309	0	0	0	0	0	0	0	0	0	0	0	0	0	0	0	0	0	0	0	0	0	0	0	0	0	0	0	0	0	0	0	0	0	0	0	0	0	14	0	0	0	14	0	0	0	0	0	0	0	0	0	0	0	0	0	0	0	0	0	0	0	0	0	0	0	14	0	0	0	14	100	0	0	0	0	0	0	0	0	0	0	0	0	0	0	0	0	0	0	0	0	0	0	0	0	0	0	0	0	0	0	0	0	0	0	0	0	302	6	1	0	0	309	0	0	0	0	0	0	0	0	0	0	0	0	0	0	0	0	0	0	0	0	0	0	302	6	1	0	0	309	0	0	0	0	0	0	0	0	1	24	0	1	16	0	0		JERROLDS RUSSELL	9316763370	3/23/2004	4/6/2004		
2003	20031047	"LIVINGSTON PARISH - A, GAS UTIL DIST # 1 OF"	6233	PO BOX 1313	DENHAM SPRINGS		LA	70726						 LA	0	0	0	69	5	0	0	0	22	0	96	0	0	0	773	21	0	0	0	189	0	983	0	62	7	0	0	0	69	0	0	0	0	0	0	0	0	0	0	0	0	0	0	0	0	0	0	0	0	0	0	4	1	0	0	0	5	0	22	0	0	0	0	22	0	0	0	0	0	0	0	0	0	0	0	0	0	0	0	0	0	0	0	0	0	0	88	8	0	0	0	96	15	0	773	0	0	0	0	773	0	0	0	0	0	0	0	0	0	0	0	0	0	0	0	0	0	0	0	0	0	0	21	0	0	0	0	21	0	189	0	0	0	0	189	0	0	0	0	0	0	0	0	0	0	0	0	0	0	0	0	0	0	0	0	0	0	983	0	0	0	0	983	3	7	0	0	5	5	0	0	0	0	0	0	0	0	8		ROGER HULL	2256678273	3/23/2004	4/6/2004		
2003	20031048	"WALNUT MUNICIPLE GAS SYSTEM, TOWN OF"	22105	BOX 540 621 MAIN STREET 	WALNUT		MS	38683						 MS TN	0	0	0	31	51	0	0	0	0	0	82	0	0	0	247	1086	0	0	0	0	0	1333	0	25	6	0	0	0	31	0	0	0	0	0	0	0	0	0	0	0	0	0	0	0	0	0	0	0	0	0	0	0	0	0	0	0	0	0	65	30	0	0	0	95	0	0	0	0	0	0	0	0	0	0	0	0	0	0	0	0	0	0	0	0	0	0	90	36	0	0	0	126	150	0	247	0	0	0	0	247	0	0	0	0	0	0	0	0	0	0	0	0	0	0	0	0	0	0	0	0	0	0	0	0	0	0	0	0	0	1079	7	0	0	0	1086	0	0	0	0	0	0	0	0	0	0	0	0	0	0	0	0	0	0	0	0	0	0	1326	7	0	0	0	1333	0	0	0	0	0	9	0	0	0	0	0	0	0	0	3.97		BRIAN WILBANKS	6622234405	3/24/2004	4/6/2004		
2003	20031049	"SHARON GAS DEPT, CITY OF"	18228	117 NORTH BROADWAY	SHARON	BARBER	KS	67138						 KS	0	0	0	0	5	0	0	0	0	0	5	0	0	0	0	133	0	0	0	0	0	133	0	0	0	0	0	0	0	0	0	0	0	0	0	0	0	0	0	0	0	0	0	0	0	0	0	0	0	0	0	0	0	0	0	0	0	0	5	0	0	0	0	5	0	0	0	0	0	0	0	0	0	0	0	0	0	0	0	0	0	0	0	0	0	0	5	0	0	0	0	5	0	0	0	0	0	0	0	0	0	0	0	0	0	0	0	0	0	0	0	0	0	0	0	0	0	0	0	0	0	0	0	0	0	0	0	0	0	0	133	0	0	0	133	0	0	0	0	0	0	0	0	0	0	0	0	0	0	0	0	0	0	0	0	0	0	0	133	0	0	0	133	0	0	0	0	0	0	0	0	0	0	0	0	0	0	0		LISA FISCHER-CITY CLERK	6202945432	3/24/2004	4/6/2004		
2003	20031050	"LORETTO GAS SYSTEM, CITY OF"	11752	BOX 176 415 N MILITARY ST	LORETTO	LAWRENCE	TN	38469						 TN	0	0	0	11	13	0	0	0	0	0	24	0	0	0	320	395	0	0	0	0	0	715	0	8	3	0	0	0	11	0	0	0	0	0	0	0	0	0	0	0	0	0	0	0	0	0	0	0	0	0	0	0	0	0	0	0	0	0	8	5	0	0	0	13	0	0	0	0	0	0	0	0	0	0	0	0	0	0	0	0	0	0	0	0	0	0	16	8	0	0	0	24	0	0	311	9	0	0	0	320	0	0	0	0	0	0	0	0	0	0	0	0	0	0	0	0	0	0	0	0	0	0	0	0	0	0	0	0	0	389	6	0	0	0	395	0	0	0	0	0	0	0	0	0	0	0	0	0	0	0	0	0	0	0	0	0	0	700	15	0	0	0	715	0	0	0	0	0	0	0	0	0	0	0	0	0	0	0		STEVE ELLIS	9318536797	3/23/2004	4/6/2004		
2003	20031051	CHARTIERS NATURAL GAS CO INC	2272	203 HENRY WAY	JEANNETTE	WESTMORELAND	PA	15644						 PA	53	0	0	0	15	0	0	0	0	0	68	116	16	0	0	132	0	0	0	0	0	264	0	10	22	16	5	0	53	0	0	0	0	0	0	0	0	0	0	0	0	0	0	0	0	0	0	0	0	0	0	0	0	0	0	0	0	0	15	0	0	0	0	15	0	0	0	0	0	0	0	0	0	0	0	0	0	0	0	0	0	0	0	0	0	0	25	22	16	5	0	68	50	0	0	132	0	0	0	132	0	0	0	0	0	0	0	0	0	0	0	0	0	0	0	0	0	0	0	0	0	0	0	0	0	0	0	0	0	0	132	0	0	0	132	0	0	0	0	0	0	0	0	0	0	0	0	0	0	0	0	0	0	0	0	0	0	0	264	0	0	0	264	64	6	0	0	3	0	0	0	0	0	3	0	0	0	0		SANDRA L. BITNER	7248323425	3/23/2004	4/6/2004		
2003	20031052	"FLOMATON GAS SYSTEM, TOWN OF"	5260	BOX 632 2125 RINGOLD ST	FLOMATON	ESCAMBIA	AL	36441						 AL	0	0	0	16	6	0	0	0	0	0	22	0	0	5	496	41	0	0	0	0	0	542	0	15	1	0	0	0	16	0	0	0	0	0	0	0	0	0	0	0	0	0	0	0	0	0	0	0	0	0	0	0	0	0	0	0	0	0	4	2	0	0	0	6	0	0	0	0	0	0	0	0	0	0	0	0	0	0	0	0	0	0	0	0	0	0	19	3	0	0	0	22	60	0	501	0	0	0	0	501	0	0	0	0	0	0	0	0	0	0	0	0	0	0	0	0	0	0	0	0	0	0	0	0	0	0	0	0	0	40	1	0	0	0	41	0	0	0	0	0	0	0	0	0	0	0	0	0	0	0	0	0	0	0	0	0	0	541	1	0	0	0	542	0	0	0	0	0	0	0	0	0	1	0	0	0	0	9.6		DAVID ADAMS	2512962431	3/23/2004	4/6/2004		
2003	20031055	"CAMILLA GAS SYSTEM, CITY OF"	2036	PO BOX 328	CAMILLA	MITCHELL	GA	31730						 GA	0	0	0	38	18	0	0	0	0	0	56	0	0	0	377	1106	0	0	0	0	0	1483	0	16	9	8	0	0	33	0	0	0	0	0	0	0	0	0	0	0	0	0	0	0	0	0	0	0	0	0	0	0	0	0	0	0	0	0	4	15	4	0	0	23	0	0	0	0	0	0	0	0	0	0	0	0	0	0	0	0	0	0	0	0	0	0	20	24	12	0	0	56	75	0	355	21	1	0	0	377	0	0	0	0	0	0	0	0	0	0	0	0	0	0	0	0	0	0	0	0	0	0	0	0	0	0	0	0	0	1102	4	0	0	0	1106	0	0	0	0	0	0	0	0	0	0	0	0	0	0	0	0	0	0	0	0	0	0	1457	25	1	0	0	1483	5	0	0	0	0	0	4	179	0	0	0	0	4	0	0	"UNACCOUNTED FOR GAS -2.3%    THIS REPORT PREPARED BY:    ERIC GROOM  MUNICIPAL GAS AUTHORITY OF GEORGIA  104 TOWNPARK DRIVE  KENNESAW, GA 30144  (770) 590-1000    THIS REPORT COMPILED FROM INFORMATION SUPPLIED BY:  NATHAN HAYWOOD, CITY OF CAMILLA      "	"ERIC GROOM, SENIOR BUSINESS ANALYST"	2293770821	4/6/2004	4/8/2004		
2003	20031056	NEW ENGLAND GAS COMPANY	15896	477 DEXTER STREET	PROVIDENCE		RI	2864						 RI	477	189	0	611	833	928	17	0	1	0	3056	58993	8466	0	16342	96474	240	0	222	1911	0	182648	1	514	268	342	111	41	1277	0	0	8	8	1	0	17	0	0	0	0	0	0	0	1	3	410	396	79	39	928	0	0	0	0	0	0	0	1	442	190	198	2	0	833	0	0	0	0	0	0	0	1	0	0	0	0	0	1	0	0	0	0	0	0	0	4	959	876	944	193	80	3056	67	781	27756	52904	1949	391	20	83801	0	0	0	0	0	0	0	0	221	1	0	0	0	222	6	3	30	117	74	10	240	0	0	0	0	0	0	0	691	54138	39381	1895	369	0	96474	0	0	0	0	0	0	0	1469	112	301	26	3	0	1911	0	0	0	0	0	0	0	2947	82230	92617	3987	837	30	182648	468	674	123	0	34	89	0	0	0	0	657	26	1270	0	3	"THIS ANNUAL REPORT IS A COMPILATION OF THE REPORTS PREVIOUSLY SUBMITTED BY NEW ENGLAND GAS COMPANY UNDER THE FOLLOWING NAME OF COMPANY ESTABLISHMENT IN PART A, ITEM:  PROVIDENCE GAS COMPANY, 477 DEXTER STREET, PROVIDENCE, RI 02907, OPERATOR ID# 15896; VALLEY GAS COMPANY, 1595 MENDON ROAD, CUMBERLAND, RI 02864. OPERATOR ID# 21060; AND BRISTOL & WARREN GAS COMPANY, 100 BROAD COMMON ROAD, BRISTOL RI 02809; OPERATOR ID #01760.   OPERATOR ID# 15896 WILL BE USED FOR NEW ENGLAND GAS COMPANY'S RHODE ISLAND OPERATIONS."	THOMAS P GAVULA	4012725040	3/23/2004	8/30/2004		
2003	20031057	NEW ENGLAND GAS COMPANY	5060	45 ANAWAN STREET	FALL RIVER		MA	2721	100 WEYBOSSET STREET	PROVIDENCE		RI	2903	 MA	60	99	0	149	139	143	0	0	0	0	590	3224	8438	0	4749	17385	0	0	0	10	0	33806	0	113	141	42	10	2	308	0	0	0	0	0	0	0	0	0	0	0	0	0	0	0	1	88	39	10	5	143	0	0	0	0	0	0	0	0	57	56	24	2	0	139	0	0	0	0	0	0	0	0	0	0	0	0	0	0	0	0	0	0	0	0	0	0	171	285	105	22	7	590	115	10	6439	9687	239	36	0	16411	0	0	0	0	0	0	0	0	0	0	0	0	0	0	0	0	0	0	0	0	0	0	0	0	0	0	0	0	38	10306	6779	244	18	0	17385	0	0	0	0	0	0	0	6	1	3	0	0	0	10	0	0	0	0	0	0	0	54	16746	16469	483	54	0	33806	126	102	21	0	0	20	0	0	0	0	146	14	20	0	3.9	"THIS ANNUAL REPORT IS A COMPILATION OF THE REPORTS PREVIOUSLY SUBMITTED BY NEW ENGLAND GAS COMPANY UNDER THE FOLLOWING NAME OF COMPANY ESTABLISHMENT IN PART A, ITEM 1: FALL RIVER GAS COMPANY, 45 ANAWAN STREET, FALL RIVER, MA 02721, OPERATOR ID #05060, AND NORTH ATTLEBORO GAS COMPANY, 439 MOUNT HOPE STREET, NORTH ATTLEBORO, MA 02760, OPERATOR ID #13540.  OPERATOR ID# 05060 WILL BE USED FOR NEW ENGLAND GAS COMPANY'S MASSACHUSETTS OPERATIONS.  DUE TO CONVERSION OF MAIN & SERVICE INFORMATION INTO A MORE ACCURATE GIS DATABASE, ADJUSTMENTS TO VARIOUS QUANTITIES HAVE BEEN MADE COMPARED TO PREVIOUS YEARS FOR THE FORMER NORTH ATTLEBORO GAS COMPANY."	VANESSA M TEMPLE	4012725040	3/23/2004	8/30/2004		
2003	20031058	"STINNETT GAS DEPT, CITY OF"	18648	609 MACKENZIE BOX 909	STINNETT	HUTCHINSON	TX	79083						 TX	8	0	10	0	10	0	0	0	0	0	28	624	0	0	0	569	0	0	0	0	0	1193	0	7	9	1	0	0	17	0	0	0	0	0	0	0	0	0	0	0	0	0	0	0	0	0	0	0	0	0	0	1	0	0	0	0	1	0	7	3	0	0	0	10	0	0	0	0	0	0	0	0	0	0	0	0	0	0	0	0	0	0	0	0	0	0	15	12	1	0	0	28	10	0	611	13	0	0	0	624	0	0	0	0	0	0	0	0	0	0	0	0	0	0	0	0	0	0	0	0	0	0	0	0	0	0	0	0	0	559	8	2	0	0	569	0	0	0	0	0	0	0	0	0	0	0	0	0	0	0	0	0	0	0	0	0	0	1170	21	2	0	0	1193	12	9	0	0	0	5	0	0	0	0	0	0	16	0	1		JAMES STROUD	8068782422	3/23/2004	4/19/2004		
2003	20031059	"BURKESVILLE GAS CO, INC."	976	119 UPPER RIVER ST BOX 69	BURKESVILLE	CUMBERLAND	KY	42717						 KY	0	0	0	0	16	0	0	0	0	0	16	0	0	0	0	352	0	0	0	0	0	352	0	0	0	0	0	0	0	0	0	0	0	0	0	0	0	0	0	0	0	0	0	0	0	0	0	0	0	0	0	0	0	0	0	0	0	0	8	5	3	0	0	16	0	0	0	0	0	0	0	0	0	0	0	0	0	0	0	0	0	0	0	0	0	0	8	5	3	0	0	16	0	0	0	0	0	0	0	0	0	0	0	0	0	0	0	0	0	0	0	0	0	0	0	0	0	0	0	0	0	0	0	0	0	0	0	0	0	353	36	0	0	0	389	0	0	0	0	0	0	0	0	0	0	0	0	0	0	0	0	0	0	0	0	0	0	353	36	0	0	0	389	0	0	0	0	0	0	0	0	0	0	0	0	0	0	0		BRENDA EVERETTE	903454400	3/23/2004	4/8/2004		
2003	20031060	"DENHAM SPRINGS GAS DEPT, CITY OF"	3295	401 N. RAILROAD AVENUE	DENHAM SPRINGS	LIVINGSTON	LA	70726						 LA	0	0	0	88	62	2	0	0	0	0	152	0	0	0	1874	3065	0	0	0	0	0	4939	0	47	21	20	0	0	88	0	0	0	0	0	0	0	0	0	0	0	0	0	0	0	2	0	0	0	0	2	0	0	0	0	0	0	0	0	55	6	1	0	0	62	0	0	0	0	0	0	0	0	0	0	0	0	0	0	0	0	0	0	0	0	0	0	104	27	21	0	0	152	35	0	1786	88	0	0	0	1874	0	0	0	0	0	0	0	0	0	0	0	0	0	0	0	0	0	0	0	0	0	0	0	0	0	0	0	0	0	3031	34	0	0	0	3065	0	0	0	0	0	0	0	0	0	0	0	0	0	0	0	0	0	0	0	0	0	0	4817	122	0	0	0	4939	4	5	1	0	1	1	0	0	0	1	2	5	3	0	2		ROGER HULL	2256678350	3/23/2004	4/8/2004		
2003	20031061	MIDLAND 66 OIL CO.	31828	1612 GARDEN CITY HWY	MIDLAND 	MIDLAND	TX	79701						 TX	0	0	0	0	1	0	0	0	0	0	1	0	0	0	33	0	0	0	0	0	0	33	0	0	0	0	0	0	0	0	0	0	0	0	0	0	0	0	0	0	0	0	0	0	0	0	0	0	0	0	0	0	0	0	0	0	0	0	1	0	0	0	0	1	0	0	0	0	0	0	0	0	0	0	0	0	0	0	0	0	0	0	0	0	0	0	1	0	0	0	0	1	50	0	0	0	0	0	0	0	0	0	0	0	0	0	0	0	0	0	0	0	0	0	0	0	0	0	0	0	0	0	0	0	0	0	0	0	0	0	33	0	0	0	33	0	0	0	0	0	0	0	0	0	0	0	0	0	0	0	0	0	0	0	0	0	0	0	33	0	0	0	33	0	0	0	0	0	0	0	0	0	0	0	0	0	0	0		DOUGLAS HOOPER	4326829404	3/23/2004	4/8/2004		
2003	20031062	"BAY ST LOUIS MUNICIPLE GAS, CITY OF"	1200	300 SOUTH SECOND STREET	BAY ST. LOUIS	HANCOCK	MS	39520	PO BOX 2550	BAY ST. LOUIS	HANCOCK	MS	39521	 MS	1	0	4	20	28	0	0	0	0	0	53	10	0	87	190	1015	0	0	0	0	0	1302	0	13	12	0	0	0	25	0	0	0	0	0	0	0	0	0	0	0	0	0	0	0	0	0	0	0	0	0	0	0	0	0	0	0	0	0	17	11	0	0	0	28	0	0	0	0	0	0	0	0	0	0	0	0	0	0	0	0	0	0	0	0	0	0	30	23	0	0	0	53	40	0	257	29	1	0	0	287	0	0	0	0	0	0	0	0	0	0	0	0	0	0	0	0	0	0	0	0	0	0	0	0	0	0	0	0	0	1014	0	1	0	0	1015	0	0	0	0	0	0	0	0	0	0	0	0	0	0	0	0	0	0	0	0	0	0	1271	29	2	0	0	1302	5	32	0	0	21	12	0	0	0	0	0	0	2	0	5.354		LAWREN COWAND	2284672724	3/23/2004	4/8/2004		
2003	20031063	"OBION GAS SYSTEM, TOWN OF"	14040	137 E. PALESTINE	OBION	OBION	TN	38240						 TN	0	5	0	6	0	0	0	0	0	0	11	0	128	0	314	0	0	0	0	0	0	442	0	4	0	0	0	0	4	0	0	0	0	0	0	0	0	0	0	0	0	0	0	0	0	0	0	0	0	0	0	7	0	0	0	0	7	0	0	0	0	0	0	0	0	0	0	0	0	0	0	0	0	0	0	0	0	0	0	0	0	0	0	0	0	0	11	0	0	0	0	11	75	0	128	0	0	0	0	128	0	0	0	0	0	0	0	0	0	0	0	0	0	0	0	0	0	0	0	0	0	0	314	0	0	0	0	314	0	0	0	0	0	0	0	0	0	0	0	0	0	0	0	0	0	0	0	0	0	0	0	0	0	0	0	0	0	442	0	0	0	0	442	1	6	0	0	0	0	0	0	0	0	0	0	0	0	12	OUR UNACCOUNTED FOR GAS IS THE DIFFERENCE WEN WE PAY OUR VENDOR AND BILL OUR CUSTOMERS.	MIKE PICKARD	7315366242	3/23/2004	4/8/2004		
2003	20031064	"ADAMSVILLE GAS DEPT, TOWN OF"	49	231 EAST MAIN STREET	ADAMSVILLE	MCNAIRY	TN	38310						 TN	0	0	0	126	0	0	0	0	0	0	126	0	0	0	0	0	0	0	0	0	0	0	0	68	15	7	0	0	90	0	0	0	0	0	0	0	0	0	0	0	0	0	0	0	0	0	0	0	0	0	0	0	0	0	0	0	0	0	36	0	0	0	0	36	0	0	0	0	0	0	0	0	0	0	0	0	0	0	0	0	0	0	0	0	0	0	104	15	7	0	0	126	0	0	720	8	34	0	0	762	0	0	0	0	0	0	0	0	0	0	0	0	0	0	0	0	0	0	0	0	0	0	959	0	0	0	0	959	0	0	0	0	0	0	0	0	0	0	0	0	0	0	0	0	0	0	0	0	0	0	0	0	0	0	0	0	0	1679	8	34	0	0	1721	0	0	0	0	1	2	0	0	0	0	0	0	0	0	4.53		BOB GRAHAM	7316324214	3/23/2004	4/8/2004		
2003	20031065	YANKEE GAS SERVICES CO	24015	47 EAGLE STREET	WATERBURY	NEW HAVEN	CT	6708	107 SELDEN STREET	BERLIN	HARTFORD	CT		 CT	134	6	0	1599	814	479	0	0	0	0	3032	18312	2064	0	38775	74511	2687	0	300	0	0	136649	0	218	466	810	190	55	1739	0	0	0	0	0	0	0	0	0	272	179	24	4	479	0	0	0	0	0	0	0	0	0	0	0	0	0	0	0	262	276	276	0	0	814	0	0	0	0	0	0	0	0	0	0	0	0	0	0	0	0	0	0	0	0	0	0	480	1014	1265	214	59	3032	72	0	25298	33211	529	112	1	59151	0	0	0	0	0	0	0	0	300	0	0	0	0	300	0	0	2686	1	0	0	2687	0	0	0	0	0	0	0	0	60770	13018	706	17	0	74511	0	0	0	0	0	0	0	0	0	0	0	0	0	0	0	0	0	0	0	0	0	0	86368	48915	1236	129	1	136649	85	310	263	73	17	134	6	17	0	21	4	7	485	0	1		GARRY DAIGLE	2035963149	3/23/2004	4/8/2004		
2003	20031066	ALL AMERICAN ENERGY	31959	25 COMANCHE TRAIL	MALVERN	CARROLL	OH	44644						 OH	0	0	0	0	22	0	0	0	0	0	22	0	0	0	0	171	0	0	0	0	0	171	0	0	0	0	0	0	0	0	0	0	0	0	0	0	0	0	0	0	0	0	0	0	0	0	0	0	0	0	0	0	0	0	0	0	0	0	9	12	1	0	0	22	0	0	0	0	0	0	0	0	0	0	0	0	0	0	0	0	0	0	0	0	0	0	9	12	1	0	0	22	30	0	0	0	0	0	0	0	0	0	0	0	0	0	0	0	0	0	0	0	0	0	0	0	0	0	0	0	0	0	0	0	0	0	0	0	0	167	4	0	0	0	171	0	0	0	0	0	0	0	0	0	0	0	0	0	0	0	0	0	0	0	0	0	0	167	4	0	0	0	171	0	0	0	0	0	0	0	0	0	0	0	0	0	0	0		JASON JULIAN	6148797316	4/1/2004	4/16/2004		
2003	20031067	CONSOLIDATED EDISON CO OF NEW YORK	2704	4 IRVING PLACE	NEW YORK		NY	10003						 NY	1328	55	0	332	1065	1429	0	0	3	0	4212	133622	6495	0	20054	187741	0	0	25739	0	971	374622	0	322	455	660	163	115	1715	0	0	0	0	0	0	0	0	0	0	0	0	0	0	0	0	248	872	163	146	1429	0	0	0	0	0	0	0	0	444	233	339	48	1	1065	0	0	0	0	0	0	0	0	0	0	0	1	2	3	0	0	0	0	0	0	0	0	766	936	1871	375	264	4212	41	0	41014	103137	14876	1047	97	160171	0	0	0	0	0	0	0	0	18161	7568	10	0	0	25739	0	0	0	0	0	0	0	0	0	0	0	0	0	0	0	85538	94186	6957	992	68	187741	0	0	0	0	0	0	0	0	0	0	0	0	0	0	0	402	555	13	1	0	971	0	145115	205446	21856	2040	165	374622	2041	3004	0	0	0	0	0	0	1	3	3678	643	97	0	4.3	PART B    THERE ARE AN ADDITIONAL PARTIAL STEEL SERVICES THAT ARE COATED AND CATHODICALL PROTECTED WHICH ARE COUNTED IN OTHER METERIAL CATEGORIES.	"FRANK STAUSS, SECTION MANAGER"	7183192335	3/23/2004	4/8/2004		
2003	20031068	BAY STATE GAS CO	1209	300 FRIBERG PARKWAY	WESTBOROUGH	WORCESTER	MA	1581						 MA	507	109	0	2024	1177	867	0	0	0	0	4684	62135	8402	0	52980	116809	0	0	599	0	0	240925	0	915	698	880	133	14	2640	0	0	0	0	0	0	0	0	0	0	0	0	0	0	0	59	389	354	46	19	867	0	0	0	0	0	0	0	0	739	291	147	0	0	1177	0	0	0	0	0	0	0	0	0	0	0	0	0	0	0	0	0	0	0	0	0	0	1713	1378	1381	179	33	4684	70	0	83652	36754	2935	176	0	123517	0	0	0	0	0	0	0	0	567	30	2	0	0	599	0	0	0	0	0	0	0	0	0	0	0	0	0	0	0	75250	40709	786	64	0	116809	0	0	0	0	0	0	0	0	0	0	0	0	0	0	0	0	0	0	0	0	0	0	159469	77493	3723	240	0	240925	771	902	84	36	36	176	5	2	97	72	683	557	101	0	0.7		EDWARD COLLINS	5085800100	3/23/2004	4/8/2004		
2003	20031069	"FAIRBANK, CITY OF"	860	116 EAST MAIN STREET	FAIRBANK 	BUCHANAN	IA	50629						 IA	0	0	0	0	9	0	0	0	0	0	9	0	0	0	463	0	0	0	0	0	0	463	0	0	0	0	0	0	0	0	0	0	0	0	0	0	0	0	0	0	0	0	0	0	0	0	0	0	0	0	0	0	0	0	0	0	0	0	8	1	0	0	0	9	0	0	0	0	0	0	0	0	0	0	0	0	0	0	0	0	0	0	0	0	0	0	8	1	0	0	0	9	109	0	0	0	0	0	0	0	0	0	0	0	0	0	0	0	0	0	0	0	0	0	0	0	0	0	0	0	0	0	0	0	0	0	0	0	0	463	0	0	0	0	463	0	0	0	0	0	0	0	0	0	0	0	0	0	0	0	0	0	0	0	0	0	0	463	0	0	0	0	463	0	0	0	0	1	0	0	0	0	0	0	3	0	0	0.119		DAVID RYAN	3196352869	3/24/2004	4/8/2004		
2003	20031070	"LAGRANGE GAS DEPT, CITY OF"	11080	303 LUKKEN INDUST. DR W	LAGRANGE	TROUP	GA	30241	PO BOX 430 	LAGRANGE	TROUP	GA	30241	 GA	0	0	0	37	108	84	0	0	0	0	229	791	0	0	8	7787	14	0	267	0	0	8867	0	3	7	25	2	0	37	0	0	0	0	0	0	0	0	0	0	0	0	0	0	0	4	73	7	1	0	85	0	0	0	0	0	0	0	0	60	41	6	0	0	107	0	0	0	0	0	0	0	0	0	0	0	0	0	0	0	0	0	0	0	0	0	0	67	121	38	3	0	229	100	0	766	22	7	4	0	799	0	0	0	0	0	0	0	0	267	0	0	0	0	267	0	0	0	12	2	0	14	0	0	0	0	0	0	0	0	7707	69	11	0	0	7787	0	0	0	0	0	0	0	0	0	0	0	0	0	0	0	0	0	0	0	0	0	0	8740	91	30	6	0	8867	52	43	3	0	9	30	11	0	120	16	0	1	1	1	4.9		BENJIE DUKES	7068832130	4/2/2004	4/8/2004		
2003	20031071	PUGET SOUND ENERGY	22189	805 156 AVENUE NE 	BELLEVUE	KING	WA	98007	PO BOX 90868 	BELLEVUE	KING	WA	98009	 WA	108	23	23	3892	6736	135	0	0	0	0	10917	23840	920	2467	166760	530114	0	0	403	0	0	724504	0	2724	638	549	84	51	4046	0	0	0	0	0	0	0	0	0	0	0	0	0	0	0	17	91	24	3	0	135	0	0	0	0	0	0	0	0	5620	833	283	0	0	6736	0	0	0	0	0	0	0	0	0	0	0	0	0	0	0	0	0	0	0	0	0	0	8361	1562	856	87	51	10917	84	0	145994	46999	967	25	2	193987	0	0	0	0	0	0	0	0	403	0	0	0	0	403	0	0	0	0	0	0	0	0	0	0	0	0	0	0	0	482598	47296	206	14	0	530114	0	0	0	0	0	0	0	0	0	0	0	0	0	0	0	0	0	0	0	0	0	0	628995	94295	1173	39	2	724504	218	151	0	1	276	1458	37	44	22	24	155	214	418	11	0.984	NUMBER OF ACTIVE LEAKS IN THE YEAR AT END OF YEAR: 2864     ADDED CATHODIC PROTECTION TO 5600' OF WROUGHT IRON MAIN IN 2003	STEPHANIE KRESHEL	4254623734	3/23/2004	4/8/2004		
2003	20031072	"HOLYOKE GAS & ELECTRIC DEPT, CITY OF"	7330	99 SUFFOLK STREET	HOLYOKE 	HAMPDEN	MA	1040						 MA	0	0	0	88	8	64	0	0	0	0	160	3740	0	0	1901	1471	0	0	14	0	0	7126	0	20	14	43	11	0	88	0	0	0	0	0	0	0	0	0	0	0	0	0	0	0	1	28	28	5	2	64	0	0	0	0	0	0	0	0	5	1	2	0	0	8	0	0	0	0	0	0	0	0	0	0	0	0	0	0	0	0	0	0	0	0	0	0	26	43	73	16	2	160	90	0	2778	2799	57	7	0	5641	0	0	0	0	0	0	0	0	0	14	0	0	0	14	0	0	0	0	0	0	0	0	0	0	0	0	0	0	0	1044	424	3	0	0	1471	0	0	0	0	0	0	0	0	0	0	0	0	0	0	0	0	0	0	0	0	0	0	3822	3237	60	7	0	7126	2	6	0	0	0	0	0	0	0	0	22	5	13	0	1.44		"DANIEL J. SMITH, SENIOR GAS ENGINEER"	4135369350	3/29/2004	4/8/2004		
2003	20031073	SPRINGER GAS DEPT	18580	606 COLBERT AVENUE	SPRINGER	COLFAX	NM	87747						 NM	0	0	0	4	8	0	0	0	0	0	12	0	0	0	0	423	0	0	0	0	0	423	0	1	3	0	0	0	4	0	0	0	0	0	0	0	0	0	0	0	0	0	0	0	0	0	0	0	0	0	0	7	0	0	0	0	7	0	1	0	0	0	0	1	0	0	0	0	0	0	0	0	0	0	0	0	0	0	0	0	0	0	0	0	0	0	9	3	0	0	0	12	0	0	36	0	0	0	0	36	0	0	0	0	0	0	0	0	0	0	0	0	0	0	0	0	0	0	0	0	0	0	359	0	0	0	0	359	0	28	3	0	0	0	31	0	0	0	0	0	0	0	0	0	0	0	0	0	0	0	0	0	0	0	0	0	0	423	3	0	0	0	426	0	0	0	0	0	0	0	0	0	0	0	0	0	0	2		JERRY JOHNSON	5054832682	2/26/2004	4/8/2004		
2003	20031074	"MESA MUNICIPAL SYSTEM, CITY OF"	12378	PO BOX 1466	MESA	MARICOPA	AZ	85211						 AZ	0	0	0	468	541	0	0	0	0	0	1009	0	0	0	16037	26302	0	0	0	0	0	42339	0	321	67	80	0	0	468	0	0	0	0	0	0	0	0	0	0	0	0	0	0	0	0	0	0	0	0	0	0	0	0	0	0	0	0	0	398	138	5	0	0	541	0	0	0	0	0	0	0	0	0	0	0	0	0	0	0	0	0	0	0	0	0	0	719	205	85	0	0	1009	35	16037	0	0	0	0	0	16037	0	0	0	0	0	0	0	0	0	0	0	0	0	0	0	0	0	0	0	0	0	0	98	0	0	0	0	98	0	25847	352	5	0	0	26204	0	0	0	0	0	0	0	0	0	0	0	0	0	0	0	0	0	0	0	0	0	16037	25945	352	5	0	0	42339	17	11	4	3	42	66	9	18	0	0	104	15	217	0	0	UNACCOUNTED FOR GAS -5.857%	VERNA O'DELL	4806443370	3/18/2004	4/8/2004		
2003	20031075	LAKE PARK MUNICIPAL UTILITIES	11119	217 MARKET STREET	LAKE PARK	DICKINSON	IA	51347						 IA	0	0	0	5	4	0	0	0	0	0	9	0	0	0	326	219	0	0	0	0	0	545	0	4	1	0	0	0	5	0	0	0	0	0	0	0	0	0	0	0	0	0	0	0	0	0	0	0	0	0	0	0	0	0	0	0	0	0	2	2	0	0	0	4	0	0	0	0	0	0	0	0	0	0	0	0	0	0	0	0	0	0	0	0	0	0	6	3	0	0	0	9	60	0	318	6	0	0	0	324	0	0	0	0	0	0	0	0	0	0	0	0	0	0	0	0	0	0	0	0	0	0	27	0	0	0	0	27	0	191	3	0	0	0	194	0	0	0	0	0	0	0	0	0	0	0	0	0	0	0	0	0	0	0	0	0	0	536	9	0	0	0	545	0	0	1	0	0	0	0	0	0	0	0	0	0	0	0	LEAK REPAIRED CAUSED BY EQUIPMENT HITTING ABOVE GROUND VALVE (PART C).	RON LEV	7128323176	3/18/2004	4/8/2004		
2003	20031076	STANDARD GAS CO	18600	6167 MAIN STREET BOX 846	JANE LEW	LEWIS	WV	26378						 WV	0	0	7	2	4	0	0	0	0	0	13	0	0	226	0	196	0	0	0	0	0	422	0	5	4	0	0	0	9	0	0	0	0	0	0	0	0	0	0	0	0	0	0	0	0	0	0	0	0	0	0	4	0	0	0	0	4	0	0	0	0	0	0	0	0	0	0	0	0	0	0	0	0	0	0	0	0	0	0	0	0	0	0	0	0	0	9	4	0	0	0	13	8	0	0	222	4	0	0	226	0	0	0	0	0	0	0	0	0	0	0	0	0	0	0	0	0	0	0	0	0	0	0	193	3	0	0	196	0	0	0	0	0	0	0	0	0	0	0	0	0	0	0	0	0	0	0	0	0	0	0	0	0	0	0	0	0	0	415	7	0	0	422	10	4	0	0	0	0	0	0	0	0	0	0	0	0	0		RAMONA RAMSBURG	3048847850	3/18/2004	4/8/2004		
2003	20031077	MARION NATURAL GAS SYSTEM	12168	138 CEDAR AVE	SOUTH PITTSBURG	MARION	TN	37380						TN	0	0	0	60	8	0	0	0	0	0	68	0	0	0	1340	869	0	0	0	0	0	2209	0	21	25	13	0	0	59	0	0	0	0	0	0	0	0	0	0	0	0	0	0	0	0	0	0	0	0	0	0	0	0	0	0	0	0	0	4	4	1	0	0	9	0	0	0	0	0	0	0	0	0	0	0	0	0	0	0	0	0	0	0	0	0	0	25	29	14	0	0	68	115	0	1338	1	1	0	0	1340	0	0	0	0	0	0	0	0	0	0	0	0	0	0	0	0	0	0	0	0	0	0	0	0	0	0	0	0	0	866	1	2	0	0	869	0	0	0	0	0	0	0	0	0	0	0	0	0	0	0	0	0	0	0	0	0	0	2204	2	3	0	0	2209	0	17	0	0	0	1	0	0	0	0	0	0	0	0	4		CHARLYNN PEOPLES	4238377164	3/18/2004	5/10/2004		
2003	20031078	CITY OF HOOKER 	31597	111 S BROADWAY	HOOKER	TEXAS	OK	73945						OK	0	0	9	2	1	0	0	0	0	0	12	0	0	677	88	72	0	0	0	0	0	837	0	8	2	0	0	0	10	0	0	0	0	0	0	0	0	0	0	0	0	0	0	0	0	0	0	0	0	0	0	1	0	0	0	0	1	0	1	0	0	0	0	1	0	0	0	0	0	0	0	0	0	0	0	0	0	0	0	0	0	0	0	0	0	0	10	2	0	0	0	12	10	0	791	23	0	0	0	814	0	0	0	0	0	0	0	0	0	0	0	0	0	0	0	0	0	0	0	0	0	0	0	0	0	0	0	0	0	21	2	0	0	0	23	0	0	0	0	0	0	0	0	0	0	0	0	0	0	0	0	0	0	0	0	0	0	812	25	0	0	0	837	2	3	0	0	1	2	0	0	0	0	0	0	0	0	0		FOREST E OSBORN	5806522885	3/18/2004	4/8/2004		
2003	20031079	FAIRFIELD MUNICIPAL GAS UTILITY	5030	 109 NE SECOND STREET	FAIRFIELD	WAYNE	IL	62837						 IL	0	0	0	56	0	0	0	0	0	0	56	0	0	0	3010	0	0	0	0	0	0	3010	0	31	7	18	0	0	56	0	0	0	0	0	0	0	0	0	0	0	0	0	0	0	0	0	0	0	0	0	0	0	0	0	0	0	0	0	0	0	0	0	0	0	0	0	0	0	0	0	0	0	0	0	0	0	0	0	0	0	0	0	0	0	0	0	31	7	18	0	0	56	78	0	2946	64	0	0	0	3010	0	0	0	0	0	0	0	0	0	0	0	0	0	0	0	0	0	0	0	0	0	0	0	0	0	0	0	0	0	0	0	0	0	0	0	0	0	0	0	0	0	0	0	0	0	0	0	0	0	0	0	0	0	0	0	0	0	2946	64	0	0	0	3010	0	0	0	0	0	0	1	9	0	2	0	72	1	0	0.27		BARBARA LEGG	6188429736	3/18/2004	4/8/2004		
2003	20031080	LEXINGTON GAS SYSTEM	11448	50 MONROE STREET	LEXINGTON	HENDERSON	TN	38351						 TN	0	0	0	80	406	0	0	0	0	0	486	0	0	0	1310	8762	0	0	0	0	0	10072	0	23	14	24	19	0	80	0	0	0	0	0	0	0	0	0	0	0	0	0	0	0	0	0	0	0	0	0	0	0	0	0	0	0	0	0	337	48	21	0	0	406	0	0	0	0	0	0	0	0	0	0	0	0	0	0	0	0	0	0	0	0	0	0	360	62	45	19	0	486	180	0	1295	13	2	0	0	1310	0	0	0	0	0	0	0	0	0	0	0	0	0	0	0	0	0	0	0	0	0	0	0	0	0	0	0	0	0	8720	38	4	0	0	8762	0	0	0	0	0	0	0	0	0	0	0	0	0	0	0	0	0	0	0	0	0	0	10015	51	6	0	0	10072	0	0	0	2	16	75	0	21	0	30	0	0	0	0	4.3		JEFF GROSS	7319682917	3/18/2004	4/8/2004		
2003	20031081	DUNCAN RURAL SERVICE CORP	3605	222 NORTH HIWAY 75	DUNCAN	GREENLEE	AZ	85534						 AZ	0	0	0	37	16	0	0	0	0	0	53	0	0	0	637	289	0	0	0	0	0	926	0	30	7	0	0	0	37	0	0	0	0	0	0	0	0	0	0	0	0	0	0	0	0	0	0	0	0	0	0	5	0	0	0	0	5	0	11	0	0	0	0	11	0	0	0	0	0	0	0	0	0	0	0	0	0	0	0	0	0	0	0	0	0	0	46	7	0	0	0	53	25	0	568	69	0	0	0	637	0	0	0	0	0	0	0	0	0	0	0	0	0	0	0	0	0	0	0	0	0	0	68	0	0	0	0	68	0	220	1	0	0	0	221	0	0	0	0	0	0	0	0	0	0	0	0	0	0	0	0	0	0	0	0	0	0	856	70	0	0	0	926	12	0	0	0	0	0	0	0	0	0	0	0	14	0	3.7		MICHAEL PEARCE	9283592503	3/18/2004	4/8/2004		
2003	20031082	"NEWTON GAS SYSTEM, CITY OF"	13460	101 NORTH STREET	NEWTON	NEWTON	TX	75966						 TX	2	0	0	3	21	0	0	0	8	0	34	65	0	61	0	331	0	0	2	171	0	630	0	2	3	0	0	0	5	0	0	0	0	0	0	0	0	0	0	0	0	0	0	0	0	0	0	0	0	0	0	8	0	0	0	0	8	0	18	3	0	0	0	21	0	0	0	0	0	0	0	0	0	0	0	0	0	0	0	0	0	0	0	0	0	0	28	6	0	0	0	34	50	0	108	0	0	0	0	108	0	0	0	0	0	0	0	0	2	0	0	0	0	2	0	0	0	0	0	0	0	0	165	0	0	0	0	165	0	341	10	4	0	0	355	0	0	0	0	0	0	0	0	0	0	0	0	0	0	0	0	0	0	0	0	0	0	616	10	4	0	0	630	3	7	0	2	0	0	0	0	0	0	0	0	0	0	0	UNACCOUNTED FOR GAS -5.93%	JAY WILKERSON	4093795061	3/18/2004	4/8/2004		
2003	20031083	"COLORADO SPRINGS, CITY OF"	2568	PO BOX 1103	COLORADO SPRINGS	EL PASO	CO	80947						 CO	52	0	0	865	1187	0	0	0	0	0	2104	12406	0	0	35546	99695	0	0	0	0	0	147647	0	327	359	155	46	30	917	0	0	0	0	0	0	0	0	0	0	0	0	0	0	0	0	0	0	0	0	0	0	0	0	0	0	0	0	0	942	200	45	0	0	1187	0	0	0	0	0	0	0	0	0	0	0	0	0	0	0	0	0	0	0	0	0	0	1269	559	200	46	30	2104	85	35724	12228	0	0	0	0	47952	0	0	0	0	0	0	0	0	0	0	0	0	0	0	0	0	0	0	0	0	0	0	0	0	0	0	0	0	0	95405	4243	46	1	0	99695	0	0	0	0	0	0	0	0	0	0	0	0	0	0	0	0	0	0	0	0	0	35724	107633	4243	46	1	0	147647	56	213	24	3	2	4	9	74	8	30	7	109	24	0	1.51		TERESA STAHL	7196683600	3/18/2004	4/8/2004		
2003	20031084	SOUTH COAST GAS CO INC	18416	4076 HWY 1	RACELAND		LA	70394						 LA	0	0	0	434	180	0	0	0	0	0	614	0	0	0	16816	6062	0	0	0	0	0	22878	0	373	61	0	0	0	434	0	0	0	0	0	0	0	0	0	0	0	0	0	0	0	0	0	0	0	0	0	0	0	0	0	0	0	0	0	147	33	0	0	0	180	0	0	0	0	0	0	0	0	0	0	0	0	0	0	0	0	0	0	0	0	0	0	520	94	0	0	0	614	77	0	16809	6	1	0	0	16816	0	0	0	0	0	0	0	0	0	0	0	0	0	0	0	0	0	0	0	0	0	0	0	0	0	0	0	0	0	6035	26	1	0	0	6062	0	0	0	0	0	0	0	0	0	0	0	0	0	0	0	0	0	0	0	0	0	0	22844	32	2	0	0	22878	3	43	0	0	7	30	0	0	0	0	2	427	91	0	1	"MAIL LEAK IN PART ""C"" CLASSIFIED AS ""OTHER"" WERE VALVE STEM LEAKS.    SERVICE LEAKS IN PART ""C"" CLASSIFIED AS ""OTHER"" WERE LEAKS ON METER LOOPS AND TAP TEE CAPS."	RHONDA FOLSE	9855375281	3/18/2004	4/8/2004		
2003	20031085	"TRINIDAD, CITY OF"	19680	135 NORTH ANIMAS STREET	TRINIDAD	LAS ANIMAS	CO	81082						 CO	0	0	0	58	6	0	0	0	0	0	64	0	0	0	3873	341	0	0	0	0	0	4214	0	31	13	14	0	0	58	0	0	0	0	0	0	0	0	0	0	0	0	0	0	0	0	0	0	0	0	0	0	0	0	0	0	0	0	0	4	2	0	0	0	6	0	0	0	0	0	0	0	0	0	0	0	0	0	0	0	0	0	0	0	0	0	0	35	15	14	0	0	64	84	0	1451	2416	6	0	0	3873	0	0	0	0	0	0	0	0	0	0	0	0	0	0	0	0	0	0	0	0	0	0	0	0	0	0	0	0	0	310	24	7	0	0	341	0	0	0	0	0	0	0	0	0	0	0	0	0	0	0	0	0	0	0	0	0	0	1761	2440	13	0	0	4214	3	4	0	0	0	0	0	0	0	1	0	1	0	0	1.23		LINDA VIRGIL	7198469843	3/18/2004	4/8/2004		
2003	20031086	PIERRE PART NATURAL GAS INC	15532	4076 HWY 1	RACELAND		LA	70394						 LA	0	0	0	17	19	0	0	0	0	0	36	0	0	0	726	783	0	0	0	0	0	1509	0	16	1	0	0	0	17	0	0	0	0	0	0	0	0	0	0	0	0	0	0	0	0	0	0	0	0	0	0	0	0	0	0	0	0	0	19	0	0	0	0	19	0	0	0	0	0	0	0	0	0	0	0	0	0	0	0	0	0	0	0	0	0	0	35	1	0	0	0	36	20	0	725	1	0	0	0	726	0	0	0	0	0	0	0	0	0	0	0	0	0	0	0	0	0	0	0	0	0	0	0	0	0	0	0	0	0	782	1	0	0	0	783	0	0	0	0	0	0	0	0	0	0	0	0	0	0	0	0	0	0	0	0	0	0	1507	2	0	0	0	1509	0	2	0	0	0	5	0	0	0	0	0	23	0	0	1.25		RHONDA FOLSE	9855375281	3/18/2004	4/8/2004		
2003	20031087	"BATESVILLE GAS DEPT, CITY OF"	1152	103 COLLEGE STREET	BATESVILLE	PANOLA	MS	38606						 MS	0	0	0	85	11	0	0	0	0	0	96	0	0	0	2278	71	0	0	0	0	0	2349	0	51	34	0	0	0	85	0	0	0	0	0	0	0	0	0	0	0	0	0	0	0	0	0	0	0	0	0	0	0	0	0	0	0	0	0	9	2	0	0	0	11	0	0	0	0	0	0	0	0	0	0	0	0	0	0	0	0	0	0	0	0	0	0	60	36	0	0	0	96	100	0	2222	56	0	0	0	2278	0	0	0	0	0	0	0	0	0	0	0	0	0	0	0	0	0	0	0	0	0	0	0	0	0	0	0	0	0	69	2	0	0	0	71	0	0	0	0	0	0	0	0	0	0	0	0	0	0	0	0	0	0	0	0	0	0	2291	58	0	0	0	2349	1	2	0	0	1	1	0	0	0	0	0	0	0	0	0.99		WILLIAM WILSON	6625634576	3/18/2004	4/8/2004		
2003	20031088	COSERV GAS	31588	7701 S STEMMONS	CORINTH	DENTON	TX	76210						 TX	0	0	0	37	600	0	0	0	0	0	637	0	0	0	11	25185	0	0	0	0	0	25196	0	0	36	1	0	0	37	0	0	0	0	0	0	0	0	0	0	0	0	0	0	0	0	0	0	0	0	0	0	0	0	0	0	0	0	0	452	45	103	0	0	600	0	0	0	0	0	0	0	0	0	0	0	0	0	0	0	0	0	0	0	0	0	0	452	81	104	0	0	637	25	0	11	0	0	0	0	11	0	0	0	0	0	0	0	0	0	0	0	0	0	0	0	0	0	0	0	0	0	0	0	0	0	0	0	0	0	25185	0	0	0	0	25185	0	0	0	0	0	0	0	0	0	0	0	0	0	0	0	0	0	0	0	0	0	0	25196	0	0	0	0	25196	0	0	0	0	67	194	0	7	0	37	5	15	0	0	1.97		"BRIAN STILLES, CODE COMPLIANCE SUPERVISOR"	9403217800	3/18/2004	8/25/2004		
2003	20031089	COSERV GAS	31588	7701 S STEMMONS	CORINTH	DENTON	TX	76210						 TX	0	0	0	0	3	0	0	0	0	0	3	0	0	0	0	38	0	0	0	0	0	38	0	0	0	0	0	0	0	0	0	0	0	0	0	0	0	0	0	0	0	0	0	0	0	0	0	0	0	0	0	0	0	0	0	0	0	0	3	0	0	0	0	3	0	0	0	0	0	0	0	0	0	0	0	0	0	0	0	0	0	0	0	0	0	0	3	0	0	0	0	3	50	0	0	0	0	0	0	0	0	0	0	0	0	0	0	0	0	0	0	0	0	0	0	0	0	0	0	0	0	0	0	0	0	0	0	0	0	38	0	0	0	0	38	0	0	0	0	0	0	0	0	0	0	0	0	0	0	0	0	0	0	0	0	0	0	38	0	0	0	0	38	0	0	0	0	0	0	0	0	0	0	0	0	0	0	0	NEW LP GAS SYSTEM (RESULTS OF EAGLE MOUNTAIN) TARRENT COUNTY(	"BRIAN STILES, CODE COMPLIANCE SUPERVISOR"	9403217800	3/18/2004	8/25/2004		
2003	20031090	COSERV GAS	31588	7701 S STEMMONS	CORINTH	DENTON	TX	76210						 TX	0	0	0	0	2	0	0	0	0	0	2	0	0	0	0	7	0	0	0	0	0	7	0	0	0	0	0	0	0	0	0	0	0	0	0	0	0	0	0	0	0	0	0	0	0	0	0	0	0	0	0	0	0	0	0	0	0	0	1	1	0	0	0	2	0	0	0	0	0	0	0	0	0	0	0	0	0	0	0	0	0	0	0	0	0	0	1	1	0	0	0	2	75	0	0	0	0	0	0	0	0	0	0	0	0	0	0	0	0	0	0	0	0	0	0	0	0	0	0	0	0	0	0	0	0	0	0	0	0	7	0	0	0	0	7	0	0	0	0	0	0	0	0	0	0	0	0	0	0	0	0	0	0	0	0	0	0	7	0	0	0	0	7	0	0	0	0	0	0	0	0	0	0	0	0	0	0	0	NEW LP GAS SYSTEM (ESTATES OF PILOT KNOB) DENTON COUNTY	"BRIAN STILES, CODE COMPLIANCE SUPERVISOR"	9403217800	3/18/2004	8/25/2004		
2003	20031091	"RICHLAND GAS DEPT, CITY OF"	17350	PO BOX 126	RICHLAND 	STEWART	GA	31825	PO BOX 3217	THOMASVILLE	THOMAS	GA	31799	 GA	0	0	0	11	0	0	0	0	0	0	11	0	0	91	0	244	0	0	0	0	0	335	0	4	7	0	0	0	11	0	0	0	0	0	0	0	0	0	0	0	0	0	0	0	0	0	0	0	0	0	0	0	0	0	0	0	0	0	0	0	0	0	0	0	0	0	0	0	0	0	0	0	0	0	0	0	0	0	0	0	0	0	0	0	0	0	4	7	0	0	0	11	75	0	86	5	0	0	0	91	0	0	0	0	0	0	0	0	0	0	0	0	0	0	0	0	0	0	0	0	0	0	0	0	0	0	0	0	0	244	0	0	0	0	244	0	0	0	0	0	0	0	0	0	0	0	0	0	0	0	0	0	0	0	0	0	0	330	5	0	0	0	335	2	4	5	6	0	0	3	6	1	4	0	0	67	0	12	"INFORMATION PROVIDED BY WILBON L. BROWN, NATURAL GAS SUPERINTENDENT OF THE CITY OF RICHARD."	W.L. HAYS	2292266569	3/18/2004	4/8/2004		
2003	20031092	"OCILLA GAS DEPT, CITY OF"	14070	PO BOX 626	OCILLA	IRWIN	GA	31774	PO BOX 3217	THOMASVILLE	THOMAS	GA	31799	 GA	0	0	0	25	2	0	0	0	0	0	27	0	0	0	450	74	0	0	0	0	0	524	0	18	3	4	0	0	25	0	0	0	0	0	0	0	0	0	0	0	0	0	0	0	0	0	0	0	0	0	0	0	0	0	0	0	0	0	0	2	0	0	0	2	0	0	0	0	0	0	0	0	0	0	0	0	0	0	0	0	0	0	0	0	0	0	18	5	4	0	0	27	75	0	446	4	0	0	0	450	0	0	0	0	0	0	0	0	0	0	0	0	0	0	0	0	0	0	0	0	0	0	0	0	0	0	0	0	0	73	1	0	0	0	74	0	0	0	0	0	0	0	0	0	0	0	0	0	0	0	0	0	0	0	0	0	0	519	5	0	0	0	524	0	0	0	0	0	4	0	0	0	0	2	0	7	0	0	INFORMATION PROVIDED BY BRUCE WILDER OF THE CITY OF OCILLA	W.L. HAYS	2292266569	3/18/2004	4/8/2004		
2003	20031093	"HOGANSVILLE GAS SYSTEM, CITY OF"	7300	400 EAST MAIN STREET	HOGANSVILLE	TROUP	GA	31711	PO BOX 3217	THOMASVILLE	THOMAS	GA	31799	 GA	0	0	1	1	24	14	0	0	0	0	40	213	0	0	14	904	0	0	0	0	0	1131	0	2	0	0	0	0	2	0	0	0	0	0	0	0	0	0	0	0	0	0	0	0	0	14	0	0	0	14	0	0	0	0	0	0	0	0	24	0	0	0	0	24	0	0	0	0	0	0	0	0	0	0	0	0	0	0	0	0	0	0	0	0	0	0	26	14	0	0	0	40	100	0	227	0	0	0	0	227	0	0	0	0	0	0	0	0	0	0	0	0	0	0	0	0	0	0	0	0	0	0	0	0	0	0	0	0	0	902	2	0	0	0	904	0	0	0	0	0	0	0	0	0	0	0	0	0	0	0	0	0	0	0	0	0	0	1129	2	0	0	0	1131	3	27	0	0	0	1	0	0	0	0	0	0	32	0	11	"INFORMATION PROVIDED BY TERRY TOWNSEND, OF THE CITY OF HOGANSVILLE, GEORGIA.  UNACCOUNTED FOR GAS PERCENTAGE IA AN ESTIMATE."	W.L. HAYS	2292266569	3/18/2004	4/30/2004		
2003	20031094	"SYLVESTER NATIONAL GAS SYSTEM, CITY OF"	18796	POST OFFICE BOX 370	SYLVESTER	WORTH	GA	31791	POST OFFICE BOX 3217	THOMASVILLE	THOMAS	GA	31799	 GA	0	0	0	31	8	0	0	0	0	0	39	0	0	55	485	684	0	0	0	0	0	1224	0	10	16	5	0	0	31	0	0	0	0	0	0	0	0	0	0	0	0	0	0	0	0	0	0	0	0	0	0	0	0	0	0	0	0	0	6	2	0	0	0	8	0	0	0	0	0	0	0	0	0	0	0	0	0	0	0	0	0	0	0	0	0	0	16	18	5	0	0	39	100	0	527	13	0	0	0	540	0	0	0	0	0	0	0	0	0	0	0	0	0	0	0	0	0	0	0	0	0	0	0	0	0	0	0	0	0	682	2	0	0	0	684	0	0	0	0	0	0	0	0	0	0	0	0	0	0	0	0	0	0	0	0	0	0	1209	15	0	0	0	1224	0	0	0	0	0	10	0	0	32	5	0	0	48	0	3	"INFORMATION PROVIDED BY CHALRES JONES, GAS SUPERINTENDENT OF THE CITY OF SYLVESTER, GEROGIA."	W.L. HAYS	2292266569	3/18/2004	4/8/2004		
2003	20031095	"DAWSON GAS DEPT, CITY OF"	3160	101 SOUTH MAIN STREET	DAWSON 	TERRELL	GA	31742						 GA	0	0	0	20	3	5	0	0	0	0	28	0	0	438	7	710	0	0	0	0	0	1155	18	2	0	0	0	0	20	0	0	0	0	0	0	0	0	0	0	0	0	0	0	0	0	5	0	0	0	5	0	0	0	0	0	0	0	0	3	0	0	0	0	3	0	0	0	0	0	0	0	0	0	0	0	0	0	0	0	0	0	0	0	0	0	18	5	5	0	0	0	28	45	0	438	7	0	0	0	445	0	0	0	0	0	0	0	0	0	0	0	0	0	0	0	0	0	0	0	0	0	0	0	0	0	0	0	0	0	710	0	0	0	0	710	0	0	0	0	0	0	0	0	0	0	0	0	0	0	0	0	0	0	0	0	0	0	1148	7	0	0	0	1155	4	15	2	18	0	0	0	0	4	0	0	8	0	0	17	"INFORMATION PROVIDED BY ERNEST ASBURY, NATURAL GAS DEPARTMENT OF THE CITY OF DAWSON, GEORGIA "	W.L. HAYS	2292266569	3/18/2004	4/14/2004		
2003	20031096	"WOODLAND GAS DEPT, CITY OF"	22847	POST OFFICE BOX 187	WOODLAND 	TALBOT	GA	31836	POST OFFICE BOX 3217	THOMASVILLE	THOMAS	GA	31799	 GA	0	0	0	8	0	0	0	0	0	0	8	0	0	69	0	51	0	0	0	0	0	120	0	7	1	0	0	0	8	0	0	0	0	0	0	0	0	0	0	0	0	0	0	0	0	0	0	0	0	0	0	0	0	0	0	0	0	0	0	0	0	0	0	0	0	0	0	0	0	0	0	0	0	0	0	0	0	0	0	0	0	0	0	0	0	0	7	1	0	0	0	8	60	0	67	2	0	0	0	69	0	0	0	0	0	0	0	0	0	0	0	0	0	0	0	0	0	0	0	0	0	0	0	0	0	0	0	0	0	51	0	0	0	0	51	0	0	0	0	0	0	0	0	0	0	0	0	0	0	0	0	0	0	0	0	0	0	118	2	0	0	0	120	0	0	0	2	0	0	0	0	0	0	0	0	0	0	31	"INFORMATION PROVIDED BY MYRA WILIAMS OF THE CITY OF WOODLAND, GEORGIA."	W. L. HAYS	2292266569	3/18/2004	4/8/2004		
2003	20031097	"EDISON GAS SYSTEM, CITY OF"	4250	POST OFFICE BOX 337	EDISON	CALHOUN	GA	31746	POST OFFICE BOX 3217	THOMASVILLE	THOMAS	GA	31799	 GA	0	0	0	20	0	0	0	0	0	0	20	0	0	30	1	259	0	0	0	0	0	290	0	2	18	0	0	0	20	0	0	0	0	0	0	0	0	0	0	0	0	0	0	0	0	0	0	0	0	0	0	0	0	0	0	0	0	0	0	0	0	0	0	0	0	0	0	0	0	0	0	0	0	0	0	0	0	0	0	0	0	0	0	0	0	0	2	18	0	0	0	20	100	0	30	0	1	0	0	31	0	0	0	0	0	0	0	0	0	0	0	0	0	0	0	0	0	0	0	0	0	0	0	0	0	0	0	0	0	257	2	0	0	0	259	0	0	0	0	0	0	0	0	0	0	0	0	0	0	0	0	0	0	0	0	0	0	287	2	1	0	0	290	0	0	0	0	0	0	0	37	0	0	0	0	6	0	1	"INFORMATION PROVIDED BY JAMES WATERS, GAS SUPERINTENDENT OF THE CITY OF EDISON, GEORGIA"	W. L. HAYES	2292266569	3/18/2004	4/9/2004		
2003	20031098	"ANDERSONVILLE GAS SYSTEM, CITY OF"	495	PO BOX 35	ANDERSONVILLE	SUMTER	GA	31711	PO BOX 3217	THOMASVILLE	THOMAS	GA	31799	 GA	0	0	0	6	3	0	0	0	0	0	9	0	0	0	0	129	0	0	0	0	0	129	0	3	2	1	0	0	6	0	0	0	0	0	0	0	0	0	0	0	0	0	0	0	0	0	0	0	0	0	0	0	0	0	0	0	0	0	3	0	0	0	0	3	0	0	0	0	0	0	0	0	0	0	0	0	0	0	0	0	0	0	0	0	0	0	6	2	1	0	0	9	75	0	0	0	0	0	0	0	0	0	0	0	0	0	0	0	0	0	0	0	0	0	0	0	0	0	0	0	0	0	0	0	0	0	0	0	0	129	0	0	0	0	129	0	0	0	0	0	0	0	0	0	0	0	0	0	0	0	0	0	0	0	0	0	0	129	0	0	0	0	129	0	0	0	0	0	0	0	0	0	2	0	0	2	0	2	"INFORMATION PROVIDED BY EDDIE HILL, GAS SUPERINTENDENT OF THE CITY OF ANDERSONVILLE, GEORGIA"	W.L. HAYS	2292266569	3/18/2004	4/19/2004		
2003	20031099	"COLQUITT GAS SYSTEM, CITY OF"	2572	181 SOUTH CUTHBERT STREET	COLQUITT	MILLER	GA	31737	POST OFFICE BOX 3217	THOMASVILLE	THOMAS	GA	31799	 GA	0	0	0	12	6	0	0	0	0	0	18	0	0	26	0	137	0	0	0	0	0	163	0	0	12	0	0	0	12	0	0	0	0	0	0	0	0	0	0	0	0	0	0	0	0	0	0	0	0	0	0	0	0	0	0	0	0	0	1	5	0	0	0	6	0	0	0	0	0	0	0	0	0	0	0	0	0	0	0	0	0	0	0	0	0	0	1	17	0	0	0	18	120	0	19	7	0	0	0	26	0	0	0	0	0	0	0	0	0	0	0	0	0	0	0	0	0	0	0	0	0	0	0	0	0	0	0	0	0	136	1	0	0	0	137	0	0	0	0	0	0	0	0	0	0	0	0	0	0	0	0	0	0	0	0	0	0	155	8	0	0	0	163	0	0	0	0	0	0	0	0	0	2	0	0	22	0	7	"INFORMATION PROVIDED BY PARTICK SMITH, NATRUAL GAS SUPERINTENDENT OF THE CITY OF COLQUITT, GEORGIA."	W. L. HAYS	2292266569	3/18/2004	4/9/2004		
2003	20031100	"MANCHESTER GAS DEPT, CITY OF"	12078	PO BOX 366	MANCHESTER	MERIWETHER	GA	31816	PO BOX 3217	THOMASVILLE	THOMAS	GA	31799	 GA	0	0	0	16	16	26	0	0	0	0	58	100	0	0	0	1204	0	0	0	0	0	1304	0	2	0	14	0	0	16	0	0	0	0	0	0	0	0	0	0	0	0	0	0	0	0	25	1	0	0	26	0	0	0	0	0	0	0	0	16	0	0	0	0	16	0	0	0	0	0	0	0	0	0	0	0	0	0	0	0	0	0	0	0	0	0	0	18	25	15	0	0	58	100	0	93	5	2	0	0	100	0	0	0	0	0	0	0	0	0	0	0	0	0	0	0	0	0	0	0	0	0	0	0	0	0	0	0	0	0	1202	2	0	0	0	1204	0	0	0	0	0	0	0	0	0	0	0	0	0	0	0	0	0	0	0	0	0	0	1295	7	2	0	0	1304	1	1	2	0	2	5	0	0	0	7	0	5	0	0	13		W.L. HAYS	2292266569	3/18/2004	4/19/2004		
2003	20031101	"UNADILLA GAS SYSTEM, CITY OF"	20020	POST OFFICE BOX 307	UNADILLA	DOOLY	GA	31090	POST OFFICE BOX 3217	THOMASVILLE	THOMAS	GA	31799	 GA	0	0	0	16	8	0	0	0	0	0	24	0	0	0	313	275	0	0	0	0	0	588	0	14	2	0	0	0	16	0	0	0	0	0	0	0	0	0	0	0	0	0	0	0	0	0	0	0	0	0	0	0	0	0	0	0	0	0	3	5	0	0	0	8	0	0	0	0	0	0	0	0	0	0	0	0	0	0	0	0	0	0	0	0	0	0	17	7	0	0	0	24	100	0	307	6	0	0	0	313	0	0	0	0	0	0	0	0	0	0	0	0	0	0	0	0	0	0	0	0	0	0	0	0	0	0	0	0	0	275	0	0	0	0	275	0	0	0	0	0	0	0	0	0	0	0	0	0	0	0	0	0	0	0	0	0	0	582	6	0	0	0	588	0	8	0	0	0	0	0	0	0	2	0	0	3	0	1	"INFORMATION PROVIDED BY CHARLES, WALKER, CITY MANAGER OF THE CITY OF UNADILLA"	W. L. HAYS	2292266569	3/18/2004	4/9/2004		
2003	20031102	"GRANTVILLE GAS SYSTEM, CITY OF"	6600	POST OFFICE BOX 160	GRANTVILLE	COWETA	GA	30220	POST OFFICE BOX 3217	THOMASVILLE	THOMAS	GA	31799	 GA	0	0	0	1	16	0	0	0	0	0	17	0	0	0	0	627	0	0	0	0	0	627	0	0	1	0	0	0	1	0	0	0	0	0	0	0	0	0	0	0	0	0	0	0	0	0	0	0	0	0	0	0	0	0	0	0	0	0	13	3	0	0	0	16	0	0	0	0	0	0	0	0	0	0	0	0	0	0	0	0	0	0	0	0	0	0	13	4	0	0	0	17	60	0	0	0	0	0	0	0	0	0	0	0	0	0	0	0	0	0	0	0	0	0	0	0	0	0	0	0	0	0	0	0	0	0	0	0	0	621	4	2	0	0	627	0	0	0	0	0	0	0	0	0	0	0	0	0	0	0	0	0	0	0	0	0	0	621	4	2	0	0	627	0	0	0	0	0	0	0	0	0	1	0	0	0	0	2	"INFORMATION PROVIDED BY JIM BUTLER (TELEPHONE), NATURAL GAS DEPARTMENT OF THE THE CITY OF GRANTVILLE."	W. L. HAYS	2292266569	3/18/2004	4/9/2004		
2003	20031103	"TALBOTTON, TOWN OF"	19020	POST OFFIVE BOX 215	TALBOTTON	TALBOT	FL	31827	POST OFFICE BOX 3217	THOMASVILLE	THOMAS	GA	31799	 GA	0	0	0	2	9	0	0	0	0	0	11	0	0	0	0	228	0	0	0	0	0	228	0	0	2	0	0	0	2	0	0	0	0	0	0	0	0	0	0	0	0	0	0	0	0	0	0	0	0	0	0	0	0	0	0	0	0	0	8	1	0	0	0	9	0	0	0	0	0	0	0	0	0	0	0	0	0	0	0	0	0	0	0	0	0	0	8	3	0	0	0	11	75	0	0	0	0	0	0	0	0	0	0	0	0	0	0	0	0	0	0	0	0	0	0	0	0	0	0	0	0	0	0	0	0	0	0	0	0	224	4	0	0	0	228	0	0	0	0	0	0	0	0	0	0	0	0	0	0	0	0	0	0	0	0	0	0	224	4	0	0	0	228	0	0	0	0	0	0	0	0	2	9	0	0	9	0	4	INFORMATION PROVIDED BY ROBERT LANIER OF THE CITY OF TALBOTTON.	W. L. HAYS	2292266569	3/18/2004	4/9/2004		
2003	20031104	"PELHAM NATURAL GAS SYSTEM, CITY OF"	15203	POST OFFICE BOX 362	PELHAM	MITCHELL	GA	31779	POST OFFICE BOX 3217	THOMASVILLE 	THOMAS	GA	31799	 GA	0	0	0	23	3	0	0	0	0	0	26	0	0	188	0	424	0	0	0	0	0	612	0	3	16	4	0	0	23	0	0	0	0	0	0	0	0	0	0	0	0	0	0	0	0	0	0	0	0	0	0	0	0	0	0	0	0	0	2	1	0	0	0	3	0	0	0	0	0	0	0	0	0	0	0	0	0	0	0	0	0	0	0	0	0	0	5	17	4	0	0	26	75	0	179	9	0	0	0	188	0	0	0	0	0	0	0	0	0	0	0	0	0	0	0	0	0	0	0	0	0	0	0	0	0	0	0	0	0	424	0	0	0	0	424	0	0	0	0	0	0	0	0	0	0	0	0	0	0	0	0	0	0	0	0	0	0	603	9	0	0	0	612	0	0	0	1	0	0	0	1	0	1	3	17	9	0	0	"INFORMATION PROVIDED BY TEDDIE HUEY, NATURAL GAS SUPERINTENDENT OF THE CITY OF PELHAM."	W. L. HAYS	2292266569	3/18/2004	4/9/2004		
2003	20031105	"DONALSONVILLE GAS SYSTEM, CITY OF"	3480	POST OFFICE BOX 308	DONALSONVILLE	SEMINOLE	GA	31745	POST OFFICE BOX 3217	THOMASVILLE 	THOMAS	GA	31799	 GA	0	0	0	18	4	0	0	0	0	0	22	0	0	309	0	115	0	0	0	0	0	424	0	13	3	2	0	0	18	0	0	0	0	0	0	0	0	0	0	0	0	0	0	0	0	0	0	0	0	0	0	0	0	0	0	0	0	0	3	1	0	0	0	4	0	0	0	0	0	0	0	0	0	0	0	0	0	0	0	0	0	0	0	0	0	0	16	4	2	0	0	22	60	0	299	7	3	0	0	309	0	0	0	0	0	0	0	0	0	0	0	0	0	0	0	0	0	0	0	0	0	0	0	0	0	0	0	0	0	110	5	0	0	0	115	0	0	0	0	0	0	0	0	0	0	0	0	0	0	0	0	0	0	0	0	0	0	409	12	3	0	0	424	0	0	0	0	0	0	0	0	6	0	0	0	3	0	0	"INFORMATION PROVIDED BY DONALD GAMBREL, NATRUAL GAS SUPERINTENDENT OF THE CITY OF DONALSONVILLE."	W. L. HAYS	2262266569	3/18/2004	4/9/2004		
2003	20031106	"LUMPKIN GAS DEPT, CITY OF"	11896	POST OFFICE BOX 278	LUMPKIN	STEWART	GA	31815	POST OFFICE BOX 3217	THOMASVILLE	THOMAS	GA	31799	 GA	0	0	0	10	1	0	0	0	0	0	11	0	0	120	177	53	0	0	0	0	0	350	0	0	10	0	0	0	10	0	0	0	0	0	0	0	0	0	0	0	0	0	0	0	0	0	0	0	0	0	0	0	0	0	0	0	0	0	1	0	0	0	0	1	0	0	0	0	0	0	0	0	0	0	0	0	0	0	0	0	0	0	0	0	0	0	1	10	0	0	0	11	100	0	291	6	0	0	0	297	0	0	0	0	0	0	0	0	0	0	0	0	0	0	0	0	0	0	0	0	0	0	0	0	0	0	0	0	0	53	0	0	0	0	53	0	0	0	0	0	0	0	0	0	0	0	0	0	0	0	0	0	0	0	0	0	0	344	6	0	0	0	350	0	1	0	1	0	0	3	0	0	2	1	1	22	0	3	INFORMATION PROVIDED BY CHARLIE SHEPPARD OF THE CITY OF LUMPKIN.	W. L. HAYS	2292266569	3/18/2004	4/9/2004		
2003	20031107	"BLAKELY GAS DEPT, CITY OF"	1520	POST OFFICE BOX 350	BLAKLEY	EARLY	GA	31723	POST OFFICE BOX 3217	THOMASVILLE	THOMAS	GA	31799	 GA	0	0	0	34	9	0	0	0	0	0	43	0	0	0	654	404	0	0	0	0	0	1058	0	15	17	2	0	0	34	0	0	0	0	0	0	0	0	0	0	0	0	0	0	0	0	0	0	0	0	0	0	0	0	0	0	0	0	0	6	3	0	0	0	9	0	0	0	0	0	0	0	0	0	0	0	0	0	0	0	0	0	0	0	0	0	0	21	20	2	0	0	43	85	0	649	5	0	0	0	654	0	0	0	0	0	0	0	0	0	0	0	0	0	0	0	0	0	0	0	0	0	0	0	0	0	0	0	0	0	364	0	1	0	0	365	0	39	0	0	0	0	39	0	0	0	0	0	0	0	0	0	0	0	0	0	0	0	1052	5	1	0	0	1058	1	20	0	0	0	0	0	0	0	0	0	16	0	0	0	"INFORMATION PROVIDED BY DANNY WILLIAMS, NATURAL GAS SUPERINTENDENT OF THE CITY OF BAKLEY"	W. L. HAYS	2292266569	3/18/2004	4/9/2004		
2003	20031108	"MEIGS NATURAL GAS SYSTEM, CITY OF"	12324	POST OFFICE BOX 47	MEIGS 	THOMAS	GA	31765	POST OFFICE BOX 3217	THOMASVILLE	THOMAS	GA	31799	 GA	0	0	0	8	0	0	0	0	0	0	8	0	0	0	189	80	0	0	0	0	0	269	0	4	2	2	0	0	8	0	0	0	0	0	0	0	0	0	0	0	0	0	0	0	0	0	0	0	0	0	0	0	0	0	0	0	0	0	0	0	0	0	0	0	0	0	0	0	0	0	0	0	0	0	0	0	0	0	0	0	0	0	0	0	0	0	4	2	2	0	0	8	100	0	186	3	0	0	0	189	0	0	0	0	0	0	0	0	0	0	0	0	0	0	0	0	0	0	0	0	0	0	0	0	0	0	0	0	0	79	1	0	0	0	80	0	0	0	0	0	0	0	0	0	0	0	0	0	0	0	0	0	0	0	0	0	0	265	4	0	0	0	269	2	0	0	0	0	4	0	0	0	0	0	8	14	0	2	INFORMATION PROVIDED BY JUMMY LAYTON OF THE CITY OF MEIGS.	W. L. HAYS	2292266569	3/18/2004	4/9/2004		
2003	20031109	DECATUR COUNTY INDUSTRIAL AIRPARK	3188	POST OFFICE BOX 726	BAINBRIDGE	DECATUR	GA	31718	POST OFFICE BOX 3217	THOMASVILLE	THOMAS	GA	31799	 GA	0	0	0	5	3	0	0	0	0	0	8	0	0	0	24	6	0	0	0	0	0	30	0	0	5	0	0	0	5	0	0	0	0	0	0	0	0	0	0	0	0	0	0	0	0	0	0	0	0	0	0	0	0	0	0	0	0	0	0	3	0	0	0	3	0	0	0	0	0	0	0	0	0	0	0	0	0	0	0	0	0	0	0	0	0	0	0	8	0	0	0	8	75	0	16	7	1	0	0	24	0	0	0	0	0	0	0	0	0	0	0	0	0	0	0	0	0	0	0	0	0	0	0	0	0	0	0	0	0	4	2	0	0	0	6	0	0	0	0	0	0	0	0	0	0	0	0	0	0	0	0	0	0	0	0	0	0	20	9	1	0	0	30	0	0	0	0	0	0	0	0	0	0	0	7	0	0	0	INFORMATION PROVIDED BY CHARLES BRYAN OF DECATUR COUNTY INDUSTRIAL PARK.	W. L. HAYS	2292266569	3/18/2004	4/9/2004		
2003	20031110	"SPARTA NATURAL GAS SYSTEM, CITY OF"	18564	POST OFFICE BOX 356	SPARTA 	HANCOCK	GA	31807	POST OFFICE BOX 3217	THOMASVILLE	THOMAS	GA	31799	 GA	0	0	0	33	9	0	0	0	0	0	42	0	0	191	0	698	0	0	0	0	0	889	0	16	17	0	0	0	33	0	0	0	0	0	0	0	0	0	0	0	0	0	0	0	0	0	0	0	0	0	0	0	0	0	0	0	0	0	7	2	0	0	0	9	0	0	0	0	0	0	0	0	0	0	0	0	0	0	0	0	0	0	0	0	0	0	23	19	0	0	0	42	75	0	191	1	0	0	0	192	0	0	0	0	0	0	0	0	0	0	0	0	0	0	0	0	0	0	0	0	0	0	0	0	0	0	0	0	0	693	4	0	0	0	697	0	0	0	0	0	0	0	0	0	0	0	0	0	0	0	0	0	0	0	0	0	0	884	5	0	0	0	889	0	2	0	0	1	0	2	0	0	3	0	31	0	0	4	"INFORMATION PROVIDED BY JOHNNY MASHBURN, NATURAL GAS SUPERINTENDENT OF THE CITY OF SPARTA"	W. L. HAYS	2292266569	3/18/2004	4/9/2004		
2003	20031111	"SHELLMAN GAS DEPT, TOWN OF"	18288	POST OFFICE BOX 60	SHELLMAN	RANDOLPH	GA	31786	POST OFFICE BOX 3217	THOMASVILLE	THOMAS	GA	31799	 GA	0	0	0	11	0	0	0	0	0	0	11	0	0	188	0	45	0	0	0	0	0	233	0	7	4	0	0	0	11	0	0	0	0	0	0	0	0	0	0	0	0	0	0	0	0	0	0	0	0	0	0	0	0	0	0	0	0	0	0	0	0	0	0	0	0	0	0	0	0	0	0	0	0	0	0	0	0	0	0	0	0	0	0	0	0	0	7	4	0	0	0	11	100	0	183	5	0	0	0	188	0	0	0	0	0	0	0	0	0	0	0	0	0	0	0	0	0	0	0	0	0	0	0	0	0	0	0	0	0	45	0	0	0	0	45	0	0	0	0	0	0	0	0	0	0	0	0	0	0	0	0	0	0	0	0	0	0	228	5	0	0	0	233	0	0	0	0	0	1	0	2	0	0	0	1	0	0	4	"INFORMATION PROVIDED BY ROY ALLEN, GAS SUPERINTENDENT OF THE CITY OF SHELLMAN"	W. L. HAYS	2292266569	3/18/2004	4/9/2004		
2003	20031112	"FORT GAINES GAS SYSTEM, CITY OF"	5400	POST OFFICE BOX 251	GORT GAINES	CLAY	GA	31751	POST OFFICE BOX 3217	THOMASVILLE	THOMAS	GA	31799	 GA	0	0	0	8	0	0	0	0	0	0	8	0	0	0	273	14	0	0	0	0	0	287	0	4	4	0	0	0	8	0	0	0	0	0	0	0	0	0	0	0	0	0	0	0	0	0	0	0	0	0	0	0	0	0	0	0	0	0	0	0	0	0	0	0	0	0	0	0	0	0	0	0	0	0	0	0	0	0	0	0	0	0	0	0	0	0	4	4	0	0	0	8	70	0	271	2	0	0	0	273	0	0	0	0	0	0	0	0	0	0	0	0	0	0	0	0	0	0	0	0	0	0	0	0	0	0	0	0	0	11	3	0	0	0	14	0	0	0	0	0	0	0	0	0	0	0	0	0	0	0	0	0	0	0	0	0	0	282	5	0	0	0	287	0	0	0	0	0	0	0	0	0	0	0	0	0	0	1	"INFORMATION PROVIDED BY WILLIE E. REYNOLDS, NATURAL GAS SUPERINTENDENT OF THE CITY OF FORT GAINES."	W. L. HAYES	2292266569	3/18/2004	4/9/2004		
2003	20031113	CONSUMERS ENERGY CO	2748	1945 W. PARNALL ROAD	JACKSON 	JACKSON	MS	49201						 MA MS	250	288	491	12566	10662	794	0	2	2	0	25055	7677	8794	17873	405581	829257	0	0	193961	37067	0	1500210	0	7311	2672	3489	107	16	13595	0	34	398	268	57	3	760	0	2	0	0	0	0	2	0	28	5	1	0	0	34	0	8652	1589	421	0	0	10662	0	0	0	0	0	0	0	0	0	0	0	0	0	0	0	1	1	0	0	0	2	0	0	0	0	0	0	0	0	16028	4665	4179	164	19	25055	81	74	394697	43723	1258	173	0	439925	0	0	0	0	0	0	0	26	169799	24135	1	0	0	193961	0	0	0	0	0	0	0	78	737447	91277	439	16	0	829257	0	0	0	0	0	0	0	0	0	0	0	0	0	0	24543	7418	5071	32	3	0	37067	0	0	0	0	0	0	0	24721	1309361	164206	1730	192	0	1500210	258	1434	0	0	0	0	0	0	6	37	179	766	879	3	0.82		JOAQUIN J AFFONSO  MANAGER OF REGULATORY SERVICES	5177881369	3/18/2004	4/9/2004		
2003	20031114	T W PHILLIPS GAS & OIL CO	15476	205 NORTH MAIN STREET	BUTLER 		PA	16001						 PA	1433	20	0	980	655	0	0	0	0	0	3088	14954	0	0	6332	35211	0	0	0	0	0	56497	0	585	741	694	395	18	2433	0	0	0	0	0	0	0	0	0	0	0	0	0	0	0	0	0	0	0	0	0	0	0	0	0	0	0	0	0	216	325	114	0	0	655	0	0	0	0	0	0	0	0	0	0	0	0	0	0	0	0	0	0	0	0	0	0	801	1066	808	395	18	3088	30	0	0	21834	36	2	1	21873	0	0	0	0	0	0	0	0	0	0	0	0	0	0	0	0	0	0	0	0	0	0	0	0	0	0	0	0	0	0	34543	79	2	0	34624	0	0	0	0	0	0	0	0	0	0	0	0	0	0	0	0	0	0	0	0	0	0	0	56377	115	4	1	56497	817	148	10	9	62	36	22	11	16	4	0	0	34	0	5.48		T. M. MOHR & J. T. KABAY	8002225101	3/16/2004	4/9/2004		
2003	20031115	CLEVELAND GAS DEPT	2492	201 N. BROADWAY	CLEVELAND	PAWNEE	OK	74020						 OK	31	0	0	0	0	0	0	0	0	0	31	1682	0	0	0	268	0	0	0	0	0	1950	0	20	10	0	0	0	30	0	0	0	0	0	0	0	0	0	0	0	0	0	0	0	0	0	0	0	0	0	0	0	0	0	0	0	0	0	6	3	0	0	0	9	0	0	0	0	0	0	0	0	0	0	0	0	0	0	0	0	0	0	0	0	0	0	26	13	0	0	0	39	0	0	1378	35	0	0	0	1413	0	0	0	0	0	0	0	0	0	0	0	0	0	0	0	0	0	0	0	0	0	0	0	0	0	0	0	0	0	275	1	0	0	0	276	0	0	0	0	0	0	0	0	0	0	0	0	0	0	0	0	0	0	0	0	0	0	1653	36	0	0	0	1689	0	0	0	0	0	0	0	0	0	0	0	82	42	0	5	MOST OF OUR LEAKS WERE AT METER SETS AND ARE VERY SMALL WITH GAS LEAKING FROM GASKETS ON METERS AND THREADS OF FITTINGS.  WE ARE IN THE PROCESS OF CHANGING OUT ALL GAS METERS AND REGULATORS AND THIS IS TAKING CARE OF MOST OF THE LEAKS.	DAVID MONFORTE	9183583506	3/9/2004	4/9/2004		
2003	20031116	FORAKER GAS CO	5350	P.O. BOX 537  420 S STATE	NEW LEXINGTON	PERRY	OH	43764					43764	 OH	2	0	0	0	13	0	0	0	0	0	15	1	0	0	0	57	0	0	0	0	0	58	0	0	2	0	0	0	2	0	0	0	0	0	0	0	0	0	0	0	0	0	0	0	0	0	0	0	0	0	0	0	0	0	0	0	0	0	1	12	0	0	0	13	0	0	0	0	0	0	0	0	0	0	0	0	0	0	0	0	0	0	0	0	0	0	1	14	0	0	0	15	20	0	0	0	1	0	0	1	0	0	0	0	0	0	0	0	0	0	0	0	0	0	0	0	0	0	0	0	0	0	0	0	0	0	0	0	0	39	15	3	0	0	57	0	0	0	0	0	0	0	0	0	0	0	0	0	0	0	0	0	0	0	0	0	0	39	15	4	0	0	58	0	0	0	0	0	0	0	0	0	0	0	0	0	0	2		DANIEL G. FORAKER  PRESIDENT	7403422852	3/9/2004	4/9/2004		
2003	20031117	"DOUGLAS GAS DEPT, CITY OF"	3510	PO BOX 490	DOUGLAS	COFFEE	GA	31533						 GA	0	0	0	125	23	0	0	0	0	0	148	0	0	0	1281	797	0	0	0	0	0	2078	0	5	80	25	15	0	125	0	0	0	0	0	0	0	0	0	0	0	0	0	0	0	0	0	0	0	0	0	0	0	0	0	0	0	0	0	13	10	0	0	0	23	0	0	0	0	0	0	0	0	0	0	0	0	0	0	0	0	0	0	0	0	0	0	18	90	25	15	0	148	100	0	1214	67	0	0	0	1281	0	0	0	0	0	0	0	0	0	0	0	0	0	0	0	0	0	0	0	0	0	0	0	0	0	0	0	0	0	793	3	1	0	0	797	0	0	0	0	0	0	0	0	0	0	0	0	0	0	0	0	0	0	0	0	0	0	2007	70	1	0	0	2078	0	7	0	0	0	0	0	0	0	0	0	14	0	0	3.5		"EDDIE HARP, NATURAL GAS DIRECTOR"	9123893427	3/8/2004	4/9/2004		
2003	20031118	"HALLS GAS DEPT, TOWN OF"	7025	208 N. CHURCH	HALLS	LAUDERDALE	TN	38040						 TN	0	0	0	31	54	0	0	0	0	0	85	0	0	0	650	850	0	0	0	0	0	1500	0	21	10	0	0	0	31	0	0	0	0	0	0	0	0	0	0	0	0	0	0	0	0	0	0	0	0	0	0	0	0	0	0	0	0	0	54	0	0	0	0	54	0	0	0	0	0	0	0	0	0	0	0	0	0	0	0	0	0	0	0	0	0	0	75	10	0	0	0	85	100	0	630	25	0	0	0	655	0	0	0	0	0	0	0	0	0	0	0	0	0	0	0	0	0	0	0	0	0	0	0	0	0	0	0	0	0	843	2	0	0	0	845	0	0	0	0	0	0	0	0	0	0	0	0	0	0	0	0	0	0	0	0	0	0	1473	27	0	0	0	1500	2	2	0	0	0	0	0	0	3	3	0	1	0	0	2		"ALAN CHERRY, PUBLIC WORKS DIRECTOR"	7318367379	3/10/2004	4/9/2004		
2003	20031119	CAMPORA PROPANE SERVICE	31792	"40087 HWY 49, BOX 2427"	OAKHURST		CA	93644	2537 S MARIPOSA RD	STOCKTON		CA	95205	 CA	0	0	0	0	3	0	0	0	0	0	3	0	0	0	0	206	0	0	0	0	0	206	0	0	0	0	0	0	0	0	0	0	0	0	0	0	0	0	0	0	0	0	0	0	0	0	0	0	0	0	0	0	0	0	0	0	0	0	1	2	0	0	0	3	0	0	0	0	0	0	0	0	0	0	0	0	0	0	0	0	0	0	0	0	0	0	1	2	0	0	0	3	15	0	0	0	0	0	0	0	0	0	0	0	0	0	0	0	0	0	0	0	0	0	0	0	0	0	0	0	0	0	0	0	0	0	0	0	0	206	0	0	0	0	206	0	0	0	0	0	0	0	0	0	0	0	0	0	0	0	0	0	0	0	0	0	0	206	0	0	0	0	206	0	0	0	0	0	0	0	0	0	0	0	0	0	0	0		"D C LEIBY, LEAK SURVEY CORROSION CONTROL"	6618315972	3/5/2004	5/4/2004		
2003	20031120	SEVIER COUNTY UTIL DIST	18192	420 ROBERT HENDERSON RD	SERVIERVILLE	SEVIER	TN	37862						 TN	0	0	0	71	412	0	0	0	0	0	483	0	0	0	1147	8246	0	0	0	0	0	9393	0	27	18	26	0	0	71	0	0	0	0	0	0	0	0	0	0	0	0	0	0	0	0	0	0	0	0	0	0	0	0	0	0	0	0	0	231	119	62	0	0	412	0	0	0	0	0	0	0	0	0	0	0	0	0	0	0	0	0	0	0	0	0	0	258	137	88	0	0	483	98	0	1146	1	0	0	0	1147	0	0	0	0	0	0	0	0	0	0	0	0	0	0	0	0	0	0	0	0	0	0	0	0	0	0	0	0	0	8101	145	0	0	0	8246	0	0	0	0	0	0	0	0	0	0	0	0	0	0	0	0	0	0	0	0	0	0	9247	146	0	0	0	9393	1	0	1	0	17	27	1	0	0	1	2	0	12	0	0.035		KAREN W. GREEN	8654533272	3/18/2004	4/9/2004		
2003	20031121	SEMCO ENERGY GAS COMPANY	18472	405 WATER STREET	PORT HURON 	ST. CLAIR	MI	48060	28470 13 MILE ROAD	FARMINGTON HILLS	OAKLAND	MI	48334	 MI	115	29	0	931	1341	0	0	0	0	0	2416	4073	0	0	31380	84634	0	0	0	0	0	120087	74	412	49	527	11	2	1075	0	0	0	0	0	0	0	0	0	0	0	0	0	0	0	0	0	0	0	0	0	0	0	0	0	0	0	0	0	1002	155	184	0	0	1341	0	0	0	0	0	0	0	0	0	0	0	0	0	0	0	0	0	0	0	0	0	74	1414	204	711	11	2	2416	115	4073	30371	969	27	13	0	35453	0	0	0	0	0	0	0	0	0	0	0	0	0	0	0	0	0	0	0	0	0	0	0	0	0	0	0	0	0	83703	908	21	2	0	84634	0	0	0	0	0	0	0	0	0	0	0	0	0	0	0	0	0	0	0	0	0	4073	114074	1877	48	15	0	120087	174	152	25	129	47	291	7	12	42	85	7	16	86	0	0.59		RAYMOND M. THOMPSON	810987220	3/18/2004	4/23/2004		
2003	20031123	BATTLE CREEK GAS CO	1176	405 WATER STREET	PORT HURON	ST. CLAIR	MI	48060	28470 13 MILE ROAD	FARMINGTON HILLS	OAKLAND	MI	48334	 MI	0	0	0	173	474	114	0	0	0	0	761	2663	0	0	6880	26655	0	0	0	0	0	36198	0	88	51	22	8	4	173	0	0	0	0	0	0	0	0	0	0	0	0	0	0	0	4	61	44	4	1	114	0	0	0	0	0	0	0	0	231	164	79	0	0	474	0	0	0	0	0	0	0	0	0	0	0	0	0	0	0	0	0	0	0	0	0	0	323	276	145	12	5	761	93	9543	0	0	0	0	0	9543	0	0	0	0	0	0	0	0	0	0	0	0	0	0	0	0	0	0	0	0	0	0	0	0	0	0	0	0	162	20932	5486	73	2	0	26655	0	0	0	0	0	0	0	0	0	0	0	0	0	0	0	0	0	0	0	0	0	9705	20932	5486	73	2	0	36198	22	30	14	6	10	58	3	8	20	3	5	62	45	0	0.21		RAYMOND M. THOMPSON	8109872200	3/18/2004	4/9/2004		
2003	20031124	NEW YORK STATE ELECTRIC & GAS CORP	13420	CORPORATE DR KIRKWOOD IND	BINGHAMTON	BROOME	NY	13902	PO BOX 3287	ITHACA	TOMPKINS	NY	14851	 NY	415	0	23	2252	1867	59	0	0	0	0	4616	12836	15253	286	36707	139720	0	0	0	10846	3409	219057	0	480	678	1151	342	39	2690	0	0	0	0	0	0	0	0	0	0	0	0	0	0	0	2	38	15	4	0	59	0	0	0	0	0	0	0	0	919	570	378	0	0	1867	0	0	0	0	0	0	0	0	0	0	0	0	0	0	0	0	0	0	0	0	0	0	1401	1286	1544	346	39	4616	77	8314	28371	29146	368	52	4	66255	0	0	0	0	0	0	0	0	0	0	0	0	0	0	0	0	0	0	0	0	0	0	0	0	0	0	0	0	10741	115494	12986	420	74	5	139720	0	0	0	0	0	0	0	7740	1499	418	12	4	0	9673	3409	0	0	0	0	0	3409	30204	145364	42550	800	130	9	219057	186	196	22	60	71	217	9	23	8	25	194	335	249	0	1.008	APPROXIMATELY 41 MILES OF WROUGHT IRON IS INCLUDED IN THE CAST IRON/WROUGHT IRON CATEGORY.	DANIEL T. CARDEN	6077624634	3/18/2004	4/9/2004		
2003	20031125	ROCHESTER GAS & ELECTRIC CORP	17570	89 EAST AVENUE	ROCHESTER	MONROE	NY	14649						 NY	233	201	17	2503	1441	161	0	0	0	0	4556	6723	12667	0	81759	152746	0	0	9089	0	0	262984	0	1327	919	544	91	73	2954	0	0	0	0	0	0	0	0	0	0	0	0	0	0	0	0	70	73	6	12	161	0	0	0	0	0	0	0	0	1116	249	76	0	0	1441	0	0	0	0	0	0	0	0	0	0	0	0	0	0	0	0	0	0	0	0	0	0	2443	1238	693	97	85	4556	76	0	82049	15937	2513	607	43	101149	0	0	0	0	0	0	0	0	6953	2136	0	0	0	9089	0	0	0	0	0	0	0	0	0	0	0	0	0	0	0	147579	4617	534	16	0	152746	0	0	0	0	0	0	0	0	0	0	0	0	0	0	0	0	0	0	0	0	0	0	236581	22690	3047	623	43	262984	232	293	0	9	50	165	5	7	3	7	380	169	32	0	1.34	APPROXIMATELY 100 MILES OF WROUGHT IRON IS INCLUDED IN THE UNPROTECTED BARE STEEL CATEGORY.	YVETTE O. LABOMBARD	5857714926	3/18/2004	4/9/2004		
2003	20031126	MANNING NATURAL GAS DEPT	12102	715 THIRD STREET	MANNING	CARROLL	IA	51455						 IA	0	0	0	18	3	0	0	0	0	0	21	0	0	0	645	63	0	0	0	0	0	708	0	9	7	2	0	0	18	0	0	0	0	0	0	0	0	0	0	0	0	0	0	0	0	0	0	0	0	0	0	0	0	0	0	0	0	0	3	0	0	0	0	3	0	0	0	0	0	0	0	0	0	0	0	0	0	0	0	0	0	0	0	0	0	0	12	7	2	0	0	21	75	0	601	0	44	0	0	645	0	0	0	0	0	0	0	0	0	0	0	0	0	0	0	0	0	0	0	0	0	0	0	0	0	0	0	0	0	63	0	0	0	0	63	0	0	0	0	0	0	0	0	0	0	0	0	0	0	0	0	0	0	0	0	0	0	664	0	44	0	0	708	0	0	0	0	0	0	0	0	0	0	1	0	0	0	0	OTHER=REPAIRED VALVE	KENNETH SPIES	7126553905	3/18/2004	4/9/2004		
2003	20031127	MANNING NATURAL GAS DEPT	12102	715 THIRD STREET	MANNING	CARROLL	IA	51455						 IA	0	0	0	0	4	0	0	0	0	0	4	0	0	0	0	194	0	0	0	0	0	194	0	0	0	0	0	0	0	0	0	0	0	0	0	0	0	0	0	0	0	0	0	0	0	0	0	0	0	0	0	0	0	0	0	0	0	0	4	0	0	0	0	4	0	0	0	0	0	0	0	0	0	0	0	0	0	0	0	0	0	0	0	0	0	0	4	0	0	0	0	4	85	0	0	0	0	0	0	0	0	0	0	0	0	0	0	0	0	0	0	0	0	0	0	0	0	0	0	0	0	0	0	0	0	0	0	0	0	194	0	0	0	0	194	0	0	0	0	0	0	0	0	0	0	0	0	0	0	0	0	0	0	0	0	0	0	194	0	0	0	0	194	0	0	0	0	0	0	0	0	0	0	0	0	0	0	0		"KENNETH SPIES, SUPERINTENDENT"	7126553905	3/18/2004	5/17/2004		
2003	20031128	MANNING NATURAL GAS DEPT	12102	715 THIRD STREET	MANNING	CARROLL	IA	51455						 IA	0	0	0	0	2	0	0	0	0	0	2	0	0	0	0	30	0	0	0	0	0	30	0	0	0	0	0	0	0	0	0	0	0	0	0	0	0	0	0	0	0	0	0	0	0	0	0	0	0	0	0	0	0	0	0	0	0	0	1	1	0	0	0	2	0	0	0	0	0	0	0	0	0	0	0	0	0	0	0	0	0	0	0	0	0	0	1	1	0	0	0	2	101	0	0	0	0	0	0	0	0	0	0	0	0	0	0	0	0	0	0	0	0	0	0	0	0	0	0	0	0	0	0	0	0	0	0	0	0	29	0	1	0	0	30	0	0	0	0	0	0	0	0	0	0	0	0	0	0	0	0	0	0	0	0	0	0	29	0	1	0	0	30	0	0	0	0	0	0	0	0	0	0	0	0	0	0	0		"KENNETH SPIES, SUPERINTENDENT"	7126553905	3/18/2004	5/17/2004		
2003	20031129	OKLAHOMA NATURAL GAS CO	14210	401 NORTH HARVEY	OKLAHOMA CITY	OKLAHOMA	OK	73102						 OK	1131	0	0	6315	8028	0	0	0	0	0	15474	30137	0	0	382363	484985	0	0	0	0	0	897485	0	3449	2509	1239	254	33	7484	0	0	0	0	0	0	0	0	0	0	0	0	0	0	0	0	0	0	0	0	0	0	0	0	0	0	0	0	0	6402	1561	22	5	0	7990	0	0	0	0	0	0	0	0	0	0	0	0	0	0	0	0	0	0	0	0	0	0	9851	4070	1261	259	33	15474	14	0	168557	236826	6504	500	113	412500	0	0	0	0	0	0	0	0	0	0	0	0	0	0	0	0	0	0	0	0	0	0	0	0	0	0	0	0	0	462360	22559	53	13	0	484985	0	0	0	0	0	0	0	0	0	0	0	0	0	0	0	0	0	0	0	0	0	0	630917	259385	6557	513	113	897485	275	373	34	128	671	922	124	280	37	101	375	1016	2398	36	1.33		GIENNA DOOLEY	4055516864	3/18/2004	4/9/2004		
2003	20031130	QUESTAR GAS COMPANY	12876	PO BOX 45360	SALT LAKE CITY	SALT LAKE	UT	84145						 ID	0	0	0	0	40	0	0	0	0	0	40	0	0	0	1	1773	0	0	0	0	0	1774	0	0	0	0	0	0	0	0	0	0	0	0	0	0	0	0	0	0	0	0	0	0	0	0	0	0	0	0	0	26	11	3	0	0	40	0	0	0	0	0	0	0	0	0	0	0	0	0	0	0	0	0	0	0	0	0	0	0	0	0	0	0	0	0	26	11	3	0	0	40	84	0	1	0	0	0	0	1	0	0	0	0	0	0	0	0	0	0	0	0	0	0	0	0	0	0	0	0	0	0	0	0	0	0	0	0	0	1742	31	0	0	0	1773	0	0	0	0	0	0	0	0	0	0	0	0	0	0	0	0	0	0	0	0	0	0	1743	31	0	0	0	1774	0	0	0	0	1	2	0	0	0	0	0	0	0	0	0.6	"NOTE: PART E-PERCENT OF UNACCOUNTED FOR GAS IS A SYSTEM WIDE VALUE (IDAH, UTAH, AND WYOMING)."	JEFFREY D. HANSEN	8013243645	3/19/2004	4/9/2004		
2003	20031131	QUESTAR GAS COMPANY	12876	PO BOX 45360	SALT AKE CITY	SALT LAKE	UT	84145						 WY	0	0	0	88	374	0	0	0	0	0	462	0	0	0	3483	21756	0	0	0	0	0	25239	0	50	27	11	0	0	88	0	0	0	0	0	0	0	0	0	0	0	0	0	0	0	0	0	0	0	0	0	0	0	0	0	0	0	0	0	266	102	6	0	0	374	0	0	0	0	0	0	0	0	0	0	0	0	0	0	0	0	0	0	0	0	0	0	316	129	17	0	0	462	60	0	3247	231	5	0	0	3483	0	0	0	0	0	0	0	0	0	0	0	0	0	0	0	0	0	0	0	0	0	0	0	0	0	0	0	0	0	21113	634	9	0	0	21756	0	0	0	0	0	0	0	0	0	0	0	0	0	0	0	0	0	0	0	0	0	0	24360	865	14	0	0	25239	0	0	0	0	15	28	0	0	0	0	0	0	1	0	0.6	"NOTE: PART E-PERCENT OF UNACCOUNTED FOR GAS IS A SYSTEM WIDE VALUE (IDAHO, UTAH, AND WYOMING)."	JEFFERY D. HANSEN	8013243645	3/19/2004	4/9/2004		
2003	20031132	QUESTAR GAS COMPANY	12876	PO BOX 45360	SALT LAKE CITY 	SALT LAKE	UT	84145						 UT	0	3	0	3353	9353	0	0	0	0	0	12709	0	0	0	154149	504583	0	0	0	0	0	658732	0	2066	950	248	67	25	3356	0	0	0	0	0	0	0	0	0	0	0	0	0	0	0	0	0	0	0	0	0	0	0	0	0	0	0	0	0	7190	1826	337	0	0	9353	0	0	0	0	0	0	0	0	0	0	0	0	0	0	0	0	0	0	0	0	0	0	9256	2776	585	67	25	12709	66	0	145153	8769	194	21	12	154149	0	0	0	0	0	0	0	0	0	0	0	0	0	0	0	0	0	0	0	0	0	0	0	0	0	0	0	0	0	490455	13779	332	17	0	504583	0	0	0	0	0	0	0	0	0	0	0	0	0	0	0	0	0	0	0	0	0	0	635608	22548	526	38	12	658732	14	84	0	0	526	1161	14	29	49	41	32	80	13	0	0.6	"NOTE: PART E-PERCENT OF UNACCOUNTED FOR GAS IS A SYSTEM WIDE VALUE (IDAHO, UTAH, AND WYOMING)."	JERRERY D. HANSEN	8013243645	3/19/2004	4/9/2004		
2003	20031133	"PINEDALE NATURAL GAS, INC"	967	619 SOUTH PINE STREET	PINEDALE	SUBLETTE	WY	82941						 WY	0	0	0	0	30	0	0	0	0	0	30	0	0	0	0	834	0	0	0	0	0	834	0	0	0	0	0	0	0	0	0	0	0	0	0	0	0	0	0	0	0	0	0	0	0	0	0	0	0	0	0	7	1	0	0	0	8	0	16	5	1	0	0	22	0	0	0	0	0	0	0	0	0	0	0	0	0	0	0	0	0	0	0	0	0	0	23	6	1	0	0	30	59	0	0	0	0	0	0	0	0	0	0	0	0	0	0	0	0	0	0	0	0	0	0	0	0	0	0	0	0	0	239	3	0	0	0	242	0	582	9	1	0	0	592	0	0	0	0	0	0	0	0	0	0	0	0	0	0	0	0	0	0	0	0	0	0	821	12	1	0	0	834	0	0	0	0	0	0	0	0	0	0	0	0	0	0	1		DALE F. RASMUSSEN	3073674427	3/19/2004	4/9/2004		
2003	20031135	ATLANTA GAS LIGHT CO	792	P.O. BOX 4569	ATLANTA	FULTON	GA	30302						 GA	1004	0	0	11151	16072	161	0	0	0	0	28388	46622	0	0	318687	1058723	0	0	50	0	0	1424082	0	6572	2740	2455	351	37	12155	0	0	0	0	0	0	0	0	0	0	0	0	0	0	0	1	71	64	22	3	161	0	0	0	0	0	0	0	0	13074	2856	140	2	0	16072	0	0	0	0	0	0	0	0	0	0	0	0	0	0	0	0	0	0	0	0	0	0	19647	5667	2659	375	40	28388	104	0	334398	29810	987	110	4	365309	0	0	0	0	0	0	0	0	50	0	0	0	0	50	0	0	0	0	0	0	0	0	0	0	0	0	0	0	0	1013261	44885	547	30	0	1058723	0	0	0	0	0	0	0	0	0	0	0	0	0	0	0	0	0	0	0	0	0	0	1347709	74695	1534	140	4	1424082	744	441	22	60	1171	2076	93	207	209	465	862	1058	887	0	1.97		"ISAAC BLYTHERS, PRESIDENT"	4045843550	3/18/2004	4/16/2004		
2003	20031136	VICI PUBLIC WORKS AUTH	21210	BOX 183	VICI OKLA	DEWEY	OK	73859						 OK	0	0	0	8	1	0	0	0	0	0	9	0	0	0	403	23	0	0	0	0	0	426	0	6	2	0	0	0	8	0	0	0	0	0	0	0	0	0	0	0	0	0	0	0	0	0	0	0	0	0	0	0	0	0	0	0	0	0	1	0	0	0	0	1	0	0	0	0	0	0	0	0	0	0	0	0	0	0	0	0	0	0	0	0	0	0	7	2	0	0	0	9	0	0	386	0	0	0	0	386	0	0	0	0	0	0	0	0	0	0	0	0	0	0	0	0	0	0	0	0	0	0	0	0	0	0	0	0	0	23	0	0	0	0	23	0	0	0	0	0	0	0	0	0	0	0	0	0	0	0	0	0	0	0	0	0	0	409	17	0	0	0	426	2	0	0	0	0	3	0	0	0	2	0	0	0	0	2		MARLC MILLER	5809954482	4/5/2004	4/16/2004		
2003	20031137	BEECHY GAS CO	1235	218 MAIN ST BOX 92	CLAY	CLAY	WV	25043						 WV	6	0	0	0	7	0	0	0	0	0	13	38	0	0	0	297	0	0	0	0	0	335	0	6	0	0	0	0	6	0	0	0	0	0	0	0	0	0	0	0	0	0	0	0	0	0	0	0	0	0	0	0	0	0	0	0	0	0	7	0	0	0	0	7	0	0	0	0	0	0	0	0	0	0	0	0	0	0	0	0	0	0	0	0	0	0	13	0	0	0	0	13	100	38	0	0	0	0	0	38	0	0	0	0	0	0	0	0	0	0	0	0	0	0	0	0	0	0	0	0	0	0	0	0	0	0	0	0	0	0	297	0	0	0	297	0	0	0	0	0	0	0	0	0	0	0	0	0	0	0	0	0	0	0	0	0	38	0	297	0	0	0	335	12	0	0	0	4	0	0	0	0	0	0	0	0	0	7.7		JOHN HABJAN	3045872984	4/2/2004	4/16/2004		
2003	20031138	"OSAGE MUNICIPAL GAS UTILITY, TOWN OF"	14380	720 CHESTNUT STREET	OSAGE	MITCHELL	IA	50461						 IA	0	0	0	28	3	0	0	0	0	0	31	0	0	0	1564	204	0	0	0	0	0	1768	0	17	9	2	0	0	28	0	0	0	0	0	0	0	0	0	0	0	0	0	0	0	0	0	0	0	0	0	0	0	0	0	0	0	0	0	3	0	0	0	0	3	0	0	0	0	0	0	0	0	0	0	0	0	0	0	0	0	0	0	0	0	0	0	20	9	2	0	0	31	0	0	1490	74	0	0	0	1564	0	0	0	0	0	0	0	0	0	0	0	0	0	0	0	0	0	0	0	0	0	0	0	0	0	0	0	0	0	202	2	0	0	0	204	0	0	0	0	0	0	0	0	0	0	0	0	0	0	0	0	0	0	0	0	0	0	1692	76	0	0	0	1768	0	0	0	0	0	0	6	0	0	0	0	0	1	0	0		"PAULA R. ROSS, OFFICE MANAGER"	6418323731	4/2/2004	4/16/2004		
2003	20031139	"PORT ARANSAS, CITY OF"	31018	710 WEST AVE A	PORT ARANSAS	NUECES	TX	78373						TX	0	0	0	12	36	0	0	0	0	0	48	0	0	0	44	903	0	0	0	0	0	947	0	12	0	0	0	0	12	0	0	0	0	0	0	0	0	0	0	0	0	0	0	0	0	0	0	0	0	0	0	19	0	0	0	0	19	0	9	3	0	0	0	12	0	5	0	0	0	0	5	0	0	0	0	0	0	0	0	0	0	0	0	0	0	0	45	3	0	0	0	48	0	0	44	0	0	0	0	44	0	0	0	0	0	0	0	0	0	0	0	0	0	0	0	0	0	0	0	0	0	0	280	7	0	0	0	287	0	284	10	0	0	0	294	0	322	0	0	0	0	322	0	0	0	0	0	0	0	0	0	0	0	0	0	0	0	930	17	0	0	0	947	0	9	0	3	13	5	3	0	3	8	0	0	5	0	3.66		JUDITH LYLE	3617494111	4/2/2004	5/4/2004		
2003	20031140	"GOODHUE MUNICIPAL GAS, CITY OF"	30961	405 NORTH BROADWAY 	GOODUE	GOODHUE	MN	55027						 MN	0	0	0	7	11	0	0	0	0	0	18	0	0	0	0	418	0	0	0	0	0	418	0	0	7	0	0	0	7	0	0	0	0	0	0	0	0	0	0	0	0	0	0	0	0	0	0	0	0	0	0	0	0	0	0	0	0	0	6	5	0	0	0	11	0	0	0	0	0	0	0	0	0	0	0	0	0	0	0	0	0	0	0	0	0	0	6	12	0	0	0	18	100	0	0	0	0	0	0	0	0	0	0	0	0	0	0	0	0	0	0	0	0	0	0	0	0	0	0	0	0	0	0	0	0	0	0	0	0	410	8	0	0	0	418	0	0	0	0	0	0	0	0	0	0	0	0	0	0	0	0	0	0	0	0	0	0	410	8	0	0	0	418	0	0	0	0	0	0	0	0	0	0	0	0	0	0	0		"LEROY MCKEOWN, UTILITY BD. MANAGER"	6519235643	4/5/2004	4/16/2004		
2003	20031141	E M W GAS ASSOCIATION	4005	416 5TH STREET	ESTANCIA 	TORRANCE	NM	87016						 NM	0	0	0	205	383	0	0	0	0	0	588	0	0	0	895	5147	0	0	0	0	0	6042	0	97	33	75	0	0	205	0	0	0	0	0	0	0	0	0	0	0	0	0	0	0	0	0	0	0	0	0	0	102	0	0	0	0	102	0	210	68	0	3	0	281	0	0	0	0	0	0	0	0	0	0	0	0	0	0	0	0	0	0	0	0	0	0	409	101	75	3	0	588	0	0	339	545	11	0	0	895	0	0	0	0	0	0	0	0	0	0	0	0	0	0	0	0	0	0	0	0	0	0	583	40	0	0	0	623	0	4502	22	0	0	0	4524	0	0	0	0	0	0	0	0	0	0	0	0	0	0	0	0	0	0	0	0	0	0	5424	607	11	0	0	6042	0	1	0	1	3	22	0	0	5	50	6	1	22	0	2.28		JERRY SANCHEZ	5053842369	4/5/2004	4/16/2004		
2003	20031142	"LIVINGSTON, TOWN OF"	11604	20550 CIRCLE DR BOX 430	LIVINGSTON	LIVINGSTON	LA	70754						 LA	0	0	0	3	53	0	0	0	0	0	56	0	0	0	27	616	0	0	0	0	0	643	0	3	0	0	0	0	3	0	0	0	0	0	0	0	0	0	0	0	0	0	0	0	0	0	0	0	0	0	0	0	0	0	0	0	0	0	28	25	0	0	0	53	0	0	0	0	0	0	0	0	0	0	0	0	0	0	0	0	0	0	0	0	0	0	31	25	0	0	0	56	20	0	27	0	0	0	0	27	0	0	0	0	0	0	0	0	0	0	0	0	0	0	0	0	0	0	0	0	0	0	0	0	0	0	0	0	0	616	0	0	0	0	616	0	0	0	0	0	0	0	0	0	0	0	0	0	0	0	0	0	0	0	0	0	0	643	0	0	0	0	643	0	0	1	9	2	0	0	1	0	8	0	1	0	0	0		DONNY DUFFY	2256867153	4/5/2004	4/16/2004		
2003	20031143	FORD CITY UTILITIES GAS DEPT	5360	710 E 8TH 	FORD	FORD	KS	67842						 KS	0	0	1	4	3	0	0	0	0	0	8	0	0	139	0	12	0	0	0	0	0	151	0	5	0	0	0	0	5	0	0	0	0	0	0	0	0	0	0	0	0	0	0	0	0	0	0	0	0	0	0	0	0	0	0	0	0	0	0	3	0	0	0	3	0	0	0	0	0	0	0	0	0	0	0	0	0	0	0	0	0	0	0	0	0	0	5	3	0	0	0	8	50	0	122	0	0	0	0	122	0	0	0	0	0	0	0	0	0	0	0	0	0	0	0	0	0	0	0	0	0	0	0	0	0	0	0	0	0	23	8	0	0	0	31	0	0	0	0	0	0	0	0	0	0	0	0	0	0	0	0	0	0	0	0	0	0	145	8	0	0	0	153	0	0	0	0	0	0	0	0	0	0	0	1	1	0	1.96	RETIGHTENED AND RESEALED FITTINGS.	PATRICK AMARO	6203692247	4/5/2004	4/16/2004		
2003	20031145	FITZGERALD WATER LIGHT & BOND COMMISSION	5210	200 N. HOOKER STREET	FITZGERALD	BEN HILL	GA	31750						 GA	0	0	0	53	0	0	0	0	0	0	53	0	0	0	3117	0	0	0	0	0	0	3117	0	22	27	4	0	0	53	0	0	0	0	0	0	0	0	0	0	0	0	0	0	0	0	0	0	0	0	0	0	0	0	0	0	0	0	0	0	0	0	0	0	0	0	0	0	0	0	0	0	0	0	0	0	0	0	0	0	0	0	0	0	0	0	0	22	27	4	0	0	53	100	0	3092	22	3	0	0	3117	0	0	0	0	0	0	0	0	0	0	0	0	0	0	0	0	0	0	0	0	0	0	0	0	0	0	0	0	0	0	0	0	0	0	0	0	0	0	0	0	0	0	0	0	0	0	0	0	0	0	0	0	0	0	0	0	0	3092	22	3	0	0	3117	0	0	0	0	0	0	0	0	0	0	0	26	0	0	0	"UNACCOUNTED FOR GAS -0.4%    THIS REPORT PREPARED BY:    ERIC GROOM   MUNICIPAL GAS AUTHORITY OF GEORGIA  104 TOWN PARK DRIVE  KENNESAW, GA 30144  (770) 590-1000    THIS REPORT COMPLIED FROM INFORMATION SUPPLIED BY:    WENZEL BRYANT & TOM CALHOUN"	ERIC GROOM	7705901000	4/5/2004	4/16/2004		
2003	20031146	"TIFTON, CITY OF"	19450	130 E. FIRST STREET	TIFTON	TIFT	GA	31793						 GA	0	0	0	117	0	0	0	0	0	0	117	0	0	0	4405	0	0	0	0	0	0	4405	0	66	37	14	0	0	117	0	0	0	0	0	0	0	0	0	0	0	0	0	0	0	0	0	0	0	0	0	0	0	0	0	0	0	0	0	0	0	0	0	0	0	0	0	0	0	0	0	0	0	0	0	0	0	0	0	0	0	0	0	0	0	0	0	66	37	14	0	0	117	80	0	4040	345	20	0	0	4405	0	0	0	0	0	0	0	0	0	0	0	0	0	0	0	0	0	0	0	0	0	0	0	0	0	0	0	0	0	0	0	0	0	0	0	0	0	0	0	0	0	0	0	0	0	0	0	0	0	0	0	0	0	0	0	0	0	4040	345	20	0	0	4405	0	0	0	0	0	0	0	0	0	0	0	22	0	0	0	"THIS REPORT PREPARED BY:    ERIC GROOM   MUNICIPAL GAS AUTHORITY OF GEORGIA  104 TOWN PARK DRIVE  KENNESAW, GA 30144  (770) 590-1000    THIS REPORT COMPLIED FROM INFORMATION SUPPLIED BY:    DELORIS HICKMAN & JASON GUESS, TIFTON NATURAL GAS DEPT."	ERIC GROOM	2293770821	4/5/2004	4/16/2004		
2003	20031147	EVERLY MUNICIPAL GAS	30039	202 N. MAIN ST BOX 197	EVERLY 	CLAY	IA	51338						 IA	0	0	0	5	2	0	0	0	0	0	7	0	0	0	285	61	0	0	0	0	0	346	0	4	1	0	0	0	5	0	0	0	0	0	0	0	0	0	0	0	0	0	0	0	0	0	0	0	0	0	0	0	0	0	0	0	0	0	2	0	0	0	0	2	0	0	0	0	0	0	0	0	0	0	0	0	0	0	0	0	0	0	0	0	0	0	6	1	0	0	0	7	50	0	275	10	0	0	0	285	0	0	0	0	0	0	0	0	0	0	0	0	0	0	0	0	0	0	0	0	0	0	0	0	0	0	0	0	0	60	1	0	0	0	61	0	0	0	0	0	0	0	0	0	0	0	0	0	0	0	0	0	0	0	0	0	0	335	11	0	0	0	346	0	0	0	0	0	0	0	0	0	0	0	0	0	0	0		BRUCE E. HARDEN	7128342691	4/5/2004	4/16/2004		
2003	20031148	"TEXAS KANSAS OKLAHOMA GAS, LLC"	31981	PO BOX 1194	DALHART	HARTLEY	TX	79022						 OK	0	0	0	0	22	0	0	0	0	0	22	0	0	0	0	21	0	0	0	0	0	21	0	0	0	0	0	0	0	0	0	0	0	0	0	0	0	0	0	0	0	0	0	0	0	0	0	0	0	0	0	0	0	0	0	0	0	0	7	15	0	0	0	22	0	0	0	0	0	0	0	0	0	0	0	0	0	0	0	0	0	0	0	0	0	0	7	15	0	0	0	22	0	0	0	0	0	0	0	0	0	0	0	0	0	0	0	0	0	0	0	0	0	0	0	0	0	0	0	0	0	0	0	0	0	0	0	0	0	20	1	0	0	0	21	0	0	0	0	0	0	0	0	0	0	0	0	0	0	0	0	0	0	0	0	0	0	20	1	0	0	0	21	0	0	0	0	0	0	0	0	0	0	0	0	0	0	1	NO LEAKS FOUND	VIRGINIA WRIGHT	8063334210	4/5/2004	5/24/2004		
2003	20031149	"BEAUMONT MUNICIPAL GAS, TOWN OF"	1224	1510 BEAUMONT BROOKLYN RD	BEAUMONT	PERRY	MS	39423						 MS	0	0	0	38	0	0	0	0	0	0	38	0	0	0	180	46	0	0	0	0	0	226	0	13	12	11	0	0	36	0	0	0	0	0	0	0	0	0	0	0	0	0	0	0	0	0	0	0	0	0	0	0	0	0	0	0	0	0	2	0	0	0	0	2	0	0	0	0	0	0	0	0	0	0	0	0	0	0	0	0	0	0	0	0	0	0	15	12	11	0	0	38	0	0	0	180	0	0	0	180	0	0	0	0	0	0	0	0	0	0	0	0	0	0	0	0	0	0	0	0	0	0	0	0	0	0	0	0	0	0	46	0	0	0	46	0	0	0	0	0	0	0	0	0	0	0	0	0	0	0	0	0	0	0	0	0	0	0	226	0	0	0	226	0	0	0	3	0	0	0	0	2	2	0	0	1	0	0.1		DARLENE COLLINS	6017843352	4/5/2004	4/16/2004		
2003	20031150	"YORK GAS DEPT, CITY OF"	24040	607 SECOND AVE	YORK	SUMTER	AL	36925	1022 EAST FOURTH AVE	YORK	SUMTER	AL	36925	 AL	0	0	0	23	12	6	0	0	0	0	41	0	0	0	75	683	5	0	0	54	0	817	0	0	12	11	0	0	23	0	0	0	0	0	0	0	0	0	0	0	0	0	0	0	3	3	0	0	0	6	0	0	0	0	0	0	0	0	9	3	0	0	0	12	0	0	0	0	0	0	0	0	0	0	0	0	0	0	0	0	0	0	0	0	0	0	12	18	11	0	0	41	125	0	75	0	0	0	0	75	0	0	0	0	0	0	0	0	0	0	0	0	0	0	0	0	0	0	0	0	0	0	0	0	5	0	0	5	0	672	11	0	0	0	683	0	0	0	0	0	0	0	0	54	0	0	0	0	54	0	0	0	0	0	0	0	0	801	11	5	0	0	817	0	0	0	0	0	0	0	0	0	0	0	0	0	0	0.9		"IRVIN STURDIVANT JR, UTILITY SUPERVISOR"	2053925231	4/5/2004	4/16/2004		
2003	20031151	NORTHWEST ALABAMA GAS DISTRICT	13820	310 2ND ST SW BOX 129	HAMILTON	MARION	AL	35570						 AL	0	0	0	375	881	27	0	0	0	0	1283	0	0	3220	3659	12224	0	0	0	0	0	19103	0	114	59	68	134	0	375	0	0	0	0	0	0	0	0	0	0	0	0	0	0	0	0	23	4	0	0	27	0	0	0	0	0	0	0	0	728	153	0	0	0	881	0	0	0	0	0	0	0	0	0	0	0	0	0	0	0	0	0	0	0	0	0	0	842	235	72	134	0	1283	400	0	6785	91	3	0	0	6879	0	0	0	0	0	0	0	0	0	0	0	0	0	0	0	0	0	0	0	0	0	0	0	0	0	0	0	0	0	11856	365	3	0	0	12224	0	0	0	0	0	0	0	0	0	0	0	0	0	0	0	0	0	0	0	0	0	0	18641	456	6	0	0	19103	5	9	0	3	14	60	7	1	7	4	0	0	0	0	1.7		JERY L. DAVIS	2059213106	4/8/2004	4/16/2004		
2003	20031152	BARROW UTILITIES & ELECTRIC CORP	1134	PO BOX 449 1295 AGVIK ST	BARROW		AK	99723						 AK	0	0	0	8	23	0	0	0	0	0	31	0	0	0	44	1220	0	0	0	0	0	1264	0	1	2	5	0	0	8	0	0	0	0	0	0	0	0	0	0	0	0	0	0	0	0	0	0	0	0	0	0	0	0	0	0	0	0	0	8	15	0	0	0	23	0	0	0	0	0	0	0	0	0	0	0	0	0	0	0	0	0	0	0	0	0	0	9	17	5	0	0	31	60	0	43	1	0	0	0	44	0	0	0	0	0	0	0	0	0	0	0	0	0	0	0	0	0	0	0	0	0	0	0	0	0	0	0	0	0	1207	13	0	0	0	1220	0	0	0	0	0	0	0	0	0	0	0	0	0	0	0	0	0	0	0	0	0	0	1250	14	0	0	0	1264	0	0	0	0	0	2	0	1	0	0	0	0	0	0	2.2		ALLEN NESTEBY	9078526166	4/12/2004	4/16/2004		
2003	20031153	"READING, CITY OF"	17110	BOX 7 413 FIRST STREET	READING	LYON	KS	66868						 KS	0	0	0	4	0	0	0	0	0	0	4	0	0	0	119	0	0	0	0	0	0	119	0	3	1	0	0	0	4	0	0	0	0	0	0	0	0	0	0	0	0	0	0	0	0	0	0	0	0	0	0	0	0	0	0	0	0	0	0	0	0	0	0	0	0	0	0	0	0	0	0	0	0	0	0	0	0	0	0	0	0	0	0	0	0	0	3	1	0	0	0	4	0	0	119	0	0	0	0	119	0	0	0	0	0	0	0	0	0	0	0	0	0	0	0	0	0	0	0	0	0	0	0	0	0	0	0	0	0	0	0	0	0	0	0	0	0	0	0	0	0	0	0	0	0	0	0	0	0	0	0	0	0	0	0	0	0	119	0	0	0	0	119	0	0	0	0	0	0	0	0	0	0	0	0	0	0	0		HELEN LAWRENCE	6206993870	4/12/2004	4/19/2004		
2003	20031154	WEST TEXAS GAS INC	22435	211 NORTH COLORADO	MIDLAND	MIDLAND	TX	79701						 TX OK	0	0	0	1177	3365	0	0	0	0	0	4542	0	0	0	18080	11341	0	0	0	0	0	29421	0	369	645	163	0	0	1177	0	0	0	0	0	0	0	0	0	0	0	0	0	0	0	0	0	0	0	0	0	0	1286	696	0	0	0	1982	0	564	309	8	0	0	881	0	408	94	0	0	0	502	0	0	0	0	0	0	0	0	0	0	0	0	0	0	0	2627	1744	171	0	0	4542	100	0	16072	2001	7	0	0	18080	0	0	0	0	0	0	0	0	0	0	0	0	0	0	0	0	0	0	0	0	0	0	3312	444	6	0	0	3762	0	5706	693	7	0	0	6406	0	0	0	0	0	0	0	0	1165	8	0	0	0	1173	0	0	0	0	0	0	0	0	26255	3146	20	0	0	29421	64	28	87	5	40	61	50	8	125	13	17	1	126	0	2.4		RICHARD D. HATCHETT	4326824349	4/12/2004	4/19/2004		
2003	20031155	PACIFIC GAS & ELECTRIC CO	15007	BOX 770000 MAIL CODE H11H	SAN FRANCISCO		CA	94177						 CA	433	0	0	20702	18106	269	0	0	0	0	39510	30872	0	0	1212190	1792576	0	0	79510	0	0	3115148	0	12725	5099	2569	397	344	21134	0	0	0	0	0	0	0	0	0	0	0	0	0	0	0	1	163	79	19	8	270	0	0	0	0	0	0	0	0	14392	3332	378	4	0	18106	0	0	0	0	0	0	0	0	0	0	0	0	0	0	0	0	0	0	0	0	0	0	27118	8594	3026	420	352	39510	55	0	1160486	77580	4432	560	4	1243062	0	0	0	0	0	0	0	0	79402	108	0	0	0	79510	0	0	0	0	0	0	0	0	0	0	0	0	0	0	0	1759672	31928	786	190	0	1792576	0	0	0	0	0	0	0	0	0	0	0	0	0	0	0	0	0	0	0	0	0	0	2999560	109616	5218	750	4	3115148	339	1446	28	115	742	2753	221	1058	104	393	277	765	2093	5	3.8	NOTE: THE TOTALS MAY BE OFF DUE TO ROUNDING OF DECIMALS.	WILLIAM L. JEONG	4159731504	4/12/2004	4/19/2004		
2003	20031156	CHICKASAWHAY NATURAL GAS DIST	2336	178 EUCUTTA STREET	SHUBUTA	CLARKE	MS	39360						 MS	0	0	0	167	18	0	0	0	0	0	185	0	0	0	4422	279	0	0	0	0	0	4701	0	117	3	47	0	0	167	0	0	0	0	0	0	0	0	0	0	0	0	0	0	0	0	0	0	0	0	0	0	0	0	0	0	0	0	0	12	6	0	0	0	18	0	0	0	0	0	0	0	0	0	0	0	0	0	0	0	0	0	0	0	0	0	0	129	9	47	0	0	185	21	0	4393	29	0	0	0	4422	0	0	0	0	0	0	0	0	0	0	0	0	0	0	0	0	0	0	0	0	0	0	0	0	0	0	0	0	0	279	0	0	0	0	279	0	0	0	0	0	0	0	0	0	0	0	0	0	0	0	0	0	0	0	0	0	0	4672	29	0	0	0	4701	0	1	4	3	0	0	0	0	0	1	0	0	0	0	3.9		RANDY FLEMING	6016871544	4/12/2004	4/19/2004		
2003	20031157	ROCKWOOD NATURAL GAS SYSTEM	17600	110 N CHAMBERLAIN AVE	ROCKWOOD	ROANS	TN	37854						 TN	0	0	0	57	64	0	0	0	0	0	121	0	0	0	1321	1759	0	0	0	0	0	3080	0	26	7	24	0	0	57	0	0	0	0	0	0	0	0	0	0	0	0	0	0	0	0	0	0	0	0	0	0	0	0	0	0	0	0	0	45	17	3	0	0	65	0	0	0	0	0	0	0	0	0	0	0	0	0	0	0	0	0	0	0	0	0	0	71	24	27	0	0	122	192	0	1321	5	3	3	0	1332	0	0	0	0	0	0	0	0	0	0	0	0	0	0	0	0	0	0	0	0	0	0	0	0	0	0	0	0	0	1759	4	0	0	0	1763	0	0	0	0	0	0	0	0	0	0	0	0	0	0	0	0	0	0	0	0	0	0	3080	9	3	3	0	3095	0	0	0	0	1	3	0	0	0	4	2	54	0	0	8		ROD KING	8653540163	4/12/2004	4/19/2004		
2003	20031158	CENTRAL VALLEY AG COOPERATIVE	31414	"PO BOX 330, 415 E HWY 20"	ONEILL	HOLT	NE	68763						 NE	0	0	0	0	11	0	0	0	0	0	11	0	0	0	0	14	0	0	0	0	0	14	0	0	0	0	0	0	0	0	0	0	0	0	0	0	0	0	0	0	0	0	0	0	0	0	0	0	0	0	0	0	0	0	0	0	0	0	3	8	0	0	0	11	0	0	0	0	0	0	0	0	0	0	0	0	0	0	0	0	0	0	0	0	0	0	3	8	0	0	0	11	0	0	0	0	0	0	0	0	0	0	0	0	0	0	0	0	0	0	0	0	0	0	0	0	0	0	0	0	0	0	0	0	0	0	0	0	0	0	12	2	0	0	14	0	0	0	0	0	0	0	0	0	0	0	0	0	0	0	0	0	0	0	0	0	0	0	12	2	0	0	14	0	0	0	0	0	0	0	0	0	0	0	0	5	0	0.3		WARREN HULL	4023361263	3/15/2004	9/10/2004		
2003	20031159	"WISNER, CITY OF"	22769	1111 AVE E PO BOX 367	WISNER	CUMING	NE	68791						 NE	0	0	0	6	4	0	0	0	0	0	10	0	0	0	322	194	0	0	0	0	0	516	0	6	1	0	0	0	7	0	0	0	0	0	0	0	0	0	0	0	0	0	0	0	0	0	0	0	0	0	0	0	0	0	0	0	0	0	3	0	0	0	0	3	0	0	0	0	0	0	0	0	0	0	0	0	0	0	0	0	0	0	0	0	0	0	9	1	0	0	0	10	88	0	315	7	0	0	0	322	0	0	0	0	0	0	0	0	0	0	0	0	0	0	0	0	0	0	0	0	0	0	0	0	0	0	0	0	0	187	7	0	0	0	194	0	0	0	0	0	0	0	0	0	0	0	0	0	0	0	0	0	0	0	0	0	0	502	14	0	0	0	516	0	0	0	0	0	0	0	0	0	0	0	0	0	0	0	NUMBER OF KNOWN SYSTEM LEAKS AT END OF YEAR SCHEDULED FOR REPAIR 1 GRADE 3	RANDY WOLDT	4025293383	3/15/2004	4/19/2004		
2003	20031160	STUART GAS CO	893	109 W 2ND ST BOX 177	STUART 	HOLT	NE	68780						 NE	0	0	0	7	0	0	0	0	0	0	7	0	0	0	285	0	0	0	0	0	0	285	0	5	2	0	0	0	7	0	0	0	0	0	0	0	0	0	0	0	0	0	0	0	0	0	0	0	0	0	0	0	0	0	0	0	0	0	0	0	0	0	0	0	0	0	0	0	0	0	0	0	0	0	0	0	0	0	0	0	0	0	0	0	0	0	5	2	0	0	0	7	20	0	272	11	2	0	0	285	0	0	0	0	0	0	0	0	0	0	0	0	0	0	0	0	0	0	0	0	0	0	0	0	0	0	0	0	0	0	0	0	0	0	0	0	0	0	0	0	0	0	0	0	0	0	0	0	0	0	0	0	0	0	0	0	0	272	11	2	0	0	285	0	0	0	0	0	4	0	0	0	0	0	0	0	0	0		CHRISTOPHER KEOGH	4029243977	3/15/2004	4/19/2004		
2003	20031161	METROPOLITAN UTILITIES DISTRICT	12390	3100 S. 61ST AVENUE	OMAHA	DOUGLAS	NE	68106	1723 HARNEY STREET	OMAHA	DOUGLAS	NE	68102	 NE	0	0	24	1098	675	582	10	0	1	0	2390	0	0	0	58810	58592	12	0	14673	25622	10782	168491	0	622	241	130	65	64	1122	0	0	0	10	0	0	10	0	0	0	0	0	0	0	0	0	402	127	40	13	582	0	0	0	0	0	0	0	0	519	140	16	0	0	675	0	0	0	0	0	0	0	0	1	0	0	0	0	1	0	0	0	0	0	0	0	0	1142	783	283	105	77	2390	88	0	31311	27083	388	28	0	58810	0	0	0	0	0	0	0	0	14673	0	0	0	0	14673	0	0	0	7	5	0	12	0	0	0	0	0	0	0	0	49915	8542	135	0	0	58592	0	0	0	0	0	0	0	0	6079	19543	0	0	0	25622	0	7706	3076	0	0	0	10782	0	109684	58244	530	33	0	168491	43	562	111	677	62	145	5	321	11	357	261	676	1189	0	0.12	(1) THE MAJORITY OF THESE LEAKS ARE CAST IRON JOINT LEAKS OPERATING AT 0.25 PSI.    (2) THE MAJORITY OF THESE LEAKS ARE THREADED FITTINGS AT METER SETS.	SUSAN M. GRANT	4025547729	3/15/2004	4/19/2004		
2003	20031162	"ALMA NATURAL  GAS SYSTEMS, CITY OF"	342	614 MAIN ST PO BOX 468	ALMA	HARLAN	NE	68920						 NE	0	0	1	4	9	0	0	0	0	0	14	0	0	218	305	72	0	0	0	0	0	595	0	4	1	0	0	0	5	0	0	0	0	0	0	0	0	0	0	0	0	0	0	0	0	0	0	0	0	0	0	6	0	0	0	0	6	0	3	0	0	0	0	3	0	0	0	0	0	0	0	0	0	0	0	0	0	0	0	0	0	0	0	0	0	0	13	1	0	0	0	14	15	0	0	523	0	0	0	523	0	0	0	0	0	0	0	0	0	0	0	0	0	0	0	0	0	0	0	0	0	0	0	0	0	0	0	0	0	0	72	0	0	0	72	0	0	0	0	0	0	0	0	0	0	0	0	0	0	0	0	0	0	0	0	0	0	0	595	0	0	0	595	0	1	0	0	1	0	0	0	1	4	1	0	2	0	0		RUSSELL PFEIL & NEIL MOLZAHN	3089283144	3/15/2004	4/19/2004		
2003	20031163	"PENDER MUNICIPAL GAS DEPT, VILLAGE OF"	15217	205 N 3RD STREET	PENDER	THURSTON	NE	68047						 NE	0	0	0	10	1	0	0	0	0	0	11	0	0	0	139	436	0	0	0	0	0	575	0	7	3	0	0	0	10	0	0	0	0	0	0	0	0	0	0	0	0	0	0	0	0	0	0	0	0	0	0	0	0	0	0	0	0	0	1	0	0	0	0	1	0	0	0	0	0	0	0	0	0	0	0	0	0	0	0	0	0	0	0	0	0	0	8	3	0	0	0	11	70	0	128	11	0	0	0	139	0	0	0	0	0	0	0	0	0	0	0	0	0	0	0	0	0	0	0	0	0	0	0	0	0	0	0	0	0	429	7	0	0	0	436	0	0	0	0	0	0	0	0	0	0	0	0	0	0	0	0	0	0	0	0	0	0	557	18	0	0	0	575	0	0	0	0	0	0	0	0	0	0	0	0	0	0	0		FRANK FENDRICK	4023853121	3/15/2004	4/19/2004		
2003	20031164	CENTRAL CITY GAS SYSTEM DEPT	2180	1515 17TH AVENUE	CENTRAL CITY	MERRICK	NE	68826						 NE	0	0	0	29	6	0	0	0	0	0	35	0	0	0	1033	279	0	0	0	0	0	1312	0	24	4	1	0	0	29	0	0	0	0	0	0	0	0	0	0	0	0	0	0	0	0	0	0	0	0	0	0	0	0	0	0	0	0	0	6	0	0	0	0	6	0	0	0	0	0	0	0	0	0	0	0	0	0	0	0	0	0	0	0	0	0	0	30	4	1	0	0	35	50	0	837	196	0	0	0	1033	0	0	0	0	0	0	0	0	0	0	0	0	0	0	0	0	0	0	0	0	0	0	0	0	0	0	0	0	0	248	31	0	0	0	279	0	0	0	0	0	0	0	0	0	0	0	0	0	0	0	0	0	0	0	0	0	0	1085	227	0	0	0	1312	1	2	0	0	0	0	2	0	0	0	0	0	17	0	0		BRAD L. WELLS	3089463516	3/15/2004	4/19/2004		
2003	20031165	"SUPERIOR UTILITIES, CITY OF"	18799	333 S. CENTRAL	SUPERIOR	NUCKOLLS	NE	68978	135 W 4TH ST BOX 160	SUPERIOR	NUCKOLLS	NE	68978	 NE	0	0	14	4	5	0	0	0	0	0	23	302	39	176	280	413	0	0	0	0	0	1210	0	13	3	2	0	0	18	0	0	0	0	0	0	0	0	0	0	0	0	0	0	0	0	0	0	0	0	0	0	0	0	0	0	0	0	0	3	2	0	0	0	5	0	0	0	0	0	0	0	0	0	0	0	0	0	0	0	0	0	0	0	0	0	0	16	5	2	0	0	23	35	0	184	613	2	0	0	799	0	0	0	0	0	0	0	0	0	0	0	0	0	0	0	0	0	0	0	0	0	0	0	0	0	0	0	0	0	401	9	1	0	0	411	0	0	0	0	0	0	0	0	0	0	0	0	0	0	0	0	0	0	0	0	0	0	585	622	3	0	0	1210	0	2	0	0	0	1	0	0	0	0	2	2	13	0	1.9		LARRY SIBERT	4028794750	3/15/2004	4/19/2004		
2003	20031166	NEBRASKA CITY UTILITIES	13180	100 CENTRAL AVENUE	NEBRASKA CITY	OTOE	NE	68410						 NE	0	0	0	58	62	1	0	0	0	0	121	0	0	0	137	3577	0	0	632	0	0	4346	0	30	23	5	0	0	58	0	0	0	0	0	0	0	0	0	0	0	0	0	0	0	0	0	1	0	0	1	0	0	0	0	0	0	0	0	50	12	0	0	0	62	0	0	0	0	0	0	0	0	0	0	0	0	0	0	0	0	0	0	0	0	0	0	80	35	6	0	0	121	80	0	125	12	0	0	0	137	0	0	0	0	0	0	0	0	632	0	0	0	0	632	0	0	0	0	0	0	0	0	0	0	0	0	0	0	0	3557	20	0	0	0	3577	0	0	0	0	0	0	0	0	0	0	0	0	0	0	0	0	0	0	0	0	0	0	4314	32	0	0	0	4346	1	5	0	2	0	2	0	1	0	8	0	17	0	0	0		TOM LANT	4028733353	3/15/2004	4/19/2004		
2003	20031167	ARKANSAS WESTERN GAS CO	630	1001 SAIN ST BOX 13288	FAYETTEVILLE	WASHINGTON	AR	72703						 AR	447	37	7	869	2013	0	0	0	0	0	3373	10570	787	530	32100	82426	0	0	0	0	0	126413	0	1111	179	70	0	0	1360	0	0	0	0	0	0	0	0	0	0	0	0	0	0	0	0	0	0	0	0	0	0	0	0	0	0	0	0	0	1811	196	6	0	0	2013	0	0	0	0	0	0	0	0	0	0	0	0	0	0	0	0	0	0	0	0	0	0	2922	375	76	0	0	3373	21	0	39690	4266	31	0	0	43987	0	0	0	0	0	0	0	0	0	0	0	0	0	0	0	0	0	0	0	0	0	0	0	0	0	0	0	0	0	75502	6843	81	0	0	82426	0	0	0	0	0	0	0	0	0	0	0	0	0	0	0	0	0	0	0	0	0	0	115192	11109	112	0	0	126413	114	26	15	17	0	0	15	19	18	32	19	42	9	0	0.8		CHARLES A. BAYLES	4795828214	3/15/2004	4/19/2004		
2003	20031168	"AUGUSTA LIGHT WATER & GAS, CITY OF"	873	114 SO. 2ND	AUGUSTA	WOODRUFF	AR	72006						 AR	0	0	0	25	5	0	0	0	0	0	30	0	0	0	839	75	0	0	0	0	0	914	0	9	4	12	0	0	25	0	0	0	0	0	0	0	0	0	0	0	0	0	0	0	0	0	0	0	0	0	0	0	0	0	0	0	0	0	0	5	0	0	0	5	0	0	0	0	0	0	0	0	0	0	0	0	0	0	0	0	0	0	0	0	0	0	9	9	12	0	0	30	60	0	866	0	0	0	0	866	0	0	0	0	0	0	0	0	0	0	0	0	0	0	0	0	0	0	0	0	0	0	0	0	0	0	0	0	0	75	0	0	0	0	75	0	0	0	0	0	0	0	0	0	0	0	0	0	0	0	0	0	0	0	0	0	0	941	0	0	0	0	941	0	0	0	0	0	0	0	0	0	0	0	0	0	0	11.1		RONALD STRACNER	8703472041	3/15/2004	4/19/2004		
2003	20031169	DEVALLS BLUFF GAS SYSTEM	3339	PO BOX 297	DE VALLS BLUFF	PRAIRIE	AR	72041						 AR	0	0	0	0	16	0	0	0	0	0	16	0	0	0	0	272	0	0	0	0	0	272	0	0	0	0	0	0	0	0	0	0	0	0	0	0	0	0	0	0	0	0	0	0	0	0	0	0	0	0	0	0	0	0	0	0	0	0	9	7	0	0	0	16	0	0	0	0	0	0	0	0	0	0	0	0	0	0	0	0	0	0	0	0	0	0	9	7	0	0	0	16	0	0	0	0	0	0	0	0	0	0	0	0	0	0	0	0	0	0	0	0	0	0	0	0	0	0	0	0	0	0	0	0	0	0	0	0	0	268	4	0	0	0	272	0	0	0	0	0	0	0	0	0	0	0	0	0	0	0	0	0	0	0	0	0	0	268	4	0	0	0	272	0	0	0	0	0	0	0	0	0	0	0	0	0	0	2.85		BEDFORD B. CASTLEBERRY	8709982301	3/15/2004	4/19/2004		
2003	20031170	GEORGIA PACIFIC CORP	6345	100 MILL SUPPLY ROAD	CROSSETT	ASHLEY	AR	71635	133 PEACHTREE N.E.	ATLANTA	FULTON	GA	30303	 AR	0	0	0	2	0	0	0	0	0	0	2	0	0	0	7	0	0	0	0	0	0	7	0	0	0	0	0	2	2	0	0	0	0	0	0	0	0	0	0	0	0	0	0	0	0	0	0	0	0	0	0	0	0	0	0	0	0	0	0	0	0	0	0	0	0	0	0	0	0	0	0	0	0	0	0	0	0	0	0	0	0	0	0	0	0	0	0	0	0	0	2	2	300	0	0	2	3	2	0	7	0	0	0	0	0	0	0	0	0	0	0	0	0	0	0	0	0	0	0	0	0	0	0	0	0	0	0	0	0	0	0	0	0	0	0	0	0	0	0	0	0	0	0	0	0	0	0	0	0	0	0	0	0	0	0	0	0	0	2	3	2	0	7	0	0	0	0	0	0	0	0	0	0	0	0	0	0	0		"KEN CRAVEN, P.E."	8705678181	3/15/2004	4/19/2004		
2003	20031171	HAZEN NATURAL GAS CO	7190	PO BOX 564 108 W FRONT ST	HAZEN	PRAIRIE	AR	72064						 AR	0	0	1	24	13	0	0	0	0	0	38	0	0	0	252	263	0	0	0	3	0	518	0	10	15	0	0	0	25	0	0	0	0	0	0	0	0	0	0	0	0	0	0	0	0	0	0	0	0	0	0	2	0	0	0	0	2	0	7	3	0	0	0	10	0	1	0	0	0	0	1	0	0	0	0	0	0	0	0	0	0	0	0	0	0	0	20	18	0	0	0	38	0	4	243	5	0	0	0	252	0	0	0	0	0	0	0	0	0	0	0	0	0	0	0	0	0	0	0	0	0	7	13	3	0	0	0	23	9	208	1	0	0	0	218	7	14	0	0	0	0	21	4	0	0	0	0	0	4	0	0	0	0	0	0	0	31	478	9	0	0	0	518	0	3	0	0	0	2	0	0	0	0	3	13	0	0	7.13		"BECKY SAYGER, UTILITIES ASST."	8702554521	3/15/2004	4/19/2004		
2003	20031172	NORTH CROSSETT UTILITIES	13610	PO BOX 576	CROSSETT	ASHLEY	AR	71635						AR	0	0	0	27	2	0	0	0	0	0	29	0	0	0	1062	297	0	0	0	0	0	1359	0	24	3	0	0	0	27	0	0	0	0	0	0	0	0	0	0	0	0	0	0	0	0	0	0	0	0	0	0	0	0	0	0	0	0	0	2	0	0	0	0	2	0	0	0	0	0	0	0	0	0	0	0	0	0	0	0	0	0	0	0	0	0	0	26	3	0	0	0	29	0	0	1062	3	0	0	0	1065	0	0	0	0	0	0	0	0	0	0	0	0	0	0	0	0	0	0	0	0	0	0	0	0	0	0	0	0	0	297	6	0	0	0	303	0	0	0	0	0	0	0	0	0	0	0	0	0	0	0	0	0	0	0	0	0	0	1359	9	0	0	0	1368	0	1	0	0	1	2	0	0	0	12	0	0	3	0	7		JEFF RUSSEL MANAGER	8703642188	3/15/2004	12/17/2004		
2003	20031173	EASTERN NEW MEXICO NATURAL GAS ASSOCIATION	4120	528 E. MAIN AVENUE	FORT SUMNER	DE BACA COUNTY	NM	88119						 NM	0	0	0	165	26	0	0	0	0	0	191	0	0	0	806	448	0	0	0	0	0	1254	0	104	61	0	0	0	165	0	0	0	0	0	0	0	0	0	0	0	0	0	0	0	0	0	0	0	0	0	0	13	9	0	0	0	22	0	4	0	0	0	0	4	0	0	0	0	0	0	0	0	0	0	0	0	0	0	0	0	0	0	0	0	0	0	121	70	0	0	0	191	100	0	756	50	0	0	0	806	0	0	0	0	0	0	0	0	0	0	0	0	0	0	0	0	0	0	0	0	0	0	161	15	0	0	0	176	0	240	32	0	0	0	272	0	0	0	0	0	0	0	0	0	0	0	0	0	0	0	0	0	0	0	0	0	0	1157	97	0	0	0	1254	0	0	0	0	0	4	0	0	0	0	0	0	4	0	5		GEORGE SENA	5053552468	3/23/2004	4/19/2004		
2003	20031174	CENTERPOINT ENERGY MINNEGASCO	12350	"PO BOX 1165, 700 W LINDEN"	MINNESOTA	HENNEPIN	MN	55440						 MN	633	0	1	3948	7509	99	0	0	0	0	12190	10521	8809	89	66184	603177	0	0	27033	0	0	715813	0	1967	1620	786	125	84	4582	0	0	0	0	0	0	0	0	0	0	0	0	0	0	0	0	5	63	14	17	99	0	19	0	0	0	0	19	0	5594	1685	211	0	0	7490	0	0	0	0	0	0	0	0	0	0	0	0	0	0	0	0	0	0	0	0	0	0	7580	3310	1060	139	101	12190	83	2794	68000	13551	1166	91	1	85603	0	0	0	0	0	0	0	0	23708	3325	0	0	0	27033	0	0	0	0	0	0	0	0	0	0	0	0	0	0	0	572389	30166	610	12	0	603177	0	0	0	0	0	0	0	0	0	0	0	0	0	0	0	0	0	0	0	0	0	2794	664097	47042	1776	103	1	715813	132	553	111	982	221	985	28	320	154	838	0	0	34	0	0.64		"THOMAS L LEVESQUE, SUPERVISOR-ENGINEERING SYSTEMS"	6123215347	3/22/2004	7/20/2004		
2003	20031175	ALLIANT ENERGY - INTERSTATE POWER CO	8170	BOX 77007 4902 N BILTMOR 	MADISON 	DANE	WI	53707	ATTN: ROSANNE ROGERS LATS					 IA	0	0	0	2294	2293	0	0	0	0	0	4587	0	0	0	80216	127229	0	0	0	0	0	207445	0	1328	805	143	15	3	2294	0	0	0	0	0	0	0	0	0	0	0	0	0	0	0	0	0	0	0	0	0	0	0	0	0	0	0	0	0	1667	480	146	0	0	2293	0	0	0	0	0	0	0	0	0	0	0	0	0	0	0	0	0	0	0	0	0	0	2995	1285	289	15	3	4587	80	0	72564	7516	117	19	0	80216	0	0	0	0	0	0	0	0	0	0	0	0	0	0	0	0	0	0	0	0	0	0	0	0	0	0	0	0	0	124333	2813	78	5	0	127229	0	0	0	0	0	0	0	0	0	0	0	0	0	0	0	0	0	0	0	0	0	0	196897	10329	195	24	0	207445	5	112	13	39	40	178	3	118	18	517	33	586	629	0	0	UNACCOUNTED FOR GAS -1.8%    MILEAGE DUE TO SOME OF THE MILES OF DISTRIBUTION WERE DEFINED AS TRANSMISSION PPELINES AND INCLUDED ON THE ANNUAL TRANSMISSION REPORT.	"ROSANNE ROGERS LATSCH, P.E."	6084585540	3/22/2004	4/27/2004		
2003	20031176	ALLIANT ENERGY - INTERSTATE POWER CO	8170	BOX 77007 4902 N BILTMORE	MADISON	DANE	WI	53707	ATTN: ROSANNE ROGERS LATS					 IL	0	0	0	87	64	0	0	0	0	0	151	0	0	0	1820	3893	0	0	0	0	0	5713	0	62	25	0	0	0	87	0	0	0	0	0	0	0	0	0	0	0	0	0	0	0	0	0	0	0	0	0	0	0	0	0	0	0	0	0	43	6	15	0	0	64	0	0	0	0	0	0	0	0	0	0	0	0	0	0	0	0	0	0	0	0	0	0	105	31	15	0	0	151	100	0	1781	39	0	0	0	1820	0	0	0	0	0	0	0	0	0	0	0	0	0	0	0	0	0	0	0	0	0	0	0	0	0	0	0	0	0	3846	46	1	0	0	3893	0	0	0	0	0	0	0	0	0	0	0	0	0	0	0	0	0	0	0	0	0	0	5627	85	1	0	0	5713	0	0	0	0	2	5	0	0	1	23	1	5	1	0	0	UNACCOUNTED FOR GAS -0.8%	"ROSANNE ROGERS LATSCH, P.E."	6084585540	3/22/2004	4/27/2004		
2003	20031177	ALLIANT ENERGY - INTERSTATE POWER CO	8170	BOX 77007 4902 N BILTMORE	MADISON	DANE COUNTY	WI	53707	ATTN:ROSANNE ROGERS LATSC					 MN	0	0	0	67	159	0	0	0	0	0	226	0	0	0	1624	8605	0	0	0	0	0	10229	0	3	55	7	1	1	67	0	0	0	0	0	0	0	0	0	0	0	0	0	0	0	0	0	0	0	0	0	0	0	0	0	0	0	0	0	112	30	17	0	0	159	0	0	0	0	0	0	0	0	0	0	0	0	0	0	0	0	0	0	0	0	0	0	115	85	24	1	1	226	75	0	1037	576	11	0	0	1624	0	0	0	0	0	0	0	0	0	0	0	0	0	0	0	0	0	0	0	0	0	0	0	0	0	0	0	0	0	8356	246	3	0	0	8605	0	0	0	0	0	0	0	0	0	0	0	0	0	0	0	0	0	0	0	0	0	0	9393	822	14	0	0	10229	0	0	0	0	2	5	0	0	1	23	1	5	8	0	0	UNACCOUNTED FOR GAS -0.8%    UMBER OF SERVICES DECREASED DUE TO NEW COMPUTER SYSTEMS.  NUMBERS IN THE PAST USED AVERAGE FOOTAGE.  2003 NUMBERS ARE BASED OFF THE NUMBER OF SERVICES MAPPED IN THE GIS MAPPING SYSTEM.	"ROSANNE ROGERS LATSCH, P.E."	6084585540	3/22/2004	4/19/2004		
2003	20031178	ALLIANT ENERGY - SOUTH BELOIT WATER GAS & ELECTRIC CO	18400	"PO BOX 77007, 4902 N BILT"	MADISON	DANE	WI	53707						IL	0	0	0	64	93	0	0	0	0	0	157	0	0	0	1594	5068	0	0	0	0	0	6662	0	29	23	12	0	0	64	0	0	0	0	0	0	0	0	0	0	0	0	0	0	0	0	0	0	0	0	0	0	0	0	0	0	0	0	0	53	39	1	0	0	93	0	0	0	0	0	0	0	0	0	0	0	0	0	0	0	0	0	0	0	0	0	0	82	62	13	0	0	157	75	0	1513	75	6	0	0	1594	0	0	0	0	0	0	0	0	0	0	0	0	0	0	0	0	0	0	0	0	0	0	0	0	0	0	0	0	0	5044	23	1	0	0	5068	0	0	0	0	0	0	0	0	0	0	0	0	0	0	0	0	0	0	0	0	0	0	6557	98	7	0	0	6662	0	2	0	15	2	4	2	16	0	46	0	0	0	0	0	THERE IS A CHANGE IN SERVICES DUE TO A CHANGE IN COMPUTER SYSTEMS.  LAST YEAR THE SERVICES WERE CALCULATED BY TOTAL FOOTAGE OF SERVICES DIVIDED BY AN AVERAGE LENGTH OF SERVICE.  2003 NUMBERS ARE RETRIEVED FROM THE GIS COMPUTER MAPPING SYSTEM AND IS THE COUNT OF SERVICES MAPPED.	ROSANNE ROGERS LATSCH	6082525540	3/22/2004	12/27/2004		
2003	20031179	ALLIANT ENERGY - WISCONSIN POWER & LIGHT CO	22784	BOX 77007 4902 N BILTMORE	MADISON 	DANE COUNTY	WI	53707	ATTN:ROSANNE ROGERS LATSC					 WI	0	0	0	1651	1962	0	0	0	0	0	3613	0	0	0	42659	104637	0	0	0	0	0	147296	0	719	508	370	54	0	1651	0	0	0	0	0	0	0	0	0	0	0	0	0	0	0	0	0	0	0	0	0	0	0	0	0	0	0	0	0	1229	699	34	0	0	1962	0	0	0	0	0	0	0	0	0	0	0	0	0	0	0	0	0	0	0	0	0	0	1948	1207	404	54	0	3613	75	0	37816	4701	121	20	1	42659	0	0	0	0	0	0	0	0	0	0	0	0	0	0	0	0	0	0	0	0	0	0	0	0	0	0	0	0	0	104042	553	42	0	0	104637	0	0	0	0	0	0	0	0	0	0	0	0	0	0	0	0	0	0	0	0	0	0	141858	5254	163	20	1	147296	6	61	13	244	23	116	8	373	22	1005	2	2	71	0	0.73	THE NUMBER OF SERVICES HAS CHANGED DUE TO CHANGE IN COMPUTER SYSTEMS.  LAST YEAR'S NUMBERS WERE THE TOTAL FOOTAGE OF SERVICES DIVIDED BY AN AVERAGE LENGTH PER SERVICE.  THIS YEAR'S NUMBERS ARE THE NUMBER OF SERVICES MAPPED IN THE GIS COMPUTER MAPPING SYSTEM.	"ROSANNE ROGERS LATSCH, P.E."	6084585540	3/22/2004	4/19/2004		
2003	20031180	FILLMORE GAS CO INC	5160	10577 RTE 19 BOX 181	FILLMORE	ALLEGANY	NY	14735						 NY	7	0	0	0	37	0	0	0	0	0	44	539	0	0	0	719	0	0	0	0	0	1258	0	0	8	0	0	0	8	0	0	0	0	0	0	0	0	0	0	0	0	0	0	0	0	0	0	0	0	0	0	0	0	0	0	0	0	0	31	5	0	0	0	36	0	0	0	0	0	0	0	0	0	0	0	0	0	0	0	0	0	0	0	0	0	0	31	13	0	0	0	44	0	0	517	9	0	0	0	526	0	0	0	0	0	0	0	0	0	0	0	0	0	0	0	0	0	0	0	0	0	0	0	0	0	0	0	0	0	703	29	0	0	0	732	0	0	0	0	0	0	0	0	0	0	0	0	0	0	0	0	0	0	0	0	0	0	1220	38	0	0	0	1258	0	0	3	0	0	0	0	0	0	5	0	0	0	0	3		MARTHA BOWER	5855672272	3/22/2004	4/19/2004		
2003	20031181	"ROCKY MOUNT MUNICIPAL SYSTEM, CITY OF"	17610	628 ALBEMARLE AVENUE	ROCKY MOUNT	EDGE/NASA	NC	27801						 NC	0	0	0	118	284	23	0	0	3	0	428	0	0	0	1312	16224	2	0	0	3	0	17541	0	74	12	29	3	0	118	0	0	0	0	0	0	0	0	0	0	0	0	0	0	0	0	14	8	1	0	23	0	0	0	0	0	0	0	0	209	20	47	8	0	284	0	0	0	0	0	0	0	0	0	0	0	0	0	0	0	3	0	0	0	0	3	0	286	46	84	12	0	428	100	0	1080	0	214	18	0	1312	0	0	0	0	0	0	0	0	0	0	0	0	0	0	0	0	0	0	2	0	2	0	0	0	0	0	0	0	0	14799	1419	4	1	1	16224	0	0	0	0	0	0	0	0	0	0	0	0	0	0	0	0	3	0	0	0	3	0	15879	1422	218	21	1	17541	2	5	0	3	19	63	2	18	6	16	0	1	5	0	4.2		WILLIAM M. GRIFFIN	2529721505	3/22/2004	4/19/2004		
2003	20031182	CROCKETT PUBLIC UTIL DIST	2880	82 N BELLS STREET	ALAMO	CROCKET	TN	38001						 TN	0	0	0	24	10	0	0	0	0	0	34	0	0	0	913	270	0	0	0	0	0	1183	0	14	10	0	0	0	24	0	0	0	0	0	0	0	0	0	0	0	0	0	0	0	0	0	0	0	0	0	0	0	0	0	0	0	0	0	9	1	0	0	0	10	0	0	0	0	0	0	0	0	0	0	0	0	0	0	0	0	0	0	0	0	0	0	23	11	0	0	0	34	65	0	888	25	0	0	0	913	0	0	0	0	0	0	0	0	0	0	0	0	0	0	0	0	0	0	0	0	0	0	0	0	0	0	0	0	0	269	1	0	0	0	270	0	0	0	0	0	0	0	0	0	0	0	0	0	0	0	0	0	0	0	0	0	0	1157	26	0	0	0	1183	0	1	0	0	0	0	1	1	0	0	0	0	0	0	1		CHARLOTTE WEAVER	7316964149	3/22/2004	4/19/2004		
2003	20031183	NEW HAMPSHIRE GAS CORP 	31265	32 CENTRAL SQUARE	KEENE	CHESHIRE	NH	3431						 NH	0	1	0	2	5	18	0	0	0	0	26	2	7	0	26	501	231	0	0	0	0	767	0	0	1	2	0	0	3	0	0	0	0	0	0	0	0	0	0	0	0	0	0	0	0	13	5	0	0	18	0	0	0	0	0	0	0	0	1	4	0	0	0	5	0	0	0	0	0	0	0	0	0	0	0	0	0	0	0	0	0	0	0	0	0	0	1	18	7	0	0	26	50	0	0	20	13	2	0	35	0	0	0	0	0	0	0	0	0	0	0	0	0	0	0	1	228	2	0	0	231	0	0	0	0	0	0	0	0	386	97	18	0	0	501	0	0	0	0	0	0	0	0	0	0	0	0	0	0	0	0	0	0	0	0	0	0	387	345	33	2	0	767	5	5	3	0	0	0	0	0	0	0	1	0	0	0	7.59		STEPHEN J ROKES	6033521230	3/22/2004	5/25/2004		
2003	20031184	KEYSPAN ENERGY DELIVERY - ENERGY NORTH	16667	52 SECOND AVENUE	WALTHAM	MIDDLESEX	MA	2541						 NH	17	46	0	613	411	152	0	0	0	0	1239	8765	2884	299	14097	32772	4	0	337	115	0	59273	0	301	161	174	37	1	674	0	0	0	0	0	0	0	0	0	0	0	0	0	0	0	1	93	53	5	1	153	0	0	0	0	0	0	0	0	218	108	86	0	0	412	0	0	0	0	0	0	0	0	0	0	0	0	0	0	0	0	0	0	0	0	0	0	520	362	313	42	2	1239	64	7	14857	10907	262	12	0	26045	0	0	0	0	0	0	0	0	337	0	0	0	0	337	0	0	0	4	0	0	4	0	0	0	0	0	0	0	0	24251	8424	90	7	0	32772	0	0	0	0	0	0	0	56	40	18	1	0	0	115	0	0	0	0	0	0	0	63	39485	19349	357	19	0	59273	37	82	186	28	24	81	6	3	47	11	144	44	5	0	2.4		"ATAUN BOSSARANGSI, LEAD ENGINEER"	7814665217	3/22/2004	9/10/2004		
2003	20031187	SOUTHERN PUBLIC SERVICE CO	18520	BOX 10 1075 MAIN STREET	MILTON	CABELL	WV	25541						 WV	48	14	0	0	152	0	0	0	0	0	214	2478	0	0	0	5246	0	0	0	0	0	7724	0	33	22	7	0	0	62	0	0	0	0	0	0	0	0	0	0	0	0	0	0	0	0	0	0	0	0	0	0	0	0	0	0	0	0	0	72	58	22	0	0	152	0	0	0	0	0	0	0	0	0	0	0	0	0	0	0	0	0	0	0	0	0	0	105	80	29	0	0	214	35	0	1190	1280	8	0	0	2478	0	0	0	0	0	0	0	0	0	0	0	0	0	0	0	0	0	0	0	0	0	0	0	0	0	0	0	0	0	3578	1660	8	0	0	5246	0	0	0	0	0	0	0	0	0	0	0	0	0	0	0	0	0	0	0	0	0	0	4768	2940	16	0	0	7724	179	111	2	5	8	38	9	18	16	33	0	0	168	0	2.3		TIMMY D. CLAGG	3047433501	3/19/2004	4/19/2004		
2003	20031188	CANAAN VALLEY GAS CO 	31808	HC 70 BOX 470	DAVIS	TUCKER COUNTY	WV	26260						 WV	0	0	0	2	34	0	0	0	0	0	36	0	0	0	0	542	0	0	0	0	0	542	0	0	2	0	0	0	2	0	0	0	0	0	0	0	0	0	0	0	0	0	0	0	0	0	0	0	0	0	0	0	0	0	0	0	0	0	19	13	2	0	0	34	0	0	0	0	0	0	0	0	0	0	0	0	0	0	0	0	0	0	0	0	0	0	19	15	2	0	0	36	12	0	0	0	0	0	0	0	0	0	0	0	0	0	0	0	0	0	0	0	0	0	0	0	0	0	0	0	0	0	0	0	0	0	0	0	0	542	0	0	0	0	542	0	0	0	0	0	0	0	0	0	0	0	0	0	0	0	0	0	0	0	0	0	0	542	0	0	0	0	542	0	0	0	0	0	0	0	0	0	0	0	0	0	0	0		"ARDEN SWECKER, PRESIDENT"	3048664872	3/19/2004	4/19/2004		
2003	20031189	SOUTHERN CALIFORNIA GAS CO	18484	555 WEST FIFTH STREET	LOS ANGELES	LOS ANGELES 	CA	90013						 CA	3473	5183	71	17315	19451	0	0	0	0	0	45493	12193	18298	6261	1676739	2327106	0	0	4173	0	0	4044770	0	14680	7146	3482	557	177	26042	0	0	0	0	0	0	0	0	0	0	0	0	0	0	0	0	0	0	0	0	0	0	0	0	0	0	0	0	0	15219	3944	288	0	0	19451	0	0	0	0	0	0	0	0	0	0	0	0	0	0	0	0	0	0	0	0	0	0	29899	11090	3770	557	177	45493	60	0	1636885	68327	7537	432	310	1713491	0	0	0	0	0	0	0	0	4173	0	0	0	0	4173	0	0	0	0	0	0	0	0	8477	0	0	0	0	8477	0	2293716	23128	1777	8	0	2318629	0	0	0	0	0	0	0	0	0	0	0	0	0	0	0	0	0	0	0	0	0	0	3943251	91455	9314	440	310	4044770	1707	3943	70	135	816	4340	191	271	128	135	832	2036	3866	18	1.29		DAN MCNAIR	2132445290	3/19/2004	4/19/2004		
2003	20031190	TOWN OF MADISONVILLE	12036	403 ST FRANCIS ST	MADISONVILLE	ST TAMMANY	LA	70447						 LA	0	0	0	30	44	0	0	0	0	0	74	0	0	0	670	676	0	0	0	0	0	1346	0	18	12	0	0	0	30	0	0	0	0	0	0	0	0	0	0	0	0	0	0	0	0	0	0	0	0	0	0	0	0	0	0	0	0	0	37	7	0	0	0	44	0	0	0	0	0	0	0	0	0	0	0	0	0	0	0	0	0	0	0	0	0	0	55	19	0	0	0	74	50	0	670	0	0	0	0	670	0	0	0	0	0	0	0	0	0	0	0	0	0	0	0	0	0	0	0	0	0	0	0	0	0	0	0	0	0	672	4	0	0	0	676	0	0	0	0	0	0	0	0	0	0	0	0	0	0	0	0	0	0	0	0	0	0	1342	4	0	0	0	1346	0	10	0	0	2	10	0	1	0	1	0	2	0	0	2		CYNTHIA C PHELPS	9858457311	3/19/2004	8/4/2004		
2003	20031191	TCHEFUNCTA CLUB ESTATES	19342	#2 PINECREST DRIVE	COVINGTON	ST. TAMMANY	LA	70433						 LA	0	0	0	9	0	0	0	0	0	0	9	0	0	0	201	119	0	0	0	0	0	320	0	7	2	0	0	0	9	0	0	0	0	0	0	0	0	0	0	0	0	0	0	0	0	0	0	0	0	0	0	0	0	0	0	0	0	0	0	0	0	0	0	0	0	0	0	0	0	0	0	0	0	0	0	0	0	0	0	0	0	0	0	0	0	0	7	2	0	0	0	9	100	0	201	0	0	0	0	201	0	0	0	0	0	0	0	0	0	0	0	0	0	0	0	0	0	0	0	0	0	0	0	0	0	0	0	0	0	119	0	0	0	0	119	0	0	0	0	0	0	0	0	0	0	0	0	0	0	0	0	0	0	0	0	0	0	320	0	0	0	0	320	0	0	0	0	0	1	0	0	0	0	0	7	0	0	3		CYNTHIA C. PHELPS	9858457311	3/19/2004	4/20/2004		
2003	20031192	T & L GAS CO	30993	13500 LEE DR	CONROE	MONTGOMERY	TX	77306	PO BOX 8038	GRANGERLAND	MONTGOMERY	TX	77302	 TX	0	0	0	2	5	0	0	0	0	0	7	0	0	0	31	24	0	0	0	0	0	55	0	2	0	0	0	0	2	0	0	0	0	0	0	0	0	0	0	0	0	0	0	0	0	0	0	0	0	0	0	3	0	0	0	0	3	0	2	0	0	0	0	2	0	0	0	0	0	0	0	0	0	0	0	0	0	0	0	0	0	0	0	0	0	0	7	0	0	0	0	7	25	0	31	0	0	0	0	31	0	0	0	0	0	0	0	0	0	0	0	0	0	0	0	0	0	0	0	0	0	0	0	0	0	0	0	0	0	24	0	0	0	0	24	0	0	0	0	0	0	0	0	0	0	0	0	0	0	0	0	0	0	0	0	0	0	55	0	0	0	0	55	0	0	0	0	0	0	0	0	0	0	0	0	0	0	5		STEVE BELOVSKY	9362312244	4/13/2004	8/4/2004		
2003	20031193	T & L GAS CO	30993	13500 LEE DR	CONROE	MONTGOMERY	TX	77306	PO BOX 8038	GRANGERLAND	MONTGOMERY	TX	77302	 TX	0	0	0	0	24	0	0	0	0	0	24	0	0	0	0	227	0	0	0	0	0	227	0	0	0	0	0	0	0	0	0	0	0	0	0	0	0	0	0	0	0	0	0	0	0	0	0	0	0	0	0	0	0	0	0	0	0	0	16	8	0	0	0	24	0	0	0	0	0	0	0	0	0	0	0	0	0	0	0	0	0	0	0	0	0	0	16	8	0	0	0	24	25	0	0	0	0	0	0	0	0	0	0	0	0	0	0	0	0	0	0	0	0	0	0	0	0	0	0	0	0	0	0	0	0	0	0	0	0	219	8	0	0	0	227	0	0	0	0	0	0	0	0	0	0	0	0	0	0	0	0	0	0	0	0	0	0	219	8	0	0	0	227	0	0	0	0	0	0	0	0	0	0	0	0	0	0	1		STEVE BELOVSKY	9362312244	4/13/2004	8/4/2004		
2003	20031194	"ASHBURN GAS DEPT, CITY OF"	702	121 EAST MADISON AVENUE	ASHBURN	TURNER	GA	31714						 GA	0	2	0	20	1	0	0	0	0	0	23	820	0	87	0	143	0	0	0	0	0	1050	0	14	7	1	0	0	22	0	0	0	0	0	0	0	0	0	0	0	0	0	0	0	0	0	0	0	0	0	0	0	0	0	0	0	0	0	1	0	0	0	0	1	0	0	0	0	0	0	0	0	0	0	0	0	0	0	0	0	0	0	0	0	0	0	15	7	1	0	0	23	114	0	907	4	0	0	0	911	0	0	0	0	0	0	0	0	0	0	0	0	0	0	0	0	0	0	0	0	0	0	0	0	0	0	0	0	0	132	7	0	0	0	139	0	0	0	0	0	0	0	0	0	0	0	0	0	0	0	0	0	0	0	0	0	0	1039	11	0	0	0	1050	0	0	0	0	0	0	0	0	0	0	0	15	10	0	5		RONNIE RAINEY	2295673431	3/19/2004	4/20/2004		
2003	20031195	GRAYSVILLE MUNICIPAL GAS SYSTEM	6630	246 SO. MAIN STREET	GRAYSVILLE	JEFFERSON	AL	35073						 AL	0	0	0	70	16	72	0	0	0	0	158	0	0	0	2615	2481	3	0	0	2825	0	7924	0	45	18	7	0	0	70	0	0	0	0	0	0	0	0	0	0	0	0	0	0	0	27	43	2	0	0	72	0	0	0	0	0	0	0	0	16	0	0	0	0	16	0	0	0	0	0	0	0	0	0	0	0	0	0	0	0	0	0	0	0	0	0	0	88	61	9	0	0	158	100	0	2613	2	0	0	0	2615	0	0	0	0	0	0	0	0	0	0	0	0	0	0	0	0	2	1	0	0	3	0	0	0	0	0	0	0	0	2472	9	0	0	0	2481	0	0	0	0	0	0	0	0	0	0	0	0	0	0	0	2825	0	0	0	0	2825	0	7910	13	1	0	0	7924	0	1	4	13	0	0	0	0	92	56	0	9	11	0	2.22		JOE D. ELLENBURG	2056745643	3/19/2004	4/20/2004		
2003	20031196	"ABBYVILLE, CITY OF"	18	BOX 100 100 N BABY ST	ABBYVILLE	RENO	KS	67510						 KS	0	0	0	3	0	0	0	0	0	0	3	0	0	0	65	0	0	0	0	4	0	69	0	3	0	0	0	0	3	0	0	0	0	0	0	0	0	0	0	0	0	0	0	0	0	0	0	0	0	0	0	0	0	0	0	0	0	0	0	0	0	0	0	0	0	0	0	0	0	0	0	0	0	0	0	0	0	0	0	0	0	0	0	0	0	0	3	0	0	0	0	3	0	0	0	65	0	0	0	65	0	0	0	0	0	0	0	0	0	0	0	0	0	0	0	0	0	0	0	0	0	0	0	0	0	0	0	0	0	4	0	0	0	0	4	0	0	0	0	0	0	0	0	0	0	0	0	0	0	0	0	0	0	0	0	0	0	4	65	0	0	0	69	0	5	0	0	1	0	0	0	0	0	0	0	0	0	5		"JOHN LEWIS, MAINTENANCE DEPT."	6202865570	3/19/2004	4/20/2004		
2003	20031197	AMERICUS GAS CO INC	414	309 MAIN STREET	COTTONWOOD FALLS	CHASE	KS	66845						 KS	0	0	0	9	2	0	0	0	0	0	11	0	0	0	286	122	0	0	0	0	0	408	0	9	0	0	0	0	9	0	0	0	0	0	0	0	0	0	0	0	0	0	0	0	0	0	0	0	0	0	0	0	0	0	0	0	0	0	1	1	0	0	0	2	0	0	0	0	0	0	0	0	0	0	0	0	0	0	0	0	0	0	0	0	0	0	10	1	0	0	0	11	8	0	6	280	0	0	0	286	0	0	0	0	0	0	0	0	0	0	0	0	0	0	0	0	0	0	0	0	0	0	0	0	0	0	0	0	0	122	0	0	0	0	122	0	0	0	0	0	0	0	0	0	0	0	0	0	0	0	0	0	0	0	0	0	0	128	280	0	0	0	408	0	0	0	0	0	0	0	0	0	0	0	0	0	0	3		WILLIAM JAY YEAGER	6203430637	3/19/2004	4/20/2004		
2003	20031198	"AUBURN, CITY OF"	846	161 WEST 9TH BOX 160	AUBURN	SHAWNEE	KS	66402						 KS	0	0	0	41	9	0	0	0	0	0	50	0	0	0	543	445	0	0	0	0	0	988	2	9	30	0	0	0	41	0	0	0	0	0	0	0	0	0	0	0	0	0	0	0	0	0	0	0	0	0	0	0	0	0	0	0	0	0	9	0	0	0	0	9	0	0	0	0	0	0	0	0	0	0	0	0	0	0	0	0	0	0	0	0	0	2	18	30	0	0	0	50	100	0	533	9	1	0	0	543	0	0	0	0	0	0	0	0	0	0	0	0	0	0	0	0	0	0	0	0	0	0	0	0	0	0	0	0	0	435	10	0	0	0	445	0	0	0	0	0	0	0	0	0	0	0	0	0	0	0	0	0	0	0	0	0	0	968	19	1	0	0	988	0	0	0	0	2	1	0	0	0	0	0	0	0	0	0	*-HIT BY EXCAVATORS  **-METER SET HIT BY VEHICLE	ROBERT LOVE	7852562442	3/19/2004	4/20/2004		
2003	20031199	"ALTAMONT GAS DEPT, CITY OF"	360	500 HUSTON BOX 305 	ALTAMONT	LABERTE	KS	67330						 KS	0	0	0	3	20	0	0	0	0	0	23	0	0	0	0	504	0	0	0	0	0	504	0	0	3	0	0	0	3	0	0	0	0	0	0	0	0	0	0	0	0	0	0	0	0	0	0	0	0	0	0	0	0	0	0	0	0	0	10	10	0	0	0	20	0	0	0	0	0	0	0	0	0	0	0	0	0	0	0	0	0	0	0	0	0	0	10	13	0	0	0	23	0	0	0	0	0	0	0	0	0	0	0	0	0	0	0	0	0	0	0	0	0	0	0	0	0	0	0	0	0	0	0	0	0	0	0	0	0	497	7	0	0	0	504	0	0	0	0	0	0	0	0	0	0	0	0	0	0	0	0	0	0	0	0	0	0	497	7	0	0	0	504	0	0	0	3	0	0	0	0	0	0	0	0	0	0	0.0123		FRANK CUNNIGHAM-SCOTT TREXSON	6207845612	3/19/2004	4/20/2004		
2003	20031201	"AFG INDUSTRIES, INC"	31181	20400 N WEBSTER	SPRING HILL	JOHNSON	KS	66083	1400 LINCOLN STREET	KINGSPORT	SULLIVAN	TN	37660	 KS	0	0	0	7	0	0	0	0	0	0	7	0	0	0	1	0	0	0	0	0	0	1	0	0	7	0	0	0	7	0	0	0	0	0	0	0	0	0	0	0	0	0	0	0	0	0	0	0	0	0	0	0	0	0	0	0	0	0	0	0	0	0	0	0	0	0	0	0	0	0	0	0	0	0	0	0	0	0	0	0	0	0	0	0	0	0	0	7	0	0	0	7	34320	0	0	0	1	0	0	1	0	0	0	0	0	0	0	0	0	0	0	0	0	0	0	0	0	0	0	0	0	0	0	0	0	0	0	0	0	0	0	0	0	0	0	0	0	0	0	0	0	0	0	0	0	0	0	0	0	0	0	0	0	0	0	0	0	0	0	1	0	0	1	0	0	0	0	0	0	0	0	0	0	0	0	0	0	0		"RANDALL C RHODES, ENGINEERING MANAGER"	9135926100	3/19/2004	6/21/2004		
2003	20031202	"ALMA GAS DISTRIBUTION SYSTEM, CITY OF"	333	326 MISSOURI STREET	ALMA	WABAUNSEE	KS	66401						 KS	0	0	0	26	3	0	0	0	0	0	29	0	0	0	472	0	0	0	0	0	0	472	0	11	15	0	0	0	26	0	0	0	0	0	0	0	0	0	0	0	0	0	0	0	0	0	0	0	0	0	0	0	0	0	0	0	0	0	3	0	0	0	0	3	0	0	0	0	0	0	0	0	0	0	0	0	0	0	0	0	0	0	0	0	0	0	14	15	0	0	0	29	0	0	0	464	0	0	0	464	0	0	0	0	0	0	0	0	0	0	0	0	0	0	0	0	0	0	0	0	0	0	0	0	0	0	0	0	0	0	8	0	0	0	8	0	0	0	0	0	0	0	0	0	0	0	0	0	0	0	0	0	0	0	0	0	0	0	472	0	0	0	472	0	0	0	0	0	0	0	0	0	0	6	0	0	0	0		MAX KRAUS	7857653988	3/19/2004	4/20/2004		
2003	20031203	ALTA VISTA GAS CO	362	521 MAIN	ALTA VISTA	WABAUNSEE	KS	66834						 KS	0	0	0	29	0	0	0	0	0	0	29	0	0	0	545	3	0	0	0	0	0	548	0	7	22	0	0	0	29	0	0	0	0	0	0	0	0	0	0	0	0	0	0	0	0	0	0	0	0	0	0	0	0	0	0	0	0	0	0	0	0	0	0	0	0	0	0	0	0	0	0	0	0	0	0	0	0	0	0	0	0	0	0	0	0	0	7	22	0	0	0	29	20	0	537	8	0	0	0	545	0	0	0	0	0	0	0	0	0	0	0	0	0	0	0	0	0	0	0	0	0	0	0	0	0	0	0	0	0	3	0	0	0	0	3	0	0	0	0	0	0	0	0	0	0	0	0	0	0	0	0	0	0	0	0	0	0	540	8	0	0	0	548	0	0	0	0	0	0	0	1	0	0	0	0	0	0	0		JON R. BOLINDER	7854996620	3/19/2004	4/20/2004		
2003	20031204	"ATTICA GAS DEPT, CITY OF"	837	127 N MAIN BOX 421	ATTICA	HARPER	KS	67009						 KS	0	0	0	6	1	0	0	0	0	0	7	0	0	0	347	18	0	0	0	0	0	365	0	0	0	0	0	0	0	0	0	0	0	0	0	0	0	0	0	0	0	0	0	0	0	0	0	0	0	0	0	0	0	0	0	0	0	0	1	0	0	0	0	1	0	0	0	0	0	0	0	0	0	0	0	0	0	0	0	0	0	0	0	0	0	0	6	1	0	0	0	7	0	0	341	6	0	0	0	347	0	0	0	0	0	0	0	0	0	0	0	0	0	0	0	0	0	0	0	0	0	0	0	0	0	0	0	0	0	18	0	0	0	0	18	0	0	0	0	0	0	0	0	0	0	0	0	0	0	0	0	0	0	0	0	0	0	359	6	0	0	0	365	0	0	0	0	0	0	0	0	0	0	0	0	0	0	0		KENNETH DIXON	6202547228	3/19/2004	4/20/2004		
2003	20031206	BURLINGAME MUNICIPAL SYSTEM	1912	101 EAST SENTA FE AVENUE	BURLINGAME	OSAGE	KS	66413						 KS	0	0	0	26	1	0	0	0	0	0	27	0	0	0	531	35	0	0	0	0	0	566	0	7	18	1	0	0	26	0	0	0	0	0	0	0	0	0	0	0	0	0	0	0	0	0	0	0	0	0	0	0	0	0	0	0	0	0	1	0	0	0	0	1	0	0	0	0	0	0	0	0	0	0	0	0	0	0	0	0	0	0	0	0	0	0	8	18	1	0	0	27	0	0	0	530	1	0	0	531	0	0	0	0	0	0	0	0	0	0	0	0	0	0	0	0	0	0	0	0	0	0	0	0	0	0	0	0	0	0	35	0	0	0	35	0	0	0	0	0	0	0	0	0	0	0	0	0	0	0	0	0	0	0	0	0	0	0	565	1	0	0	566	0	0	0	0	0	0	0	0	0	0	0	0	0	0	4.3		"ROY D. RICKEL, UTILITY SUPT."	7856543114	3/19/2004	4/20/2004		
2003	20031207	"BELLEVILLE, CITY OF, MUNICIPAL GAS DEPT"	30058	1204 9TH STREET	BELLEVILLE	REPUBLIC	KS	66935	PO BOX 280	BELLEVILLE		KS	66935	 KS	0	0	12	9	6	0	0	0	0	0	27	0	0	1002	2	450	0	0	0	0	0	1454	0	16	6	0	0	0	22	0	0	0	0	0	0	0	0	0	0	0	0	0	0	0	0	0	0	0	0	0	0	0	0	0	0	0	0	0	5	0	0	0	0	5	0	0	0	0	0	0	0	0	0	0	0	0	0	0	0	0	0	0	0	0	0	0	21	6	0	0	0	27	0	0	3	1001	0	0	0	1004	0	0	0	0	0	0	0	0	0	0	0	0	0	0	0	0	0	0	0	0	0	0	0	0	0	0	0	0	0	450	0	0	0	0	450	0	0	0	0	0	0	0	0	0	0	0	0	0	0	0	0	0	0	0	0	0	0	453	1001	0	0	0	1454	0	0	1	4	0	0	0	0	0	0	0	0	0	0	0		JERRY W. LEDUC	7855275663	3/19/2004	4/20/2004		
2003	20031208	"BURRTON MUNICIPLE DISTRICT SYSTEM, CITY OF"	1936	203 N BURRTON AVE BOX 100	BURRTON	HARVEY	KS	67020						 KS	0	0	0	9	1	0	0	0	0	0	10	0	0	0	412	21	0	0	0	0	0	433	0	0	9	0	0	0	9	0	0	0	0	0	0	0	0	0	0	0	0	0	0	0	0	0	0	0	0	0	0	0	0	0	0	0	0	0	1	0	0	0	0	1	0	0	0	0	0	0	0	0	0	0	0	0	0	0	0	0	0	0	0	0	0	0	1	9	0	0	0	10	0	0	0	412	0	0	0	412	0	0	0	0	0	0	0	0	0	0	0	0	0	0	0	0	0	0	0	0	0	0	0	0	0	0	0	0	0	0	21	0	0	0	21	0	0	0	0	0	0	0	0	0	0	0	0	0	0	0	0	0	0	0	0	0	0	0	433	0	0	0	433	0	0	0	0	0	0	0	0	0	0	0	0	0	0	0		DEBORAH RESSLER	6204634545	3/19/2004	4/20/2004		
2003	20031209	"CHANUTE, CITY OF"	2256	1002 EAST 14TH 	CHANUTE	NEOSHO	KS	66720						 KS	27	0	3	10	46	0	4	0	0	0	90	1251	0	908	1176	1269	0	0	0	0	0	4604	0	22	9	9	0	0	40	0	0	0	4	0	0	4	0	0	0	0	0	0	0	0	0	0	0	0	0	0	0	0	0	0	0	0	0	0	27	10	9	0	0	46	0	0	0	0	0	0	0	0	0	0	0	0	0	0	0	0	0	0	0	0	0	0	49	19	22	0	0	90	60	0	3317	18	0	0	0	3335	0	0	0	0	0	0	0	0	0	0	0	0	0	0	0	0	0	0	0	0	0	0	0	0	0	0	0	0	0	1207	59	3	0	0	1269	0	0	0	0	0	0	0	0	0	0	0	0	0	0	0	0	0	0	0	0	0	0	4524	77	3	0	0	4604	0	8	0	0	0	0	0	0	0	0	1	0	2	0	1.32		"DAVID MCMILLAN, SUPERVISOR"	6204315254	3/19/2004	4/20/2004		
2003	20031210	CHENEY MUNICIPAL UTILITY	2297	131 N MAIN STREET	CHENEY	SEDGWICK	KS	67025						KS	0	0	0	10	5	0	0	0	0	0	15	0	0	0	562	142	0	0	0	0	0	704	0	10	1	0	0	0	11	0	0	0	0	0	0	0	0	0	0	0	0	0	0	0	0	0	0	0	0	0	0	0	0	0	0	0	0	0	2	2	0	0	0	4	0	0	0	0	0	0	0	0	0	0	0	0	0	0	0	0	0	0	0	0	0	0	12	3	0	0	0	15	12	0	553	9	0	0	0	562	0	0	0	0	0	0	0	0	0	0	0	0	0	0	0	0	0	0	0	0	0	0	0	0	0	0	0	0	0	139	3	0	0	0	142	0	0	0	0	0	0	0	0	0	0	0	0	0	0	0	0	0	0	0	0	0	0	692	12	0	0	0	704	0	0	0	1	0	1	0	3	1	6	0	0	0	0	7		"RANDALL OLIVER, CITY SUPERINTENDENT"	3165403622	3/19/2004	5/17/2004		
2003	20031211	"COATS, CITY OF"	925	3111/2 MAIN ST BOX 68	COATES	PRATT	KS	67028						 KS	0	0	0	0	0	0	0	0	0	2	2	0	0	0	0	0	0	0	0	0	92	92	0	0	0	0	0	0	0	0	0	0	0	0	0	0	0	0	0	0	0	0	0	0	0	0	0	0	0	0	0	0	0	0	0	0	0	0	2	0	0	0	0	2	0	0	0	0	0	0	0	0	0	0	0	0	0	0	0	0	0	0	0	0	0	0	2	0	0	0	0	2	112	0	0	0	0	0	0	0	0	0	0	0	0	0	0	0	0	0	0	0	0	0	0	0	0	0	0	0	0	0	0	0	0	0	0	0	0	92	0	0	0	0	92	0	0	0	0	0	0	0	0	0	0	0	0	0	0	0	0	0	0	0	0	0	0	92	0	0	0	0	92	0	0	0	0	0	0	0	0	0	0	0	0	0	0	0		FRED ROSE	6208932310	3/19/2004	4/20/2004		
2003	20031212	"DENISON GAS SYSTEMS, CITY OF"	3297	111 CENTRAL BOX 125	DENISON	JACKSON	KS	66419						 KS	0	0	0	0	17	0	0	0	0	0	17	0	0	0	0	171	0	0	0	0	0	171	0	0	0	0	0	0	0	0	0	0	0	0	0	0	0	0	0	0	0	0	0	0	0	0	0	0	0	0	0	0	0	0	0	0	0	0	6	11	0	0	0	17	0	0	0	0	0	0	0	0	0	0	0	0	0	0	0	0	0	0	0	0	0	0	6	11	0	0	0	17	0	0	0	0	0	0	0	0	0	0	0	0	0	0	0	0	0	0	0	0	0	0	0	0	0	0	0	0	0	0	0	0	0	0	0	0	0	171	0	0	0	0	171	0	0	0	0	0	0	0	0	0	0	0	0	0	0	0	0	0	0	0	0	0	0	171	0	0	0	0	171	0	0	0	0	0	0	0	0	0	0	0	0	0	0	2.65	"EXPLANATION PART E:    JUNE 2003 PURCHASED 1011 MCF & SOLD 242 MCF BY TALKING OFF THAT MOUTH TRANSACTION, WE HAD A -3.3% LOSS FOR THE PREVIOUS 11 MONTHS (3.3% GAIN)  "	MIKE MCCRORY	7859352272	3/19/2004	4/20/2004		
2003	20031213	BAREFOOT BAY PROPANE GAS CO	1121	4837 SWIFT ROAD	SARASOTA	SARASOTA	FL	34231						FL	0	0	0	10	29	0	0	0	0	0	39	0	0	0	388	392	0	0	0	0	0	780	0	4	5	1	0	0	10	0	0	0	0	0	0	0	0	0	0	0	0	0	0	0	0	0	0	0	0	0	0	0	0	0	0	0	0	0	25	4	0	0	0	29	0	0	0	0	0	0	0	0	0	0	0	0	0	0	0	0	0	0	0	0	0	0	29	9	1	0	0	39	10	0	385	3	0	0	0	388	0	0	0	0	0	0	0	0	0	0	0	0	0	0	0	0	0	0	0	0	0	0	0	0	0	0	0	0	0	392	0	0	0	0	392	0	0	0	0	0	0	0	0	0	0	0	0	0	0	0	0	0	0	0	0	0	0	777	3	0	0	0	780	0	5	0	4	0	0	0	0	0	2	0	0	0	0	0		"STEVEN ROSENBAUM, SAFETY & PERMITS MGR"	9419253088	4/13/2004	5/6/2004		
2003	20031214	"PASCAGOULA NATURAL GAS SYSTEM, CITY OF"	15154	4011 14TH STREET	PASCAGOULA	JACKSON	MS	39567	P.O. DRAWER 908	PASCAGOULA	JACKSON	MS	39568	MS	0	0	28	82	73	0	0	0	0	0	183	0	0	0	0	5876	0	0	0	0	0	5876	0	50	28	31	0	0	109	0	0	0	0	0	0	0	0	0	0	0	0	0	0	0	0	0	0	0	0	0	0	0	0	0	0	0	0	0	55	15	4	0	0	74	0	0	0	0	0	0	0	0	0	0	0	0	0	0	0	0	0	0	0	0	0	0	105	43	35	0	0	183	0	0	3020	181	25	3	0	3229	0	0	0	0	0	0	0	0	0	0	0	0	0	0	0	0	0	0	0	0	0	0	0	0	0	0	0	0	0	5876	17	3	0	0	5896	0	0	0	0	0	0	0	0	0	0	0	0	0	0	0	0	0	0	0	0	0	0	8896	198	28	3	0	9125	34	14	0	0	13	3	0	0	1	161	0	0	37	0	0		RICK ELY	2289386623	4/13/2004	9/16/2004		
2003	20031215	GRAYSON GAS SYSTEM	6615	24160 MARTIN LUTHER KING	HENRYETTA	OKMULGEE	OK	74437						 OK	0	0	0	0	3	0	0	0	0	0	3	0	0	0	0	28	0	0	0	0	0	28	0	0	0	0	0	0	0	0	0	0	0	0	0	0	0	0	0	0	0	0	0	0	0	0	0	0	0	0	0	0	3	0	0	0	3	0	0	0	0	0	0	0	0	0	0	0	0	0	0	0	0	0	0	0	0	0	0	0	0	0	0	0	0	0	0	3	0	0	0	3	0	0	0	0	0	0	0	0	0	0	0	0	0	0	0	0	0	0	0	0	0	0	0	0	0	0	0	0	0	0	0	0	0	0	0	0	0	0	28	0	0	0	28	0	0	0	0	0	0	0	0	0	0	0	0	0	0	0	0	0	0	0	0	0	0	0	28	0	0	0	28	0	0	0	0	0	0	0	0	0	0	0	0	0	0	0		HELEN JOANN FOX	9186523127	4/13/2004	7/22/2004		
2003	20031216	UNIT GAS TRANSMISSION CO - TEXAS	20200	PO BOX 2628	HOUSTON	HARRIS	TX	77252						 TX	0	0	0	67	13	0	0	0	0	0	80	0	0	0	0	0	0	0	0	0	0	0	0	5	39	23	0	0	67	0	0	0	0	0	0	0	0	0	0	0	0	0	0	0	0	0	0	0	0	0	0	0	0	0	0	0	0	0	1	10	2	0	0	13	0	0	0	0	0	0	0	0	0	0	0	0	0	0	0	0	0	0	0	0	0	0	6	49	25	0	0	80	0	0	0	0	0	0	0	0	0	0	0	0	0	0	0	0	0	0	0	0	0	0	0	0	0	0	0	0	0	0	0	0	0	0	0	0	0	0	0	0	0	0	0	0	0	0	0	0	0	0	0	0	0	0	0	0	0	0	0	0	0	0	0	0	0	0	0	0	0	0	0	0	0	0	0	0	0	0	0	0	0	0	0	0	0	0		"CHAD A. HAEGELIN, PE, ENGINEER"	7132075709	3/22/2004	4/20/2004		
2003	20031217	"HALSTEAD GAS DEPT, CITY OF"	7030	303 MAIN STREET	HALSTEAD	HARVEY	KS	67056						 KS	0	0	0	9	5	0	0	0	0	0	14	0	0	0	505	381	0	0	0	0	0	886	0	5	4	0	0	0	9	0	0	0	0	0	0	0	0	0	0	0	0	0	0	0	0	0	0	0	0	0	0	0	0	0	0	0	0	0	5	0	0	0	0	5	0	0	0	0	0	0	0	0	0	0	0	0	0	0	0	0	0	0	0	0	0	0	10	4	0	0	0	14	40	0	0	502	3	0	0	505	0	0	0	0	0	0	0	0	0	0	0	0	0	0	0	0	0	0	0	0	0	0	0	0	0	0	0	0	0	0	381	0	0	0	381	0	0	0	0	0	0	0	0	0	0	0	0	0	0	0	0	0	0	0	0	0	0	0	883	3	0	0	886	0	0	0	0	0	0	1	0	0	0	0	0	1	0	0		PATRICK ADAMS	3168352743	3/19/2004	4/20/2004		
2003	20031218	HAVENSVILLE GAS	30557	212 COMMERICAL STREET	HAVENSVILLE	POTTAWATOMIC	KS	66932						 KS	0	0	0	0	4	0	0	0	0	0	4	0	0	0	0	104	0	0	0	0	0	104	0	4	0	0	0	0	4	0	0	0	0	0	0	0	0	0	0	0	0	0	0	0	0	0	0	0	0	0	0	0	0	0	0	0	0	0	0	0	0	0	0	0	0	0	0	0	0	0	0	0	0	0	0	0	0	0	0	0	0	0	0	0	0	0	4	0	0	0	0	4	103	0	0	0	0	0	0	0	0	0	0	0	0	0	0	0	0	0	0	0	0	0	0	0	0	0	0	0	0	0	0	0	0	0	0	0	0	104	0	0	0	0	104	0	0	0	0	0	0	0	0	0	0	0	0	0	0	0	0	0	0	0	0	0	0	104	0	0	0	0	104	0	0	0	0	0	0	0	0	0	0	0	0	0	0	0		MIKE PINCK	9999999999	3/19/2004	4/20/2004		
2003	20031219	HARVEYVILLE GAS DEPT	7125	274 W. OAK P O BOX 187	HARVEYVILLE	WABAUNSEE	KS	66431						KS	0	0	3	8	1	0	0	0	0	0	12	0	0	0	0	0	0	0	0	0	0	0	0	4	7	0	0	0	11	0	0	0	0	0	0	0	0	0	0	0	0	0	0	0	0	0	0	0	0	0	0	0	0	0	0	0	0	0	0	1	0	0	0	1	0	0	0	0	0	0	0	0	0	0	0	0	0	0	0	0	0	0	0	0	0	0	4	8	0	0	0	12	0	0	0	144	0	0	0	144	0	0	0	0	0	0	0	0	0	0	0	0	0	0	0	0	0	0	0	0	0	0	0	0	0	0	0	0	0	0	0	0	0	0	0	0	0	0	0	0	0	0	0	0	0	0	0	0	0	0	0	0	0	0	0	0	0	0	144	0	0	0	144	0	0	0	0	0	0	0	0	0	0	0	0	0	0	18		"DAVID LEE FERDINAND, CITY SUPERINTENDENT"	7855892310	3/19/2004	5/17/2004		
2003	20031220	FLINT HILLS GAS CO INC	5240	7685 SW CEDAR LANE	AUGUSTO	BUTLER	KS	67010						 KS	0	0	1	0	3	0	0	0	0	0	4	0	0	0	0	26	0	0	0	0	0	26	0	1	0	0	0	0	1	0	0	0	0	0	0	0	0	0	0	0	0	0	0	0	0	0	0	0	0	0	0	0	0	0	0	0	0	0	3	0	0	0	0	3	0	0	0	0	0	0	0	0	0	0	0	0	0	0	0	0	0	0	0	0	0	0	4	0	0	0	0	4	75	0	0	0	0	0	0	0	0	0	0	0	0	0	0	0	0	0	0	0	0	0	0	0	0	0	0	0	0	0	0	0	0	0	0	0	0	26	0	0	0	0	26	0	0	0	0	0	0	0	0	0	0	0	0	0	0	0	0	0	0	0	0	0	0	26	0	0	0	0	26	0	0	0	0	0	0	0	0	0	0	0	0	0	0	0		A.E. REISS	3167753431	3/19/2004	4/21/2004		
2003	20031221	"GARDEN PLAIN GAS SYSTEM, CITY OF"	6080	505 N MAIN BOX 336	GARDEN PLAIN	SEDGWICK	KS	67050						 KS	0	0	0	12	2	0	0	0	0	0	14	0	0	0	272	28	0	0	0	0	0	300	0	3	9	0	0	0	12	0	0	0	0	0	0	0	0	0	0	0	0	0	0	0	0	0	0	0	0	0	0	0	0	0	0	0	0	0	2	0	0	0	0	2	0	0	0	0	0	0	0	0	0	0	0	0	0	0	0	0	0	0	0	0	0	0	5	9	0	0	0	14	10	0	0	272	0	0	0	272	0	0	0	0	0	0	0	0	0	0	0	0	0	0	0	0	0	0	0	0	0	0	0	0	0	0	0	0	0	0	28	0	0	0	28	0	0	0	0	0	0	0	0	0	0	0	0	0	0	0	0	0	0	0	0	0	0	0	300	0	0	0	300	0	1	0	0	0	0	0	0	0	0	1	0	2	0	0		LOUISE STUHLSATZ/KEITH GEGEN	3165312321	3/19/2004	4/21/2004		
2003	20031222	"GARNETT MUNICIPAL SYSTEM, CITY OF"	6100	131 WEST FIFTH	GARNETT 	ANDERSON	KS	66032						 KS	8	0	0	12	20	0	0	0	4	0	44	855	0	0	482	529	0	0	0	0	0	1866	0	7	11	2	0	0	20	0	0	0	0	0	0	0	0	0	0	0	0	0	0	0	0	0	0	0	0	0	0	2	2	0	0	0	4	0	16	4	0	0	0	20	0	0	0	0	0	0	0	0	0	0	0	0	0	0	0	0	0	0	0	0	0	0	25	17	2	0	0	44	15	0	1109	224	4	0	0	1337	0	0	0	0	0	0	0	0	0	0	0	0	0	0	0	0	0	0	0	0	0	0	0	0	0	0	0	0	0	518	10	1	0	0	529	0	0	0	0	0	0	0	0	0	0	0	0	0	0	0	0	0	0	0	0	0	0	1627	234	5	0	0	1866	4	4	2	0	0	2	0	0	0	0	2	0	0	0	0.04	"PPART B-GENERAL BOX MARKED OTHER IS 4 MILES OF PVC MAIN (2 MILES OF 2"" AND 2 MILES OF 4"") CALLED YELLOW-GAS, MANUFACTURED BY CERTAIN TEED INSTALLED LATE 60'S EARLY 70'S.  ALL HAS MAOP 8 OZ."	EARL ROCKER	7854486262	3/19/2004	4/21/2004		
2003	20031223	HUMBOLDT CITY GAS DEPT	7645	701 BRIDGE	HUMBOLDT	ALLEN	KS	66748						 KS	0	0	0	0	28	0	0	0	0	0	28	0	0	0	0	965	0	0	0	0	0	965	0	0	0	0	0	0	0	0	0	0	0	0	0	0	0	0	0	0	0	0	0	0	0	0	0	0	0	0	0	0	0	0	0	0	0	0	22	5	1	0	0	28	0	0	0	0	0	0	0	0	0	0	0	0	0	0	0	0	0	0	0	0	0	0	22	5	1	0	0	28	0	0	0	0	0	0	0	0	0	0	0	0	0	0	0	0	0	0	0	0	0	0	0	0	0	0	0	0	0	0	0	0	0	0	0	0	0	954	11	0	0	0	965	0	0	0	0	0	0	0	0	0	0	0	0	0	0	0	0	0	0	0	0	0	0	954	11	0	0	0	965	0	0	0	1	0	2	0	0	0	0	0	3	0	0	0	"GAS SOLD    78,869,000 M.M.B.T.U.    GAS PURCHASED   83,049,000 M.M.B.T.U"	PATRICIA M. SANCHEZ	6204733232	3/19/2004	4/21/2004		
2003	20031224	"HESSTON, CITY OF"	7245	115 E. SMITH	HESSTON	HARVEY	KS	67062						 KS	0	0	1	17	7	0	0	0	0	0	25	0	0	0	846	254	0	0	0	0	0	1100	0	9	7	2	0	0	18	0	0	0	0	0	0	0	0	0	0	0	0	0	0	0	0	0	0	0	0	0	0	0	0	0	0	0	0	0	3	4	0	0	0	7	0	0	0	0	0	0	0	0	0	0	0	0	0	0	0	0	0	0	0	0	0	0	12	11	2	0	0	25	10	0	0	840	6	0	0	846	0	0	0	0	0	0	0	0	0	0	0	0	0	0	0	0	0	0	0	0	0	0	0	0	0	0	0	0	0	173	80	1	0	0	254	0	0	0	0	0	0	0	0	0	0	0	0	0	0	0	0	0	0	0	0	0	0	173	920	7	0	0	1100	0	1	0	0	0	0	0	0	0	1	0	0	0	0	0		KIRK MATZ	6203274300	3/19/2004	4/21/2004		
2003	20031225	HARDTNER CITY GAS DEPT	7077	104 E. WOODWORTH	HARDTNER	BARBER	KS	67057						 KS	0	0	0	0	5	0	0	0	0	0	5	0	0	0	0	181	0	0	0	0	0	181	0	0	0	0	0	0	0	0	0	0	0	0	0	0	0	0	0	0	0	0	0	0	0	0	0	0	0	0	0	5	0	0	0	0	5	0	0	0	0	0	0	0	0	0	0	0	0	0	0	0	0	0	0	0	0	0	0	0	0	0	0	0	0	0	5	0	0	0	0	5	12	0	0	0	0	0	0	0	0	0	0	0	0	0	0	0	0	0	0	0	0	0	0	0	0	0	0	0	0	0	0	0	0	0	0	0	0	181	0	0	0	0	181	0	0	0	0	0	0	0	0	0	0	0	0	0	0	0	0	0	0	0	0	0	0	181	0	0	0	0	181	0	0	0	0	0	2	0	0	0	0	0	0	0	0	0		WELSEY KING	6202964583	3/19/2004	4/21/2004		
2003	20031226	HOWARD MUNICIPAL GAS SYSTEM	7610	110 N PINE STREET	HOWARD	ELK	KS	67349						KS	0	0	0	3	13	0	0	0	0	0	16	0	0	8	0	578	0	0	0	0	0	586	0	0	3	0	0	0	3	0	0	0	0	0	0	0	0	0	0	0	0	0	0	0	0	0	0	0	0	0	0	0	0	0	0	0	0	0	8	5	0	0	0	13	0	0	0	0	0	0	0	0	0	0	0	0	0	0	0	0	0	0	0	0	0	0	8	8	0	0	0	16	15	0	8	0	0	0	0	8	0	0	0	0	0	0	0	0	0	0	0	0	0	0	0	0	0	0	0	0	0	0	0	0	0	0	0	0	0	571	7	0	0	0	578	0	0	0	0	0	0	0	0	0	0	0	0	0	0	0	0	0	0	0	0	0	0	579	7	0	0	0	586	0	0	0	0	0	4	0	0	0	0	0	0	0	0	0.006		JOSEPH BORZELLERI	3163742202	3/19/2004	8/20/2004		
2003	20031227	"ISABEL, CITY OF"	8321	116 N. MAIN	ISABEL	BARBER	KS	67065						 KS	0	0	0	0	11	0	0	0	0	0	11	0	0	0	0	63	0	0	0	0	0	63	0	0	0	0	0	0	0	0	0	0	0	0	0	0	0	0	0	0	0	0	0	0	0	0	0	0	0	0	0	0	0	0	0	0	0	0	6	5	0	0	0	11	0	0	0	0	0	0	0	0	0	0	0	0	0	0	0	0	0	0	0	0	0	0	6	5	0	0	0	11	98	0	0	0	0	0	0	0	0	0	0	0	0	0	0	0	0	0	0	0	0	0	0	0	0	0	0	0	0	0	0	0	0	0	0	0	0	0	62	1	0	0	63	0	0	0	0	0	0	0	0	0	0	0	0	0	0	0	0	0	0	0	0	0	0	0	62	1	0	0	63	0	0	0	0	0	0	0	0	0	5	0	0	0	0	0	ISABEL FAX 620-739-4340  E-MAIL CITYOFISABEL@HAVILANDTELCO.COM	MARILYN MURPHY	6207394362	3/19/2004	4/21/2004		
2003	20031228	IOLA MUNICIPAL GAS CO	8220	2 WEST JACKSON	IOLA	ALLEN	KS	66749						 KS	20	0	2	17	16	0	0	0	0	0	55	1067	0	0	1031	789	0	0	0	0	0	2887	0	14	22	4	0	0	40	0	0	0	0	0	0	0	0	0	0	0	0	0	0	0	0	0	0	0	0	0	0	9	5	1	0	0	15	0	0	0	0	0	0	0	0	0	0	0	0	0	0	0	0	0	0	0	0	0	0	0	0	0	0	0	0	0	23	27	5	0	0	55	6	0	1980	99	7	0	0	2086	0	0	0	0	0	0	0	0	0	0	0	0	0	0	0	0	0	0	0	0	0	0	784	15	2	0	0	801	0	0	0	0	0	0	0	0	0	0	0	0	0	0	0	0	0	0	0	0	0	0	0	0	0	0	0	0	0	2764	114	9	0	0	2887	3	9	0	0	0	8	3	5	0	0	0	0	0	0	1.1		JIM WEST	6203654926	3/19/2004	4/21/2004		
2003	20031229	WESTERN RESOURCES INC (AKA KPL CO. OR GAS SERVICE)	10037	501 S.W. GAGE BLVD	TOPEKA	SHAWNEE	KS	66601						 KS	749	0	2158	5277	3806	203	0	0	0	0	12193	111516	33373	30744	2781	436266	0	0	11	0	0	614691	0	4665	2373	941	131	74	8184	0	0	0	0	0	0	0	0	0	0	0	0	0	0	0	6	98	77	21	1	203	0	87	11	0	0	0	98	0	2781	890	37	0	0	3708	0	0	0	0	0	0	0	0	0	0	0	0	0	0	0	0	0	0	0	0	0	0	7539	3372	1055	152	75	12193	38	96829	31457	49809	283	31	5	178414	0	0	0	0	0	0	0	2	5	4	0	0	0	11	0	0	0	0	0	0	0	15	11	2	0	0	0	28	19199	380339	36507	174	18	1	436238	0	0	0	0	0	0	0	0	0	0	0	0	0	0	0	0	0	0	0	0	0	116045	411812	86322	457	49	6	614691	1145	817	14	34	282	686	21	26	91	89	1966	1744	2468	24	2.27		DAVE SPEARS	7852713924	3/19/2004	4/21/2004		
2003	20031230	KANSAS INDUSTRIAL ENERGY SUPPPLY CO	10029	BOX 7730 MAIL CODE K16-93	WICHITA	SEDGWICK	KS	67277						 KS	0	0	0	16	0	0	0	0	0	0	16	0	0	0	4	0	0	0	0	0	0	4	0	0	9	7	0	0	16	0	0	0	0	0	0	0	0	0	0	0	0	0	0	0	0	0	0	0	0	0	0	0	0	0	0	0	0	0	0	0	0	0	0	0	0	0	0	0	0	0	0	0	0	0	0	0	0	0	0	0	0	0	0	0	0	0	0	9	7	0	0	16	0	0	0	0	2	2	0	4	0	0	0	0	0	0	0	0	0	0	0	0	0	0	0	0	0	0	0	0	0	0	0	0	0	0	0	0	0	0	0	0	0	0	0	0	0	0	0	0	0	0	0	0	0	0	0	0	0	0	0	0	0	0	0	0	0	0	0	2	2	0	4	0	0	0	0	0	0	0	0	0	0	0	0	0	0	0		"G. LAWERENCE KELLER, JR."	3165267371	3/19/2004	4/21/2004		
2003	20031231	"LYONS GAS DEPT, CITY OF"	11944	217 EAST AVENUE SOUTH	LYONS	RICE	KS	67554						 KS	4	0	0	0	12	13	0	0	0	0	29	252	0	119	517	874	0	0	0	0	0	1762	0	3	0	0	1	0	4	0	0	0	0	0	0	0	0	0	0	0	0	0	0	0	0	7	3	3	0	13	0	1	2	2	0	0	5	0	0	6	1	0	0	7	0	0	0	0	0	0	0	0	0	0	0	0	0	0	0	0	0	0	0	0	0	0	4	15	6	4	0	29	20	0	0	884	0	0	0	884	0	0	0	0	0	0	0	0	0	0	0	0	0	0	0	0	0	0	0	0	0	0	0	443	4	0	0	447	0	0	426	5	0	0	431	0	0	0	0	0	0	0	0	0	0	0	0	0	0	0	0	0	0	0	0	0	0	0	1753	9	0	0	1762	26	2	0	0	0	0	2	0	0	2	0	0	1	0	12		DAVID C. KENDRICK	6202573054	3/19/2004	4/21/2004		
2003	20031232	"LOUISBURG NATURAL GAS UTILITIES, CITY OF"	11784	5 S. PEORIA STREET 	LOUISBURG	MIAMI	KS	66053						 KS	0	0	1	11	19	0	0	0	0	0	31	0	0	50	397	668	0	0	0	0	0	1115	0	7	6	0	0	0	13	0	0	0	0	0	0	0	0	0	0	0	0	0	0	0	0	0	0	0	0	0	0	0	0	0	0	0	0	0	8	9	1	0	0	18	0	0	0	0	0	0	0	0	0	0	0	0	0	0	0	0	0	0	0	0	0	0	15	15	1	0	0	31	0	0	418	29	0	0	0	447	0	0	0	0	0	0	0	0	0	0	0	0	0	0	0	0	0	0	0	0	0	0	0	0	0	0	0	0	0	612	56	0	0	0	668	0	0	0	0	0	0	0	0	0	0	0	0	0	0	0	0	0	0	0	0	0	0	1030	85	0	0	0	1115	0	1	0	0	0	1	0	9	0	2	0	0	0	0	0		RANDY MEYER	9138375371	3/19/2004	4/21/2004		
2003	20031233	"LANCASTER GAS SYSTEM, CITY OF"	11200	301 KANSAS BOX 146	LANCASTER	ATCHISON	KS	66041						 KS	0	0	0	5	1	0	0	0	0	0	6	0	0	0	132	17	0	0	0	0	0	149	0	4	1	0	0	0	5	0	0	0	0	0	0	0	0	0	0	0	0	0	0	0	0	0	0	0	0	0	0	0	0	0	0	0	0	0	1	0	0	0	0	1	0	0	0	0	0	0	0	0	0	0	0	0	0	0	0	0	0	0	0	0	0	0	5	1	0	0	0	6	30	0	0	132	0	0	0	132	0	0	0	0	0	0	0	0	0	0	0	0	0	0	0	0	0	0	0	0	0	0	0	0	0	0	0	0	0	0	17	0	0	0	17	0	0	0	0	0	0	0	0	0	0	0	0	0	0	0	0	0	0	0	0	0	0	0	149	0	0	0	149	0	0	0	0	0	0	0	0	0	0	0	0	1	0	0		TIM CALLAHAN	9138742415	3/19/2004	4/22/2004		
2003	20031234	LEBO MUNICIPAL GAS SYSTEM	11344	5 E BROADWAY BOX 14	LEBO	COFFEY	KS	66856						 KS	0	0	1	0	8	0	0	0	0	0	9	0	0	28	0	326	0	0	0	0	0	354	0	1	0	0	0	0	1	0	0	0	0	0	0	0	0	0	0	0	0	0	0	0	0	0	0	0	0	0	0	0	0	0	0	0	0	0	6	2	0	0	0	8	0	0	0	0	0	0	0	0	0	0	0	0	0	0	0	0	0	0	0	0	0	0	7	2	0	0	0	9	8	0	28	0	0	0	0	28	0	0	0	0	0	0	0	0	0	0	0	0	0	0	0	0	0	0	0	0	0	0	0	0	0	0	0	0	0	320	6	0	0	0	326	0	0	0	0	0	0	0	0	0	0	0	0	0	0	0	0	0	0	0	0	0	0	348	6	0	0	0	354	0	3	0	0	0	2	0	0	0	2	0	0	0	0	0	"3 CORROSION LEAKS WERE STEEL YARD LINES REPLACED WITH PE 1"" PIPE    2 TIRD PARTY INVOLVED CARS HITTING METER SETS    2 MATERIAL DEFECT WERE UNDERGROUND AT CAP ON SADDLE TAP ON PE.    ALSO REPAIRE 40 MINOR LEAKS AT METER SETS-SPUDS-UNIONS-REDUCERS-ETC.      ALL LEAKS REPAIRED 2003"	GARY L. KNIGHT	6202566622	3/19/2004	4/22/2004		
2003	20031235	MIDWEST ENERGY INC	12479	1330 CANTERBURY	HAYS	ELLIS	KS	67601						 KS	456	0	92	1180	1332	0	0	0	0	0	3060	421	0	4756	33926	2407	0	0	0	0	0	41510	0	1215	449	87	0	0	1751	0	0	0	0	0	0	0	0	0	0	0	0	0	0	0	0	0	0	0	0	0	0	693	0	0	0	0	693	0	414	137	0	0	0	551	0	65	0	0	0	0	65	0	0	0	0	0	0	0	0	0	0	0	0	0	0	0	2387	586	87	0	0	3060	25	0	37251	1786	33	0	0	39070	0	0	0	0	0	0	0	0	0	0	0	0	0	0	0	0	0	0	0	0	0	0	33	0	0	0	0	33	0	2176	226	5	0	0	2407	0	0	0	0	0	0	0	0	0	0	0	0	0	0	0	0	0	0	0	0	0	0	39460	2012	38	0	0	41510	57	31	0	1	9	20	11	5	7	6	3	2	25	0	3.6		DENNIS RADFORD	7856251484	3/19/2004	4/22/2004		
2003	20031236	MORLAND CITY OF	30556	403 WEST MAIN 	MORLAND 	GRAHAM	KS	67650						 KS	0	0	0	0	19	0	0	0	0	0	19	0	0	0	0	112	0	0	0	0	0	112	0	0	0	0	0	0	0	0	0	0	0	0	0	0	0	0	0	0	0	0	0	0	0	0	0	0	0	0	0	0	0	0	0	0	0	0	3	16	0	0	0	19	0	0	0	0	0	0	0	0	0	0	0	0	0	0	0	0	0	0	0	0	0	0	3	16	0	0	0	19	100	0	0	0	0	0	0	0	0	0	0	0	0	0	0	0	0	0	0	0	0	0	0	0	0	0	0	0	0	0	0	0	0	0	0	0	0	108	4	0	0	0	112	0	0	0	0	0	0	0	0	0	0	0	0	0	0	0	0	0	0	0	0	0	0	108	4	0	0	0	112	0	0	0	0	0	0	0	0	0	0	0	0	0	0	0		MARVIN MINGE	7856273075	3/19/2004	4/22/2004		
2003	20031237	"MILFORD MUNICIPAL GAS SYSTEM, CITY OF"	12516	BOX 279 201 12TH ST	MILFORD	GEARY	KS	66514						 KS	0	0	0	14	0	0	0	0	0	0	14	0	0	0	320	0	0	0	0	0	0	320	0	14	0	0	0	0	14	0	0	0	0	0	0	0	0	0	0	0	0	0	0	0	0	0	0	0	0	0	0	0	0	0	0	0	0	0	0	0	0	0	0	0	0	0	0	0	0	0	0	0	0	0	0	0	0	0	0	0	0	0	0	0	0	0	14	0	0	0	0	14	6	0	0	320	0	0	0	320	0	0	0	0	0	0	0	0	0	0	0	0	0	0	0	0	0	0	0	0	0	0	0	0	0	0	0	0	0	0	0	0	0	0	0	0	0	0	0	0	0	0	0	0	0	0	0	0	0	0	0	0	0	0	0	0	0	0	320	0	0	0	320	0	0	0	0	0	0	0	0	0	0	0	0	0	0	12		SHERYL K. GAINES-MEYER	7854635490	3/19/2004	4/22/2004		
2003	20031238	MAPLETON GAS PIPELINE	12122	PO BOX 15	MAPLETON		KS	66754						 KS	0	0	0	1	7	0	0	0	0	0	8	0	0	0	3	69	0	0	0	0	0	72	0	1	0	0	0	0	1	0	0	0	0	0	0	0	0	0	0	0	0	0	0	0	0	0	0	0	0	0	0	0	0	0	0	0	0	0	7	0	0	0	0	7	0	0	0	0	0	0	0	0	0	0	0	0	0	0	0	0	0	0	0	0	0	0	8	0	0	0	0	8	0	0	3	0	0	0	0	3	0	0	0	0	0	0	0	0	0	0	0	0	0	0	0	0	0	0	0	0	0	0	0	0	0	0	0	0	0	69	0	0	0	0	69	0	0	0	0	0	0	0	0	0	0	0	0	0	0	0	0	0	0	0	0	0	0	72	0	0	0	0	72	0	0	0	0	1	0	0	0	0	0	0	0	0	0	0		MARK SCHARENBERG	6207434161	3/19/2004	4/22/2004		
2003	20031239	"MULBERRY, CITY OF"	12897	1717 MAIN ST PO BOX 206	UNIONVILLE	PUTNAM COUNTY	MO	63565						 KS	0	0	0	17	0	0	0	0	0	0	17	0	0	0	423	13	0	0	0	0	0	436	0	6	11	0	0	0	17	0	0	0	0	0	0	0	0	0	0	0	0	0	0	0	0	0	0	0	0	0	0	0	0	0	0	0	0	0	0	0	0	0	0	0	0	0	0	0	0	0	0	0	0	0	0	0	0	0	0	0	0	0	0	0	0	0	6	11	0	0	0	17	60	0	423	0	0	0	0	423	0	0	0	0	0	0	0	0	0	0	0	0	0	0	0	0	0	0	0	0	0	0	0	0	0	0	0	0	0	13	0	0	0	0	13	0	0	0	0	0	0	0	0	0	0	0	0	0	0	0	0	0	0	0	0	0	0	436	0	0	0	0	436	0	0	0	4	0	3	0	0	0	21	0	0	0	0	3	*DUE TO TORNADO DAMAGE IN SPRING 2003	LINDA VALENTINE	6609473316	3/19/2004	4/22/2004		
2003	20031240	"MC LOUTH MUNICIPAL SYSTEM, CITY OF"	12306	100 N. UNION	MCLOUTH	JEFFERSON	KS	66054						 KS	0	0	0	1	7	0	0	0	0	0	8	0	0	0	29	395	0	0	0	0	0	424	0	1	0	0	0	0	1	0	0	0	0	0	0	0	0	0	0	0	0	0	0	0	0	0	0	0	0	0	0	0	0	0	0	0	0	0	6	1	0	0	0	7	0	0	0	0	0	0	0	0	0	0	0	0	0	0	0	0	0	0	0	0	0	0	7	1	0	0	0	8	30	0	29	0	0	0	0	29	0	0	0	0	0	0	0	0	0	0	0	0	0	0	0	0	0	0	0	0	0	0	0	0	0	0	0	0	0	388	7	0	0	0	395	0	0	0	0	0	0	0	0	0	0	0	0	0	0	0	0	0	0	0	0	0	0	417	7	0	0	0	424	0	0	0	0	0	4	0	0	0	0	1	0	0	0	5	"*UNACCOUNTED FOR GAS INCLUDES PURGING 1 MILE OF 2"" MAIN REPLACED AND LOSS OF GAS THROUGH 4 SERVICE METERS HIT BY VEHICLES BEFORE THEY COULD BE PLUGGED OFF."	CARL D. CHALFANT	9137966411	3/19/2004	4/22/2004		
2003	20031241	"MOUNDRIDGE GAS DEPT, CITY OF"	12846	225 S. CHRISTIAN	MOUNDRIDGE	MCPHERSON	KS	67107						 KS	0	0	0	6	8	0	0	0	0	0	14	0	0	0	85	498	0	0	0	0	0	583	0	3	3	0	0	0	6	0	0	0	0	0	0	0	0	0	0	0	0	0	0	0	0	0	0	0	0	0	0	0	0	0	0	0	0	0	7	1	0	0	0	8	0	0	0	0	0	0	0	0	0	0	0	0	0	0	0	0	0	0	0	0	0	0	10	4	0	0	0	14	19	0	0	83	2	0	0	85	0	0	0	0	0	0	0	0	0	0	0	0	0	0	0	0	0	0	0	0	0	0	0	0	0	0	0	0	0	0	498	0	0	0	498	0	0	0	0	0	0	0	0	0	0	0	0	0	0	0	0	0	0	0	0	0	0	0	581	2	0	0	583	0	0	0	0	0	0	0	0	0	0	3	4	1	0	1		JEFF FLICKINGER	6203458246	3/19/2004	4/22/2004		
2003	20031242	NEOSHO RAPIDS GAS SYSTEM	13220	102 S. NEOSHO STREET	NEOSHO RAPIDS	LYON	KS	66864						 KS	0	0	0	7	0	0	0	0	0	0	7	0	0	0	135	0	0	0	0	0	0	135	0	6	1	0	0	0	7	0	0	0	0	0	0	0	0	0	0	0	0	0	0	0	0	0	0	0	0	0	0	0	0	0	0	0	0	0	0	0	0	0	0	0	0	0	0	0	0	0	0	0	0	0	0	0	0	0	0	0	0	0	0	0	0	0	6	1	0	0	0	7	0	0	133	2	0	0	0	135	0	0	0	0	0	0	0	0	0	0	0	0	0	0	0	0	0	0	0	0	0	0	0	0	0	0	0	0	0	0	0	0	0	0	0	0	0	0	0	0	0	0	0	0	0	0	0	0	0	0	0	0	0	0	0	0	0	133	2	0	0	0	135	0	0	0	0	0	0	0	0	0	0	0	0	0	0	0		"ED LEFORD, CITY TREAS."	6203424565	3/19/2004	4/22/2004		
2003	20031243	"NEODESHA GAS DEPT, CITY OF"	13210	1407 N 8TH PO BOX 336	NEODESHA	WILSON	KS	66757						 KS	0	0	0	0	13	8	0	0	0	0	21	8	0	0	0	641	0	0	795	0	0	1444	0	0	0	0	0	0	0	0	0	0	0	0	0	0	0	0	0	0	0	0	0	0	0	6	2	0	0	8	0	0	0	0	0	0	0	0	1	10	2	0	0	13	0	0	0	0	0	0	0	0	0	0	0	0	0	0	0	0	0	0	0	0	0	0	1	16	4	0	0	21	1000	0	0	8	0	0	0	8	0	0	0	0	0	0	0	0	791	4	0	0	0	795	0	0	0	0	0	0	0	0	0	0	0	0	0	0	0	581	60	0	0	0	641	0	0	0	0	0	0	0	0	0	0	0	0	0	0	0	0	0	0	0	0	0	0	1372	72	0	0	0	1444	1	1	0	0	0	0	0	0	0	0	0	1	0	0	0		GLEN FULLER & BRENT T. WHEELER	6203252831	3/19/2004	4/22/2004		
2003	20031244	OSAGE CITY MUNICIPAL GAS SYSTEM	14370	201 S. FIFTH ST BOX 256	OSAGE CITY	OSAGE	KS	66523						 KS	0	0	0	9	21	3	0	0	0	0	33	0	0	0	19	888	0	0	514	0	0	1421	0	2	7	0	0	0	9	0	0	0	0	0	0	0	0	0	0	0	0	0	0	0	3	0	0	0	0	3	0	1	0	0	0	0	1	0	11	9	0	0	0	20	0	0	0	0	0	0	0	0	0	0	0	0	0	0	0	0	0	0	0	0	0	0	17	16	0	0	0	33	70	0	10	9	0	0	0	19	0	0	0	0	0	0	0	0	514	0	0	0	0	514	0	0	0	0	0	0	0	0	0	0	0	0	0	0	0	868	20	0	0	0	888	0	0	0	0	0	0	0	0	0	0	0	0	0	0	0	0	0	0	0	0	0	0	1392	29	0	0	0	1421	4	0	0	0	1	4	0	0	0	0	0	0	2	0	0.4		MIKE GILLILAND	7855284124	3/19/2004	4/22/2004		
2003	20031245	"PALMER MUNICIPAL SYSTEM, CITY OF"	15070	BOX 61	PALMER	WASHINGTON	KS	66962						 KS	0	0	0	9	0	0	0	0	0	0	9	0	0	0	100	0	0	0	0	0	0	100	0	8	1	0	0	0	9	0	0	0	0	0	0	0	0	0	0	0	0	0	0	0	0	0	0	0	0	0	0	0	0	0	0	0	0	0	0	0	0	0	0	0	0	0	0	0	0	0	0	0	0	0	0	0	0	0	0	0	0	0	0	0	0	0	8	1	0	0	0	9	0	0	0	100	0	0	0	100	0	0	0	0	0	0	0	0	0	0	0	0	0	0	0	0	0	0	0	0	0	0	0	0	0	0	0	0	0	0	0	0	0	0	0	0	0	0	0	0	0	0	0	0	0	0	0	0	0	0	0	0	0	0	0	0	0	0	100	0	0	0	100	0	0	0	0	0	0	0	0	0	0	0	0	0	0	0		KAREN MUELLER	7856924260	3/19/2004	4/22/2004		
2003	20031246	"SUPERIOR ENERGY SERVICES, LLC"	31971	40260 N 281 HWY	PRATT	PRATT	KS	67124	333 S ALLISON PKWY #301	LAKEWOOD	JEFFERSON	CO	80226	 KS	0	0	9	8	97	0	0	0	0	0	114	0	166	36	0	0	0	0	0	0	0	202	0	0	17	0	0	0	17	0	0	0	0	0	0	0	0	0	0	0	0	0	0	0	0	0	0	0	0	0	0	0	97	0	0	0	97	0	0	0	0	0	0	0	0	0	0	0	0	0	0	0	0	0	0	0	0	0	0	0	0	0	0	0	0	0	0	114	0	0	0	114	8	0	0	202	0	0	0	202	0	0	0	0	0	0	0	0	0	0	0	0	0	0	0	0	0	0	0	0	0	0	0	0	0	0	0	0	0	0	0	0	0	0	0	0	0	0	0	0	0	0	0	0	0	0	0	0	0	0	0	0	0	0	0	0	0	0	202	0	0	0	202	0	0	0	0	1	0	0	0	0	0	0	0	0	0	3		"MARK A HANSON, VP ENGINEER"	3032501714	3/19/2004	5/6/2004		
2003	20031247	SEVERY GAS CO INC	18188	7685 SW CEDAR LANE	AUGUSTA	BUTLER	KS	67010						 KS	0	0	0	0	9	0	0	0	0	0	9	0	0	0	0	194	0	0	0	0	0	194	0	0	0	0	0	0	0	0	0	0	0	0	0	0	0	0	0	0	0	0	0	0	0	0	0	0	0	0	0	0	0	0	0	0	0	0	5	4	0	0	0	9	0	0	0	0	0	0	0	0	0	0	0	0	0	0	0	0	0	0	0	0	0	0	5	4	0	0	0	9	75	0	0	0	0	0	0	0	0	0	0	0	0	0	0	0	0	0	0	0	0	0	0	0	0	0	0	0	0	0	0	0	0	0	0	0	0	194	0	0	0	0	194	0	0	0	0	0	0	0	0	0	0	0	0	0	0	0	0	0	0	0	0	0	0	194	0	0	0	0	194	0	0	0	0	0	0	0	0	0	0	0	0	0	0	0		A.E. REISS	3167753431	3/19/2004	4/22/2004		
2003	20031248	"HANSON ENGINEERING, L.C."	31539	12411 ROAD J	LIBERAL	SEWARD	KS	67901						 KS	0	0	0	0	6	0	0	0	0	0	6	0	0	0	0	15	0	0	0	0	0	15	0	0	0	0	0	0	0	0	0	0	0	0	0	0	0	0	0	0	0	0	0	0	0	0	0	0	0	0	0	0	0	0	0	0	0	0	0	6	0	0	0	6	0	0	0	0	0	0	0	0	0	0	0	0	0	0	0	0	0	0	0	0	0	0	0	6	0	0	0	6	40	0	0	0	0	0	0	0	0	0	0	0	0	0	0	0	0	0	0	0	0	0	0	0	0	0	0	0	0	0	0	0	0	0	0	0	0	0	15	0	0	0	15	0	0	0	0	0	0	0	0	0	0	0	0	0	0	0	0	0	0	0	0	0	0	0	15	0	0	0	15	0	0	0	0	0	0	0	0	0	0	0	0	0	0	2	"SWKI-STEVENS SOUTHEAST, INC."	RICHARD L. HANSON	6206265777	2/25/2004	4/26/2004		
2003	20031249	"HANSON ENGINEERING, L.C."	31539	12411 ROAD J	LIBERAL 	SEWARD	KS	67901						 KS	0	0	0	1	16	0	0	0	0	0	17	0	0	0	0	32	0	0	0	0	0	32	0	0	1	0	0	0	1	0	0	0	0	0	0	0	0	0	0	0	0	0	0	0	0	0	0	0	0	0	0	0	0	0	0	0	0	0	10	6	0	0	0	16	0	0	0	0	0	0	0	0	0	0	0	0	0	0	0	0	0	0	0	0	0	0	10	7	0	0	0	17	40	0	0	0	0	0	0	0	0	0	0	0	0	0	0	0	0	0	0	0	0	0	0	0	0	0	0	0	0	0	0	0	0	0	0	0	0	0	32	0	0	0	32	0	0	0	0	0	0	0	0	0	0	0	0	0	0	0	0	0	0	0	0	0	0	0	32	0	0	0	32	0	0	0	0	0	0	0	0	0	0	0	0	0	0	2	"SWKI-STEVEN LOWER S.E., INC."	RICHARD HANSON	6206265777	2/25/2004	4/26/2004		
2003	20031250	"HANSON ENGINEERING, L.C."	31539	12411 ROAD J	LIBERAL	SEWARD	KS	67901						 KS	0	0	0	0	15	0	0	0	0	0	15	0	0	0	0	16	0	0	0	0	0	16	0	0	0	0	0	0	0	0	0	0	0	0	0	0	0	0	0	0	0	0	0	0	0	0	0	0	0	0	0	0	0	0	0	0	0	0	4	11	0	0	0	15	0	0	0	0	0	0	0	0	0	0	0	0	0	0	0	0	0	0	0	0	0	0	4	11	0	0	0	15	40	0	0	0	0	0	0	0	0	0	0	0	0	0	0	0	0	0	0	0	0	0	0	0	0	0	0	0	0	0	0	0	0	0	0	0	0	0	16	0	0	0	16	0	0	0	0	0	0	0	0	0	0	0	0	0	0	0	0	0	0	0	0	0	0	0	16	0	0	0	16	0	0	0	0	0	0	0	0	0	0	0	0	0	0	2	"SWKI-SEWARD W. CENTRAL, INC."	RICHARD HANSON	6206265777	2/25/2004	4/26/2004		
2003	20031251	PLAINS PRODUCERS INC	31496	12411 ROAD J	LIBERAL	SEWARD	KS	67901						 KS	0	0	0	5	25	0	0	0	0	0	30	0	0	0	0	34	0	0	0	0	0	34	0	2	2	0	0	0	4	0	0	0	0	0	0	0	0	0	0	0	0	0	0	0	0	0	0	0	0	0	0	0	0	0	0	0	0	0	12	12	0	0	0	24	0	0	0	0	0	0	0	0	0	0	0	0	0	0	0	0	0	0	0	0	0	0	14	14	0	0	0	28	40	0	0	0	0	0	0	0	0	0	0	0	0	0	0	0	0	0	0	0	0	0	0	0	0	0	0	0	0	0	0	0	0	0	0	0	0	0	34	0	0	0	34	0	0	0	0	0	0	0	0	0	0	0	0	0	0	0	0	0	0	0	0	0	0	0	34	0	0	0	34	0	0	0	0	1	0	0	0	0	0	0	0	0	0	3		RICHARD L. HANSON	6206265777	3/19/2004	4/22/2004		
2003	20031252	"HANSON ENGINEERING, L.C."	31539	12411 ROAD J	LIBERAL	SEWARD	KS	67901						 KS	0	0	0	0	15	0	0	0	0	0	15	0	0	0	0	19	0	0	0	0	0	19	0	0	0	0	0	0	0	0	0	0	0	0	0	0	0	0	0	0	0	0	0	0	0	0	0	0	0	0	0	1	0	0	0	0	1	0	6	8	0	0	0	14	0	0	0	0	0	0	0	0	0	0	0	0	0	0	0	0	0	0	0	0	0	0	7	8	0	0	0	15	40	0	0	0	0	0	0	0	0	0	0	0	0	0	0	0	0	0	0	0	0	0	0	0	0	0	0	0	0	0	0	0	0	0	0	0	0	0	19	0	0	0	19	0	0	0	0	0	0	0	0	0	0	0	0	0	0	0	0	0	0	0	0	0	0	0	19	0	0	0	19	0	0	0	0	0	0	0	0	0	0	0	0	0	0	2	"SWKI-SPIKES NORTH, INC."	RICHARD HANSON	6206265777	2/25/2004	4/26/2004		
2003	20031253	"HANSON ENGINEERING, L.C."	31539	12411 ROAD J 	LIBERAL 	SEWARD	KS	67901						 KS	0	0	0	4	47	0	0	0	0	0	51	0	0	0	0	50	0	0	0	0	0	50	0	2	2	0	0	0	4	0	0	0	0	0	0	0	0	0	0	0	0	0	0	0	0	0	0	0	0	0	0	0	0	0	0	0	0	0	43	4	0	0	0	47	0	0	0	0	0	0	0	0	0	0	0	0	0	0	0	0	0	0	0	0	0	0	45	6	0	0	0	51	40	0	0	0	0	0	0	0	0	0	0	0	0	0	0	0	0	0	0	0	0	0	0	0	0	0	0	0	0	0	0	0	0	0	0	0	0	0	50	0	0	0	50	0	0	0	0	0	0	0	0	0	0	0	0	0	0	0	0	0	0	0	0	0	0	0	50	0	0	0	50	0	0	0	0	0	0	0	0	0	0	0	0	0	0	1	"SWKI-STEVENS N.E., INC."	RICHARD HANSON	6206265777	2/25/2004	4/26/2004		
2003	20031254	"HANSON ENGINEERING, L.C."	31539	12411 ROAD J	LIBERAL	SEWARD	KS	67901						 KS	0	0	0	0	37	0	0	0	0	0	37	0	0	0	0	46	0	0	0	0	0	46	0	0	0	0	0	0	0	0	0	0	0	0	0	0	0	0	0	0	0	0	0	0	0	0	0	0	0	0	0	0	0	0	0	0	0	0	25	12	0	0	0	37	0	0	0	0	0	0	0	0	0	0	0	0	0	0	0	0	0	0	0	0	0	0	25	12	0	0	0	37	40	0	0	0	0	0	0	0	0	0	0	0	0	0	0	0	0	0	0	0	0	0	0	0	0	0	0	0	0	0	0	0	0	0	0	0	0	0	46	0	0	0	46	0	0	0	0	0	0	0	0	0	0	0	0	0	0	0	0	0	0	0	0	0	0	0	46	0	0	0	46	0	0	0	0	0	0	0	0	0	0	0	0	0	0	2	"SWKI-STEVENS NORTH, INC."	RICHARD HANSON	6206265777	2/25/2004	4/26/2004		
2003	20031255	"HANSON ENGINEERING, L.C."	31539	12411 ROAD J	LIBERAL 	SEWARD	KS	67901						 KS	0	0	0	0	18	0	0	0	0	0	18	0	0	0	0	24	0	0	0	0	0	24	0	0	0	0	0	0	0	0	0	0	0	0	0	0	0	0	0	0	0	0	0	0	0	0	0	0	0	0	0	0	0	0	0	0	0	0	15	3	0	0	0	18	0	0	0	0	0	0	0	0	0	0	0	0	0	0	0	0	0	0	0	0	0	0	15	3	0	0	0	18	40	0	0	0	0	0	0	0	0	0	0	0	0	0	0	0	0	0	0	0	0	0	0	0	0	0	0	0	0	0	0	0	0	0	0	0	0	0	24	0	0	0	24	0	0	0	0	0	0	0	0	0	0	0	0	0	0	0	0	0	0	0	0	0	0	0	24	0	0	0	24	0	0	0	0	0	0	0	0	0	0	0	0	0	0	2	"SWKI-STEVENS EC, INC."	RICHARD HANSON	6206265777	2/25/2004	4/26/2004		
2003	20031256	"HANSON ENGINEERING, L.C."	31539	12411 ROAD J	LIBERAL	SEWARD	KS	67901						 KS	0	0	0	0	3	0	0	0	0	0	3	0	0	0	0	6	0	0	0	0	0	6	0	0	0	0	0	0	0	0	0	0	0	0	0	0	0	0	0	0	0	0	0	0	0	0	0	0	0	0	0	0	0	0	0	0	0	0	3	0	0	0	0	3	0	0	0	0	0	0	0	0	0	0	0	0	0	0	0	0	0	0	0	0	0	0	3	0	0	0	0	3	40	0	0	0	0	0	0	0	0	0	0	0	0	0	0	0	0	0	0	0	0	0	0	0	0	0	0	0	0	0	0	0	0	0	0	0	0	0	6	0	0	0	6	0	0	0	0	0	0	0	0	0	0	0	0	0	0	0	0	0	0	0	0	0	0	0	6	0	0	0	6	0	0	0	0	0	0	0	0	0	0	0	0	0	0	2	"SWKI-STEVENS HWS, INC."	RICHARD HANSON	6206265777	2/25/2004	4/26/2004		
2003	20031257	VIOLA GAS DEPT	21330	P.O. BOX 302	VIOLA	SEDGWICK	KS	67149						 KS	0	0	3	0	1	0	0	0	0	0	4	0	0	81	10	0	0	0	0	0	0	91	0	3	0	0	0	0	3	0	0	0	0	0	0	0	0	0	0	0	0	0	0	0	0	0	0	0	0	0	0	0	0	0	0	0	0	0	1	0	0	0	0	1	0	0	0	0	0	0	0	0	0	0	0	0	0	0	0	0	0	0	0	0	0	0	4	0	0	0	0	4	0	0	3	78	0	0	0	81	0	0	0	0	0	0	0	0	0	0	0	0	0	0	0	0	0	0	0	0	0	0	0	0	0	0	0	0	0	10	0	0	0	0	10	0	0	0	0	0	0	0	0	0	0	0	0	0	0	0	0	0	0	0	0	0	0	13	78	0	0	0	91	0	0	0	0	0	0	0	0	0	0	0	0	0	0	3.3		DWIGHT MOLLENKAMP	6205846672	3/19/2004	4/22/2004		
2003	20031258	"WALTON, CITY OF"	22120	PO BOX 200 / 122 MAIN	WALTON	HARVEY	KS	67151						 KS	0	0	0	9	2	0	0	0	0	0	11	0	0	0	135	0	0	0	0	0	0	135	0	2	7	0	0	0	9	0	0	0	0	0	0	0	0	0	0	0	0	0	0	0	0	0	0	0	0	0	0	0	0	0	0	0	0	0	1	1	0	0	0	2	0	0	0	0	0	0	0	0	0	0	0	0	0	0	0	0	0	0	0	0	0	0	3	8	0	0	0	11	0	0	113	0	0	0	0	113	0	0	0	0	0	0	0	0	0	0	0	0	0	0	0	0	0	0	0	0	0	0	0	0	0	0	0	0	0	20	0	2	0	0	22	0	0	0	0	0	0	0	0	0	0	0	0	0	0	0	0	0	0	0	0	0	0	133	0	2	0	0	135	0	0	0	0	0	0	0	1	0	0	0	0	0	0	0		MERLYN JOHNSON	6208374135	3/19/2004	4/22/2004		
2003	20031259	"WINDOM, CITY OF"	22714	P.O. BOX 38	WINDOM	MCPHERSON	KS	67491						 KS	0	0	0	0	2	0	0	0	0	0	2	0	0	0	0	90	0	0	0	0	0	90	0	0	0	0	0	0	0	0	0	0	0	0	0	0	0	0	0	0	0	0	0	0	0	0	0	0	0	0	0	0	0	0	0	0	0	0	2	0	0	0	0	2	0	0	0	0	0	0	0	0	0	0	0	0	0	0	0	0	0	0	0	0	0	0	2	0	0	0	0	2	10	0	0	0	0	0	0	0	0	0	0	0	0	0	0	0	0	0	0	0	0	0	0	0	0	0	0	0	0	0	0	0	0	0	0	0	0	90	0	0	0	0	90	0	0	0	0	0	0	0	0	0	0	0	0	0	0	0	0	0	0	0	0	0	0	90	0	0	0	0	90	0	0	0	0	0	0	0	0	0	2	0	0	0	0	0		KIM CROCKER	6204896221	3/19/2004	4/22/2004		
2003	20031260	"WINFIELD GAS DEPT, CITY OF"	22725	P.O. BOX 646 (2701 E. 9TH	WINFIELD	COWLEY	KS	67156						 KS	13	0	0	29	49	0	0	0	0	0	91	1408	0	0	55	3332	0	0	0	0	0	4795	0	15	21	6	0	0	42	0	0	0	0	0	0	0	0	0	0	0	0	0	0	0	0	0	0	0	0	0	0	0	0	0	0	0	0	0	40	8	1	0	0	49	0	0	0	0	0	0	0	0	0	0	0	0	0	0	0	0	0	0	0	0	0	0	55	29	7	0	0	91	80	0	55	1391	17	0	0	1463	0	0	0	0	0	0	0	0	0	0	0	0	0	0	0	0	0	0	0	0	0	0	0	0	0	0	0	0	0	3302	30	0	0	0	3332	0	0	0	0	0	0	0	0	0	0	0	0	0	0	0	0	0	0	0	0	0	0	3357	1421	17	0	0	4795	2	13	0	0	0	8	0	0	4	2	0	0	1	0	0.1		GEROGE A. BRONSON	6202215600	3/19/2004	4/22/2004		
2003	20031261	"WETMORE GAS DEPT, CITY OF"	22532	"PO BOX 248, 355 SECOND ST"	WETMORE	NEMAHA	KS	66550						 KS	0	0	0	5	0	0	0	0	0	0	5	0	0	0	183	0	0	0	0	0	0	183	0	2	3	0	0	0	5	0	0	0	0	0	0	0	0	0	0	0	0	0	0	0	0	0	0	0	0	0	0	0	0	0	0	0	0	0	0	0	0	0	0	0	0	0	0	0	0	0	0	0	0	0	0	0	0	0	0	0	0	0	0	0	0	0	2	3	0	0	0	5	18	0	0	183	0	0	0	183	0	0	0	0	0	0	0	0	0	0	0	0	0	0	0	0	0	0	0	0	0	0	0	0	0	0	0	0	0	0	0	0	0	0	0	0	0	0	0	0	0	0	0	0	0	0	0	0	0	0	0	0	0	0	0	0	0	0	183	0	0	0	183	0	0	0	0	0	0	0	0	0	0	0	0	0	0	3		MIKE CLOWE	7858662020	3/19/2004	4/22/2004		
2003	20031262	WINONA GAS	30007	"BOX 262, 3RD & MILES"	WINONA	LOGAN	KS	67764						 KS	0	0	0	0	22	0	0	0	0	0	22	0	0	0	0	179	0	0	0	0	0	179	0	0	0	0	0	0	0	0	0	0	0	0	0	0	0	0	0	0	0	0	0	0	0	0	0	0	0	0	0	0	0	0	0	0	0	8	0	14	0	0	0	22	0	0	0	0	0	0	0	0	0	0	0	0	0	0	0	0	0	0	0	0	0	8	0	14	0	0	0	22	0	0	0	0	0	0	0	0	0	0	0	0	0	0	0	0	0	0	0	0	0	0	0	0	0	0	0	0	0	0	0	0	0	0	0	0	0	174	2	3	0	0	179	0	0	0	0	0	0	0	0	0	0	0	0	0	0	0	0	0	0	0	0	0	0	174	2	3	0	0	179	0	0	0	0	0	2	0	0	0	0	0	0	0	0	0		MICHEAL W. MARGHEIM	7858467441	3/19/2004	4/22/2004		
2003	20031263	WESTVILLE GAS COMMISSION	22525	201 NORTH STATE STREET	WESTVILLE	WERMILION	IL	61883					61883	 IL	0	0	0	29	0	0	0	0	0	0	29	0	0	0	1593	0	0	0	0	0	0	1593	0	21	6	2	0	0	29	0	0	0	0	0	0	0	0	0	0	0	0	0	0	0	0	0	0	0	0	0	0	0	0	0	0	0	0	0	0	0	0	0	0	0	0	0	0	0	0	0	0	0	0	0	0	0	0	0	0	0	0	0	0	0	0	0	21	6	2	0	0	29	0	0	1513	80	0	0	0	1593	0	0	0	0	0	0	0	0	0	0	0	0	0	0	0	0	0	0	0	0	0	0	0	0	0	0	0	0	0	0	0	0	0	0	0	0	0	0	0	0	0	0	0	0	0	0	0	0	0	0	0	0	0	0	0	0	0	1513	80	0	0	0	1593	0	0	0	0	0	0	0	0	0	0	0	0	0	0	2.9		MICHAEL LARSON	2172672507	3/19/2004	4/22/2004		
2003	20031264	"ASHLAND MUNICIPAL GAS, TOWN OF"	729	15870 BOUDARY DRIVE	ASHLAND	BENTON	MS	38603						 MS	0	6	0	31	0	0	0	0	0	0	37	0	0	0	0	0	0	0	0	0	0	0	0	4	2	0	0	0	6	0	0	0	0	0	0	0	0	0	0	0	0	0	0	0	0	0	0	0	0	0	0	0	0	0	0	0	0	0	21	12	0	0	0	33	0	0	0	0	0	0	0	0	0	0	0	0	0	0	0	0	0	0	0	0	0	0	25	14	0	0	0	39	100	0	236	4	0	0	0	240	0	0	0	0	0	0	0	0	0	0	0	0	0	0	0	0	0	0	0	0	0	0	0	0	0	0	0	0	0	413	10	0	0	0	423	0	0	0	0	0	0	0	0	0	0	0	0	0	0	0	0	0	0	0	0	0	0	649	14	0	0	0	663	0	0	0	0	0	0	0	0	0	8	0	0	3	0	5		CHARLES FORTNER	6622246282	3/9/2004	4/22/2004		
2003	20031265	ELIZABETHTOWN NATURAL GAS	4360	200 WEST DIXIE AVE.	ELIZABETHTOWN	HARDIN	KY	42701						 KY	0	0	0	246	0	0	0	0	0	0	246	0	0	0	8378	0	0	0	0	0	0	8378	0	147	43	56	0	0	246	0	0	0	0	0	0	0	0	0	0	0	0	0	0	0	0	0	0	0	0	0	0	0	0	0	0	0	0	0	0	0	0	0	0	0	0	0	0	0	0	0	0	0	0	0	0	0	0	0	0	0	0	0	0	0	0	0	147	43	56	0	0	246	500	0	7564	807	7	0	0	8378	0	0	0	0	0	0	0	0	0	0	0	0	0	0	0	0	0	0	0	0	0	0	0	0	0	0	0	0	0	0	0	0	0	0	0	0	0	0	0	0	0	0	0	0	0	0	0	0	0	0	0	0	0	0	0	0	0	7564	807	7	0	0	8378	2	0	2	1	0	0	2	0	9	40	0	0	168	0	0.46		KIM COMPTON	2707656121	3/9/2004	4/22/2004		
2003	20031266	SHAWNEETOWN MUNICIPAL GAS SYSTEM	18248	300 E. LINCOLN BLVD	SHAWNEETOWN	GALLATIN	IL	62984						 IL	0	0	0	0	17	0	0	0	0	0	17	0	0	0	0	618	0	0	0	0	0	618	0	0	0	0	0	0	0	0	0	0	0	0	0	0	0	0	0	0	0	0	0	0	0	0	0	0	0	0	0	0	0	0	0	0	0	0	15	2	0	0	0	17	0	0	0	0	0	0	0	0	0	0	0	0	0	0	0	0	0	0	0	0	0	0	15	2	0	0	0	17	0	0	0	0	0	0	0	0	0	0	0	0	0	0	0	0	0	0	0	0	0	0	0	0	0	0	0	0	0	0	0	0	0	0	0	0	0	612	6	0	0	0	618	0	0	0	0	0	0	0	0	0	0	0	0	0	0	0	0	0	0	0	0	0	0	612	6	0	0	0	618	0	0	0	0	0	1	0	0	0	0	0	0	0	0	0	"THIS REPORT REFLECTS NEW SYSTEM TRANSFERED JUNE 17, 2003."	MIKE PRITCHARD	6182693253	3/9/2004	4/22/2004		
2003	20031267	"CREAL SPRINGS GAS UTILITY, CITY OF"	2868	507 WALNUT STREET	CREAL SPRINGS	WILLIAMSON	IL	62922						 IL	0	0	0	9	0	0	0	0	0	0	9	0	0	0	34	184	0	0	0	0	0	218	0	6	3	0	0	0	9	0	0	0	0	0	0	0	0	0	0	0	0	0	0	0	0	0	0	0	0	0	0	0	0	0	0	0	0	0	0	0	0	0	0	0	0	0	0	0	0	0	0	0	0	0	0	0	0	0	0	0	0	0	0	0	0	0	6	3	0	0	0	9	0	0	34	0	0	0	0	34	0	0	0	0	0	0	0	0	0	0	0	0	0	0	0	0	0	0	0	0	0	0	0	0	0	0	0	0	0	184	0	0	0	0	184	0	0	0	0	0	0	0	0	0	0	0	0	0	0	0	0	0	0	0	0	0	0	218	0	0	0	0	218	0	0	0	0	0	0	0	0	0	0	0	0	0	0	0		ROBERT SKAGGS / JOYCE RICH	6189962311	3/9/2004	4/22/2004		
2003	20031268	NEWBERN GAS DEPT	13430	103 JEFFERSON STREET	NEWBERN	DYER	TN	38059						 TN	0	0	0	41	45	0	0	0	0	0	86	0	0	0	816	1209	0	0	0	0	0	2025	0	0	29	12	0	0	41	0	0	0	0	0	0	0	0	0	0	0	0	0	0	0	0	0	0	0	0	0	0	0	45	0	0	0	45	0	0	0	0	0	0	0	0	0	0	0	0	0	0	0	0	0	0	0	0	0	0	0	0	0	0	0	0	0	0	74	12	0	0	86	100	0	806	10	0	0	0	816	0	0	0	0	0	0	0	0	0	0	0	0	0	0	0	0	0	0	0	0	0	0	1206	3	0	0	0	1209	0	0	0	0	0	0	0	0	0	0	0	0	0	0	0	0	0	0	0	0	0	0	0	0	0	0	0	0	0	2012	13	0	0	0	2025	0	0	0	7	0	0	0	0	0	0	0	0	0	0	7		ROSALIND GREEN	7316273221	3/7/2004	4/22/2004		
2003	20031269	"RURAL WATER, SEWER, GAS & SOLID WASTE MGMT. DIST. "	31984	60702 E 250 ROAD	GROVE		OK	74344						 OK	0	0	0	0	0	0	0	0	28	0	28	0	0	0	0	0	0	0	0	500	0	500	0	0	0	0	0	0	0	0	0	0	0	0	0	0	0	0	0	0	0	0	0	0	0	0	0	0	0	0	0	0	0	0	0	0	0	0	25	3	0	0	0	28	0	0	0	0	0	0	0	0	0	0	0	0	0	0	0	0	0	0	0	0	0	0	25	3	0	0	0	28	40	0	0	0	0	0	0	0	0	0	0	0	0	0	0	0	0	0	0	0	0	0	0	0	0	0	0	0	0	0	0	0	0	0	0	0	0	0	0	0	0	0	0	0	500	0	0	0	0	500	0	0	0	0	0	0	0	0	0	0	0	0	0	0	0	500	0	0	0	0	500	0	0	0	0	0	0	0	0	0	0	0	0	0	0	0		CARL TESREAU JR	9187919100	3/22/2004	5/27/2004		
2003	20031271	CAIRO PUBLIC UTILITIES SYSTEM	2016	1100 COMMERCIAL AVENUE	CAIRO	ALEXANDER	IL	62914					62914	 IL	0	0	0	9	7	0	0	0	0	0	16	0	0	0	0	183	0	0	0	0	0	183	0	4	5	0	0	0	9	0	0	0	0	0	0	0	0	0	0	0	0	0	0	0	0	0	0	0	0	0	0	0	0	0	0	0	0	0	7	0	0	0	0	7	0	0	0	0	0	0	0	0	0	0	0	0	0	0	0	0	0	0	0	0	0	0	11	5	0	0	0	16	0	0	0	0	0	0	0	0	0	0	0	0	0	0	0	0	0	0	0	0	0	0	0	0	0	0	0	0	0	0	0	0	0	0	0	0	0	183	0	0	0	0	183	0	0	0	0	0	0	0	0	0	0	0	0	0	0	0	0	0	0	0	0	0	0	183	0	0	0	0	183	0	0	0	1	0	0	0	0	0	0	0	0	0	0	0		"GLEN KLETT, ASSISTANT MANAGER"	6187343200	3/22/2004	4/22/2004		
2003	20031272	CAIRO PUBLIC UTILITIES SYSTEM	2016	1100 COMMERCIAL AVENUE	CAIRO	ALEXANDER	IL	62914						 IL	1	0	0	101	22	0	0	0	0	0	124	39	316	0	1565	879	0	0	0	0	0	2799	0	43	12	47	0	0	102	0	0	0	0	0	0	0	0	0	0	0	0	0	0	0	0	0	0	0	0	0	0	0	0	0	0	0	0	0	0	0	0	0	0	0	0	20	2	0	0	0	22	0	0	0	0	0	0	0	0	0	0	0	0	0	0	0	63	14	47	0	0	124	54	0	1840	76	4	0	0	1920	0	0	0	0	0	0	0	0	0	0	0	0	0	0	0	0	0	0	0	0	0	0	0	0	0	0	0	0	0	868	10	1	0	0	879	0	0	0	0	0	0	0	0	0	0	0	0	0	0	0	0	0	0	0	0	0	0	2708	86	5	0	0	2799	0	0	0	11	0	0	0	0	0	0	1	32	0	0	0		"GLEN KLETT, ASSISTANT MANAGER"	6187343200	3/22/2004	4/22/2004		
2003	20031273	"FORT VALLEY GAS DEPARTMENT, CITY OF"	5490	500 ANTHOINE ST BOX 1529	FORT VALLEY	PEACH	GA	31030						 GA	0	0	0	120	18	0	0	0	0	0	138	0	0	0	3048	870	0	0	0	0	0	3918	0	73	10	37	0	0	120	0	0	0	0	0	0	0	0	0	0	0	0	0	0	0	0	0	0	0	0	0	0	0	0	0	0	0	0	0	13	5	0	0	0	18	0	0	0	0	0	0	0	0	0	0	0	0	0	0	0	0	0	0	0	0	0	0	86	15	37	0	0	138	100	0	3042	6	0	0	0	3048	0	0	0	0	0	0	0	0	0	0	0	0	0	0	0	0	0	0	0	0	0	0	0	0	0	0	0	0	0	859	11	0	0	0	870	0	0	0	0	0	0	0	0	0	0	0	0	0	0	0	0	0	0	0	0	0	0	3901	17	0	0	0	3918	4	7	0	0	1	3	2	0	0	0	0	3	3	0	2.8		LARRY FOGARTY	4788257701	3/22/2004	4/27/2004		
2003	20031274	SONORA J.S. WEST & CO PROPANE	31975	564 W STOCKTON RD	SONORA		CA	95370	564 W STOCKTON RD	SONORA		CA	95370	 CA	0	0	0	0	2	0	0	0	0	0	2	0	0	0	0	119	0	0	0	0	0	119	0	0	0	0	0	0	0	0	0	0	0	0	0	0	0	0	0	0	0	0	0	0	0	0	0	0	0	0	0	0	0	0	0	0	0	0	1	1	0	0	0	2	0	0	0	0	0	0	0	0	0	0	0	0	0	0	0	0	0	0	0	0	0	0	1	1	0	0	0	2	40	0	0	0	0	0	0	0	0	0	0	0	0	0	0	0	0	0	0	0	0	0	0	0	0	0	0	0	0	0	0	0	0	0	0	0	0	119	0	0	0	0	119	0	0	0	0	0	0	0	0	0	0	0	0	0	0	0	0	0	0	0	0	0	0	119	0	0	0	0	119	0	0	0	0	0	0	0	0	0	0	0	0	0	0	0		D C LEIBY LEAK CORROSION SURVEY CONTROL INSPECTION	6618315972	4/13/2004	5/24/2004		
2003	20031275	SONORA J.S. WEST & CO PROPANE	31975	564 W STOCKTON RD	SONORA		CA	95371	564 W STOCKTON RD	SONORA		CA	95371	 CA	0	0	0	0	6	0	0	0	0	0	6	0	0	0	0	134	0	0	0	0	0	134	0	0	0	0	0	0	0	0	0	0	0	0	0	0	0	0	0	0	0	0	0	0	0	0	0	0	0	0	0	0	0	0	0	0	0	0	2	4	0	0	0	6	0	0	0	0	0	0	0	0	0	0	0	0	0	0	0	0	0	0	0	0	0	0	2	4	0	0	0	6	39	0	0	0	0	0	0	0	0	0	0	0	0	0	0	0	0	0	0	0	0	0	0	0	0	0	0	0	0	0	0	0	0	0	0	0	0	134	0	0	0	0	134	0	0	0	0	0	0	0	0	0	0	0	0	0	0	0	0	0	0	0	0	0	0	134	0	0	0	0	134	0	0	0	0	0	0	0	0	0	0	0	0	0	0	0		D C LEIBY LEAK CORROSION SURVEY CONTROL INSPECTION	6618315972	4/13/2004	5/24/2004		
2003	20031276	"VICKSBURG, CITY OF"	21220	801 WASHINGTON STREET	VICKSBURG	WARREN	MS	39180						MS	0	46	7	45	63	8	0	0	0	0	169	0	0	0	6191	3238	0	0	0	0	0	9429	0	33	46	14	4	0	97	0	0	0	0	0	0	0	0	0	0	0	0	0	0	0	1	5	3	0	0	9	0	0	0	0	0	0	0	0	42	21	0	0	0	63	0	0	0	0	0	0	0	0	0	0	0	0	0	0	0	0	0	0	0	0	0	0	76	72	17	4	0	169	85	0	5979	766	3	0	0	6748	0	0	0	0	0	0	0	0	0	0	0	0	0	0	0	0	0	0	0	0	0	0	0	0	0	0	0	0	0	2455	225	1	0	0	2681	0	0	0	0	0	0	0	0	0	0	0	0	0	0	0	0	0	0	0	0	0	0	8434	991	4	0	0	9429	13	85	0	2	1	26	0	0	0	0	2	235	0	0	3.53		LYNDA P. POSEY	6016344547	4/22/2004	5/4/2004		
2003	20031277	EASTERN SHORE GAS CO	4150	115 67TH STREET	OCEAN CITY	WORCESTER	MD	21842						MD	27	0	0	0	217	0	0	0	0	0	244	1559	0	0	0	7955	0	0	0	0	0	9514	0	27	0	0	0	0	27	0	0	0	0	0	0	0	0	0	0	0	0	0	0	0	0	0	0	0	0	0	0	0	0	0	0	0	0	0	165	38	6	8	0	217	0	0	0	0	0	0	0	0	0	0	0	0	0	0	0	0	0	0	0	0	0	0	192	38	6	8	0	244	75	0	1569	0	0	0	0	1569	0	0	0	0	0	0	0	0	0	0	0	0	0	0	0	0	0	0	0	0	0	0	0	0	0	0	0	0	0	7695	130	0	0	0	7825	0	0	0	0	0	0	0	0	0	0	0	0	0	0	0	0	0	0	0	0	0	0	9264	130	0	0	0	9394	46	43	0	0	21	30	0	0	0	0	0	2	141	0	4		"JACQUES J REMMELL, VICE PRESIDENT"	4105247060	4/22/2004	5/4/2004		
2003	20031278	SOMERVILLE LIGHT GAS & WATER	18392	"PO BOX 909, 13085 N MAIN "	SOMERVILLE	FAYETTE	TN	38068						TN	0	0	0	42	157	0	0	0	0	0	199	0	0	0	638	3344	0	0	0	0	0	3982	0	13	10	19	0	0	42	0	0	0	0	0	0	0	0	0	0	0	0	0	0	0	0	0	0	0	0	0	0	0	0	0	0	0	0	0	80	75	2	0	0	157	0	0	0	0	0	0	0	0	0	0	0	0	0	0	0	0	0	0	0	0	0	0	93	85	21	0	0	199	142	0	616	22	0	0	0	638	0	0	0	0	0	0	0	0	0	0	0	0	0	0	0	0	0	0	0	0	0	0	0	0	0	0	0	0	0	3339	5	0	0	0	3344	0	0	0	0	0	0	0	0	0	0	0	0	0	0	0	0	0	0	0	0	0	0	3955	27	0	0	0	3982	0	0	0	0	17	57	0	0	0	6	0	0	0	0	7	PART E  17 THIRD PARTY LEAKS ON MAINS  57 THIRD PARTY LEAKS ON SERVICES  4 MILES MAINS ADDED - PURGED  344 SERVICES ADDED - PURGED	"ROBERT L GLOVER, MANAGER"	9014657300	4/16/2004	5/4/2004		
2003	20031279	"ALEXANDRIA MUNICIPLE GAS SYSTEM, CITY OF"	270	PO BOX 71	ALEXANDRIA	RAPIDES	LA	71309						LA	0	0	148	127	261	0	0	0	0	0	536	0	0	5325	2499	11237	0	0	0	0	0	19061	0	5	154	102	14	0	275	0	0	0	0	0	0	0	0	0	0	0	0	0	0	0	0	0	0	0	0	0	0	0	0	0	0	0	0	0	204	43	13	1	0	261	0	0	0	0	0	0	0	0	0	0	0	0	0	0	0	0	0	0	0	0	0	0	209	197	115	15	0	536	25	0	2756	3785	1283	0	0	7824	0	0	0	0	0	0	0	0	0	0	0	0	0	0	0	0	0	0	0	0	0	0	0	0	0	0	0	0	0	10610	503	124	0	0	11237	0	0	0	0	0	0	0	0	0	0	0	0	0	0	0	0	0	0	0	0	0	0	13366	4288	1407	0	0	19061	155	75	0	0	200	132	2	1	1	1	0	0	9	0	4		"CLAY R. VANDERLICK, SUPERINTENDENT"	3184416064	4/16/2004	5/4/2004		
2003	20031280	SOUTHEAST ALABAMA GAS DISTRICT	18456	P.O. BOX 1338	ANDALUSIA	COVINGTON	AL	36420						AL	0	0	0	850	403	12	0	0	0	0	1265	0	0	13023	15865	14661	0	0	0	0	0	43549	0	308	450	92	0	0	850	0	0	0	0	0	0	0	0	0	0	0	0	0	0	0	6	6	0	0	0	12	0	0	0	0	0	0	0	0	358	45	0	0	0	403	0	0	0	0	0	0	0	0	0	0	0	0	0	0	0	0	0	0	0	0	0	0	672	501	92	0	0	1265	0	0	15531	325	8	1	0	15865	0	0	0	0	0	0	0	0	0	0	0	0	0	0	0	0	0	0	0	0	0	0	0	0	0	0	0	0	0	14459	201	1	0	0	14661	0	0	0	0	0	0	0	0	0	0	0	0	0	0	0	12999	23	0	1	0	13023	0	42989	549	9	2	0	43549	7	22	0	0	37	122	7	0	3	8	20	75	76	64		UNACCOUNTED FOR GAS -2.4%	"AL BEAN, DIRECTOR OF GAS MGMT"	3342224177	3/22/2004	5/4/2004		
2003	20031281	"BRADY MUNICIPAL GAS CORP, CITY OF"	1688	900 W. 1ST. ST.	BRADY	MCCULLOCH	TX	76825						TX	25	25	0	0	24	0	0	0	0	0	74	1077	885	0	0	759	0	0	0	0	0	2721	0	26	12	2	0	0	40	0	0	0	0	0	0	0	0	0	0	0	0	0	0	0	0	0	0	0	0	0	0	0	0	0	0	0	0	0	15	16	3	0	0	34	0	0	0	0	0	0	0	0	0	0	0	0	0	0	0	0	0	0	0	0	0	0	41	28	5	0	0	74	15	0	950	972	31	0	0	1953	0	0	0	0	0	0	0	0	0	0	0	0	0	0	0	0	0	0	0	0	0	0	0	0	0	0	0	0	0	202	563	3	0	0	768	0	0	0	0	0	0	0	0	0	0	0	0	0	0	0	0	0	0	0	0	0	0	1152	1535	34	0	0	2721	17	5	0	0	0	0	0	0	0	0	0	0	27	0	7		MARVIN SMITH	3255972244	4/19/2004	5/4/2004		
2003	20031282	WAUKEE MUNICIPAL GAS	22235	230 HIGHWAY 6	WAUKEE	DALLAS	IA	50263						IA	0	0	0	15	38	0	0	0	0	0	53	0	0	0	721	1743	0	0	0	0	0	2464	0	9	1	5	0	0	15	0	0	0	0	0	0	0	0	0	0	0	0	0	0	0	0	0	0	0	0	0	0	0	0	0	0	0	0	0	20	12	6	0	0	38	0	0	0	0	0	0	0	0	0	0	0	0	0	0	0	0	0	0	0	0	0	0	29	13	11	0	0	53	75	0	717	4	0	0	0	721	0	0	0	0	0	0	0	0	0	0	0	0	0	0	0	0	0	0	0	0	0	0	0	0	0	0	0	0	0	1711	32	0	0	0	1743	0	0	0	0	0	0	0	0	0	0	0	0	0	0	0	0	0	0	0	0	0	0	2428	36	0	0	0	2464	0	0	0	0	1	4	0	0	0	0	0	0	5	0	0		DAVE DEZEEUW	5159874363	4/26/2004	5/4/2004		
2003	20031283	CITY GAS CO	2428	733 FIFTH AVENUE	ANTIGO	LANGLADE	WI	54409						WI	0	0	0	21	201	0	0	0	0	0	222	0	0	0	1154	3628	0	0	0	0	0	4782	0	0	14	6	1	0	21	0	0	0	0	0	0	0	0	0	0	0	0	0	0	0	0	0	0	0	0	0	0	0	0	0	0	0	0	0	0	136	64	1	0	201	0	0	0	0	0	0	0	0	0	0	0	0	0	0	0	0	0	0	0	0	0	0	0	150	70	2	0	222	100	0	1152	0	2	0	0	1154	0	0	0	0	0	0	0	0	0	0	0	0	0	0	0	0	0	0	0	0	0	0	0	0	0	0	0	0	0	3574	50	4	0	0	3628	0	0	0	0	0	0	0	0	0	0	0	0	0	0	0	0	0	0	0	0	0	0	4726	50	6	0	0	4782	0	0	0	0	2	4	0	0	0	0	0	0	2	0		UNACCOUNTED FOR GAS -2.65%	RODNEY D MADESON	7156274351	4/27/2004	5/4/2004		
2003	20031284	"SUPERIOR ENERGY CO, LLC"	31342	14428 WUOKSI STREET	KALEVA	MANISTEE	MI	49645	2674 S HURON RD	KAWKAWLIN	BAY	MI	48631	MI	0	0	0	0	53	0	0	0	0	0	53	0	0	0	0	0	0	0	0	0	0	0	0	0	0	0	0	0	0	0	0	0	0	0	0	0	0	0	0	0	0	0	0	0	0	0	0	0	0	0	0	0	0	0	0	0	0	0	19	18	16	0	0	53	0	0	0	0	0	0	0	0	0	0	0	0	0	0	0	0	0	0	0	0	0	0	19	18	16	0	0	53	165	0	0	0	0	0	0	0	0	0	0	0	0	0	0	0	0	0	0	0	0	0	0	0	0	0	0	0	0	0	0	0	0	0	0	0	0	137	1	0	0	0	138	0	0	0	0	0	0	0	0	0	0	0	0	0	0	0	0	0	0	0	0	0	0	137	1	0	0	0	138	0	0	0	0	1	2	0	0	0	0	0	0	0	0	1		BOB ROESE	2313622520	12/31/2003	5/4/2004		
2003	20031285	"RED BOILING SPRINGS (RBS) GAS UTILITY, INC."	30643	HIGHWAY NO 52/P.O BOX 348	RED BOILING SPRINGS	MACON	TN	37150	"PO BOX 1506, 105 SOMERFOR"	MADISON		MS	39130	TN	0	0	0	1	28	0	0	0	0	0	29	0	0	0	0	391	0	0	0	0	0	391	0	0	0	1	0	0	1	0	0	0	0	0	0	0	0	0	0	0	0	0	0	0	0	0	0	0	0	0	0	0	0	0	0	0	0	0	5	20	3	0	0	28	0	0	0	0	0	0	0	0	0	0	0	0	0	0	0	0	0	0	0	0	0	0	5	20	4	0	0	29	0	0	0	0	0	0	0	0	0	0	0	0	0	0	0	0	0	0	0	0	0	0	0	0	0	0	0	0	0	0	0	0	0	0	0	0	0	385	5	1	0	0	391	0	0	0	0	0	0	0	0	0	0	0	0	0	0	0	0	0	0	0	0	0	0	385	5	1	0	0	391	0	0	0	0	0	0	0	0	0	0	0	0	0	0	0		EDWARD R AYERS	6018566002	4/28/2004	5/4/2004		
2003	20031286	COON RAPIDS MUNICPIPAL UTILITIES	2768	123 3RD AVE    PO BOX 207	COON RAPIDS	CARROLL	IA	50058						IA	0	0	0	13	6	0	0	0	0	0	19	0	0	0	430	277	0	0	0	0	0	707	0	7	4	2	0	0	13	0	0	0	0	0	0	0	0	0	0	0	0	0	0	0	0	0	0	0	0	0	0	0	0	0	0	0	0	0	6	0	0	0	0	6	0	0	0	0	0	0	0	0	0	0	0	0	0	0	0	0	0	0	0	0	0	0	13	4	2	0	0	19	0	0	395	33	1	2	0	431	0	0	0	0	0	0	0	0	0	0	0	0	0	0	0	0	0	0	0	0	0	0	0	0	0	0	0	0	0	276	0	0	0	0	276	0	0	0	0	0	0	0	0	0	0	0	0	0	0	0	0	0	0	0	0	0	0	671	33	1	2	0	707	0	0	0	0	0	0	0	0	0	0	0	0	0	0	0		JON ESDOHR GAS FOREMAN	7129992225	4/28/2004	5/4/2004		
2003	20031287	SAN DIEGO GAS & ELECTRIC CO	18112	6875 CONSOLIDATED WAY	SAN DIEGO	SAN DIEGO	CA	92121	8330 CENTURY PARK COURT	SAN DIEGO	SAN DIEGO	CA	92123	CA	0	0	0	3596	3769	0	0	0	0	0	7365	0	0	0	267167	301863	0	0	0	0	0	569030	0	2628	568	352	40	8	3596	0	0	0	0	0	0	0	0	0	0	0	0	0	0	0	0	0	0	0	0	0	0	0	0	0	0	0	0	0	2857	873	39	0	0	3769	0	0	0	0	0	0	0	0	0	0	0	0	0	0	0	0	0	0	0	0	0	0	5485	1441	391	40	8	7365	56	0	258308	8607	252	0	0	267167	0	0	0	0	0	0	0	0	0	0	0	0	0	0	0	0	0	0	0	0	0	0	0	0	0	0	0	0	0	287600	13897	366	0	0	301863	0	0	0	0	0	0	0	0	0	0	0	0	0	0	0	0	0	0	0	0	0	0	545908	22504	618	0	0	569030	54	533	48	58	122	305	39	66	35	47	41	42	150	0	1		DONNA WALSH	8586533184	4/27/2004	5/4/2004		
2003	20031288	LAKE APOPKA NATURAL GAS DISTRICT	11096	1320 S VINELAND ROAD	WINTER GARDEN	ORANGE	FL	34787						FL	0	0	0	278	241	0	0	0	0	0	519	0	0	0	963	12003	0	0	489	0	0	13455	0	175	64	34	0	0	273	0	0	0	0	0	0	0	0	0	0	0	0	0	0	0	0	0	0	0	0	0	0	0	0	0	0	0	0	0	178	47	16	0	0	241	0	0	0	0	0	0	0	0	0	0	0	0	0	0	0	0	0	0	0	0	0	0	353	116	50	0	0	519	100	0	963	0	0	0	0	963	0	0	0	0	0	0	0	0	489	0	0	0	0	489	0	0	0	0	0	0	0	0	0	0	0	0	0	0	0	11991	12	0	0	0	12003	0	0	0	0	0	0	0	0	0	0	0	0	0	0	0	0	0	0	0	0	0	0	13443	12	0	0	0	13455	1	14	19	159	0	5	3	13	11	40	0	38	18	0	0		RICHARD W. GULLETT	4076562734	4/30/2004	5/4/2004		
2003	20031289	"OBERLIN, TOWN OF"	14035	207 W 5TH AVE	OBERLIN	ALLEN	LA	70655						LA	0	0	0	0	3	1	0	0	13	0	17	0	0	0	0	121	0	0	0	533	0	654	0	13	0	0	0	0	13	0	0	0	0	0	0	0	0	0	0	0	0	0	0	0	0	0	1	0	0	1	0	0	0	0	0	0	0	0	2	1	0	0	0	3	0	0	0	0	0	0	0	0	0	0	0	0	0	0	0	0	0	0	0	0	0	0	15	1	1	0	0	17	0	0	533	0	0	0	0	533	0	0	0	0	0	0	0	0	0	0	0	0	0	0	0	0	0	0	0	0	0	0	0	0	0	0	0	0	0	121	0	0	0	0	121	0	0	0	0	0	0	0	0	0	0	0	0	0	0	0	0	0	0	0	0	0	0	654	0	0	0	0	654	6	12	0	0	0	5	0	0	0	0	0	0	8	0	7.7		CLEGG CHAUMONT	3376392111	4/29/2004	5/4/2004		
2003	20031290	SCHOLL CANYON LANDFILL GAS LIMITED PARTNERSHIP	31986	3001 SCHOLL CANYON ROAD	GLENDALE	LOS ANGELES	CA	91206	13 ELM STREET SUITE 200	COHASSET	NORFOLK	MA	2025	 CA	0	0	0	0	5	0	0	0	0	0	5	0	0	0	0	0	0	0	0	0	0	0	0	0	0	0	0	0	0	0	0	0	0	0	0	0	0	0	0	0	0	0	0	0	0	0	0	0	0	0	0	0	0	0	0	0	0	0	0	0	0	5	0	5	0	0	0	0	0	0	0	0	0	0	0	0	0	0	0	0	0	0	0	0	0	0	0	0	0	5	0	5	30	0	0	0	0	0	1	1	0	0	0	0	0	0	0	0	0	0	0	0	0	0	0	0	0	0	0	0	0	0	0	0	0	0	0	0	0	0	0	0	0	0	0	0	0	0	0	0	0	0	0	0	0	0	0	0	0	0	0	0	0	0	0	0	0	0	0	0	0	1	1	0	0	0	0	0	0	0	0	0	0	0	0	0	0	0		DAVID A MARQUES	2063201320	5/5/2004	6/15/2004		
2003	20031291	CENTENNIAL UTILITIES	2368	200 CIVIC HEIGHTS CIRCLE	CIRCLE PINES	ANOKA	MN	55014						 MN	0	0	0	23	25	0	0	0	0	0	48	0	0	0	1680	1045	0	0	0	0	0	2725	0	17	5	1	0	0	23	0	0	0	0	0	0	0	0	0	0	0	0	0	0	0	0	0	0	0	0	0	0	0	0	0	0	0	0	0	18	6	1	0	0	25	0	0	0	0	0	0	0	0	0	0	0	0	0	0	0	0	0	0	0	0	0	0	35	11	2	0	0	48	69	0	1631	49	0	0	0	1680	0	0	0	0	0	0	0	0	0	0	0	0	0	0	0	0	0	0	0	0	0	0	0	0	0	0	0	0	0	1029	16	0	0	0	1045	0	0	0	0	0	0	0	0	0	0	0	0	0	0	0	0	0	0	0	0	0	0	2660	65	0	0	0	2725	0	0	0	0	0	0	0	0	0	0	0	0	0	0		UNACCOUNTED FOR GAS -1.7%	"TROY DAHLIN, P W DIRECTOR"	7637845898	3/10/2004	7/20/2004		
2003	20031292	SIGEL GAS	30069	1990 PACKING RD #2	NEW BETHLEHEM	CLARION	PA	16242					16242	PA	3	0	0	0	9	0	0	0	0	0	12	30	0	0	0	100	0	0	0	0	0	130	0	2	0	1	0	0	3	0	0	0	0	0	0	0	0	0	0	0	0	0	0	0	0	0	0	0	0	0	0	0	0	0	0	0	0	0	9	0	0	0	0	9	0	0	0	0	0	0	0	0	0	0	0	0	0	0	0	0	0	0	0	0	0	0	11	0	1	0	0	12	100	0	4	1	0	0	0	5	0	0	0	0	0	0	0	0	0	0	0	0	0	0	0	0	0	0	0	0	0	0	0	0	0	0	0	0	0	8	13	1	0	0	22	0	0	0	0	0	0	0	0	0	0	0	0	0	0	0	0	0	0	0	0	0	0	12	14	1	0	0	27	2	2	0	0	0	0	0	0	0	0	0	0	0	0	0		"SCOTT GOURLEY, MANAGER"	8142753390	5/4/2004	5/17/2004		
2003	20031293	PARSONS NATURAL GAS SYSTEM	15140	66 WEST SECOND STREET	PARSONS	DECATUR	TN	38363						TN	0	74	0	0	138	0	0	0	0	0	212	0	1205	0	0	2112	0	0	0	0	0	3317	0	54	20	0	0	0	74	0	0	0	0	0	0	0	0	0	0	0	0	0	0	0	0	0	0	0	0	0	0	0	0	0	0	0	0	0	107	21	11	0	0	139	0	0	0	0	0	0	0	0	0	0	0	0	0	0	0	0	0	0	0	0	0	0	161	41	11	0	0	213	0	1195	10	0	0	0	0	1205	0	0	0	0	0	0	0	0	0	0	0	0	0	0	0	0	0	0	0	0	0	0	0	0	0	0	0	0	1180	932	0	0	0	0	2112	0	0	0	0	0	0	0	0	0	0	0	0	0	0	0	0	0	0	0	0	0	2375	942	0	0	0	0	3317	0	0	0	0	0	0	0	0	0	0	0	0	0	0	6		"JUDY DAUGHERTY, CITY RECORDER"	7318476358	5/4/2004	5/17/2004		
2003	20031294	FRIENDSHIP GAS DEPT	5640	555 MAIN ST	FRIENDSHIP		TN	38034						TN	0	0	0	12	8	0	0	0	0	0	20	0	0	0	267	21	0	0	0	0	0	288	0	9	3	0	0	0	12	0	0	0	0	0	0	0	0	0	0	0	0	0	0	0	0	0	0	0	0	0	0	0	0	0	0	0	0	0	2	6	0	0	0	8	0	0	0	0	0	0	0	0	0	0	0	0	0	0	0	0	0	0	0	0	0	0	11	9	0	0	0	20	0	0	264	3	0	0	0	267	0	0	0	0	0	0	0	0	0	0	0	0	0	0	0	0	0	0	0	0	0	0	0	0	0	0	0	0	0	21	0	0	0	0	21	0	0	0	0	0	0	0	0	0	0	0	0	0	0	0	0	0	0	0	0	0	0	285	3	0	0	0	288	0	0	0	0	0	0	0	0	0	8	0	0	0	0	1.09		"NAT ROBERSON, PUBLIC WORKS DIRECTOR"	7316772396	5/4/2004	5/17/2004		
2003	20031295	"BRAZORIA, CITY OF"	1696	201 S MAIN	BRAZORIA	BRAZORIA	TX	77422						 TX	0	9	0	9	35	0	0	0	0	0	53	0	111	0	0	814	0	0	0	0	0	925	0	9	8	1	0	0	18	0	0	0	0	0	0	0	0	0	0	0	0	0	0	0	0	0	0	0	0	0	0	0	0	0	0	0	0	0	31	4	0	0	0	35	0	0	0	0	0	0	0	0	0	0	0	0	0	0	0	0	0	0	0	0	0	0	40	12	1	0	0	53	25	0	102	9	0	0	0	111	0	0	0	0	0	0	0	0	0	0	0	0	0	0	0	0	0	0	0	0	0	0	0	0	0	0	0	0	0	803	11	0	0	0	814	0	0	0	0	0	0	0	0	0	0	0	0	0	0	0	0	0	0	0	0	0	0	905	20	0	0	0	925	9	6	0	0	0	0	0	0	0	0	0	0	6	0	8.4	EQUIPMENT FAILURE WERE MAINLY 5-4-02 FISCHER REGULATORS LEAKING FROM DIAPHRAGM HOUSING	"JOHN DAVID JORDAN, PUBLIC WORKS DIRECTOR"	9797982489	5/4/2004	5/17/2004		
2003	20031296	NORTHERN STATE POWER CO OF WI	13783	1501 BLACK AVENUE	EAU CLAIRE	EAU CLAIRE	WI	54703	"PO BOX 8, 1414 W HAMILTON"	EAU CLAIRE		WI	54702	 WI	0	0	4	440	1402	0	0	0	0	0	1846	0	0	58	9049	76344	0	0	194	0	0	85645	0	208	127	91	16	2	444	0	0	0	0	0	0	0	0	0	0	0	0	0	0	0	0	0	0	0	0	0	0	0	0	0	0	0	0	0	1069	324	9	0	0	1402	0	0	0	0	0	0	0	0	0	0	0	0	0	0	0	0	0	0	0	0	0	0	1277	451	100	16	2	1846	80	0	7979	953	162	13	0	9107	0	0	0	0	0	0	0	0	194	0	0	0	0	194	0	0	0	0	0	0	0	0	0	0	0	0	0	0	0	73588	2550	203	3	0	76344	0	0	0	0	0	0	0	0	0	0	0	0	0	0	0	0	0	0	0	0	0	0	81761	3503	365	16	0	85645	0	0	2	2	16	45	0	0	0	0	16	102	51	0	0.19		"DANIEL A MOE, PRINCIPAL GAS CONSULTANT"	3035713119	3/15/2004	8/4/2004		
2003	20031297	NORTHERN STATE POWER CO OF WI	13783	1501 BLACK AVENUE	EAU CLAIRE	EAU CLAIRE	WI	54703	"PO BOX 8, 1414 W HAMILTON"	EAU CLAIRE		WI	54702	 MI	0	0	0	75	48	0	0	0	0	0	123	0	0	0	1793	3874	0	0	0	0	0	5667	0	50	14	10	1	0	75	0	0	0	0	0	0	0	0	0	0	0	0	0	0	0	0	0	0	0	0	0	0	0	0	0	0	0	0	0	38	10	0	0	0	48	0	0	0	0	0	0	0	0	0	0	0	0	0	0	0	0	0	0	0	0	0	0	88	24	10	1	0	123	80	0	1695	92	6	0	0	1793	0	0	0	0	0	0	0	0	0	0	0	0	0	0	0	0	0	0	0	0	0	0	0	0	0	0	0	0	0	3834	40	0	0	0	3874	0	0	0	0	0	0	0	0	0	0	0	0	0	0	0	0	0	0	0	0	0	0	5529	132	6	0	0	5667	0	0	0	0	1	0	0	0	0	0	3	9	0	0	3.01		"DANIEL A MOE, PRINCIPAL GAS CONSULTANT"	3035713119	3/15/2004	8/4/2004		
2003	20031298	PUBLIC SERVICE CO OF COLORADO	15931	"1123  W. 3RD AVENUE,"	DENVER	DENVER	CO	80223	P.O. BOX 840	DENVER		CO	80202	CO	113	123	0	8446	10198	151	0	0	0	0	19031	10980	0	0	402716	504428	0	0	0	0	0	918124	0	5385	1721	1044	175	357	8682	0	0	0	0	0	0	0	0	0	0	0	0	0	0	0	3	70	49	21	8	151	0	460	20	11	0	0	491	0	8432	1222	51	0	2	9707	0	0	0	0	0	0	0	0	0	0	0	0	0	0	0	0	0	0	0	0	0	0	14280	3033	1155	196	367	19031	50	0	349478	63458	1656	96	8	414696	0	0	0	0	0	0	0	0	0	0	0	0	0	0	0	0	0	0	0	0	0	0	41720	0	0	0	0	41720	0	439278	21748	674	8	0	461708	0	0	0	0	0	0	0	0	0	0	0	0	0	0	0	0	0	0	0	0	0	0	830476	85206	2330	104	8	918124	106	107	22	25	798	831	28	71	191	593	154	344	213	0	4.81		"DANIEL  A. MOE, PRINCIPAL GAS CONSULTANT"	3035713119	3/15/2004	5/17/2004		
2003	20031299	NORTHERN STATE POWER CO OF MN	31636	825 RICE STREET	ST PAUL	RAMSEY	MN	55117	414 NICOLLET MALL	MINNEAPOLIS	HENNEPIN	MN	55401	 MN	52	173	0	1102	6578	24	0	0	0	0	7929	3338	9654	0	24239	347672	0	0	1609	0	0	386512	0	442	463	317	77	28	1327	0	0	0	0	0	0	0	0	0	0	0	0	0	0	0	0	14	6	4	0	24	0	0	0	0	0	0	0	0	4753	1562	263	0	0	6578	0	0	0	0	0	0	0	0	0	0	0	0	0	0	0	0	0	0	0	0	0	0	5195	2039	586	81	28	7929	88	0	725	35998	446	62	0	37231	0	0	0	0	0	0	0	0	1609	0	0	0	0	1609	0	0	0	0	0	0	0	0	0	0	0	0	0	0	0	284607	62643	405	17	0	347672	0	0	0	0	0	0	0	0	0	0	0	0	0	0	0	0	0	0	0	0	0	0	286941	98641	851	79	0	386512	0	0	0	2	58	323	0	0	0	3	210	878	178	0	0.82		"DANIEL A MOE, PRINCIPAL GAS CONSULTANT"	3035713119	3/15/2004	8/4/2004		
2003	20031300	NORTHERN STATE POWER CO OF MN	31636	825 RICE STREET	ST PAUL 	RAMSEY	MN	55117	414 NICOLLET MALL	MINNEAPOLIS	HENNEPIN	MN	55401	 ND	0	0	0	210	558	0	0	0	0	0	768	83	412	0	4181	37355	0	0	18	0	0	42049	0	84	50	54	17	5	210	0	0	0	0	0	0	0	0	0	0	0	0	0	0	0	0	0	0	0	0	0	0	0	0	0	0	0	0	0	409	94	55	0	0	558	0	0	0	0	0	0	0	0	0	0	0	0	0	0	0	0	0	0	0	0	0	0	493	144	109	17	5	768	88	0	2	4608	60	5	1	4676	0	0	0	0	0	0	0	0	18	0	0	0	0	18	0	0	0	0	0	0	0	0	0	0	0	0	0	0	0	31908	5423	24	0	0	37355	0	0	0	0	0	0	0	0	0	0	0	0	0	0	0	0	0	0	0	0	0	0	31928	10031	84	5	1	42049	0	0	0	0	18	83	0	0	0	0	5	31	4	0	0.06		"DANIEL A MOE, PRINCIPAL GAS CONSULTANT"	3035713119	3/15/2004	8/4/2004		
2003	20031301	NORTHERN STATE POWER CO OF MN	31636	825 RICE STREET	ST PAUL	RAMSEY	MN	55117	414 NICOLLET MALL	MINNEAPOLIS	HENNEPIN	MN	55401	 SD	0	0	0	3	0	0	0	0	0	0	3	0	0	0	0	4	0	0	0	0	0	4	0	0	3	0	0	0	3	0	0	0	0	0	0	0	0	0	0	0	0	0	0	0	0	0	0	0	0	0	0	0	0	0	0	0	0	0	0	0	0	0	0	0	0	0	0	0	0	0	0	0	0	0	0	0	0	0	0	0	0	0	0	0	0	0	0	3	0	0	0	3	520	0	0	0	0	0	0	0	0	0	0	0	0	0	0	0	0	0	0	0	0	0	0	0	0	0	0	0	0	0	0	0	0	0	0	0	0	2	1	0	1	0	4	0	0	0	0	0	0	0	0	0	0	0	0	0	0	0	0	0	0	0	0	0	0	2	1	0	1	0	4	0	0	0	0	0	0	0	0	0	0	0	0	0	0	0		"DANIEL A MOE, PRINCIPAL GAS CONSULTANT"	3035713119	3/15/2004	8/4/2004		
2003	20031302	FALFURRIAS UTILITY BOARD	5055	"P O BOX 518, 215 E ALLEN"	FALFURRIAS 	BROOKS	TX	78355						 TX	0	0	4	8	25	0	0	0	0	0	37	0	0	0	37	1382	0	0	0	0	0	1419	0	8	4	0	0	0	12	0	0	0	0	0	0	0	0	0	0	0	0	0	0	0	16	1	0	0	0	17	0	8	0	0	0	0	8	0	0	0	0	0	0	0	0	0	0	0	0	0	0	0	0	0	0	0	0	0	0	0	0	0	0	0	0	0	32	5	0	0	0	37	12	0	0	37	0	0	0	37	0	0	0	0	0	0	0	0	0	0	0	0	0	0	0	0	0	0	0	0	0	0	0	97	0	0	0	97	0	46	1239	0	0	0	1285	0	0	0	0	0	0	0	0	0	0	0	0	0	0	0	0	0	0	0	0	0	0	46	1373	0	0	0	1419	1	50	0	0	1	48	0	0	0	0	0	75	0	0	25.9	"TO REDUCE THE HIGH GAS LOSSES (25.9%), THE UTILITY BOARD, CITY OF FALFURRIAS, HAS CONTRACTED GAS & SAFETY TRAINING INSTITUTE TO CONDUCT AND ENTIRE SYSTEM LEAK SURVEY DURING MAY & JUNE 2004."	BELEN RAMOS	3613252597	5/14/2004	5/24/2004		
2003	20031303	DADEVILLE WATER SUPPPLY & GAS BOARD	3050	192 SOUTH BROADNAX ST	DADEVILLE	TALLAPOOSA	AL	36853						 AL	0	0	0	25	28	4	0	0	0	0	57	189	0	64	0	637	0	0	0	0	0	890	0	0	25	0	0	0	25	0	0	0	0	0	0	0	0	0	0	0	0	0	0	0	0	3	1	0	0	4	0	17	0	0	0	0	17	0	0	8	3	0	0	11	0	0	0	0	0	0	0	0	0	0	0	0	0	0	0	0	0	0	0	0	0	0	17	36	4	0	0	57	125	0	64	0	0	0	0	64	0	0	0	0	0	0	0	0	0	0	0	0	0	0	0	189	0	0	0	0	189	0	631	6	0	0	0	637	0	0	0	0	0	0	0	0	0	0	0	0	0	0	0	0	0	0	0	0	0	0	0	0	0	0	0	0	0	884	6	0	0	0	890	0	0	0	0	0	0	0	0	0	0	0	0	0	0	3		ROLAND L HAMBY	2568259242	5/19/2004	5/24/2004		
2003	20031304	"LANETT GAS DEPT, CITY OF"	11216	401 NORTH LANIER AVENUE	LANETT	CHAMBERS	AL	36863						AL	0	0	0	35	8	9	0	0	0	0	52	246	0	0	536	2062	0	0	0	0	0	2844	0	34	0	1	0	0	35	0	0	0	0	0	0	0	0	0	0	0	0	0	0	0	0	8	1	0	0	9	0	0	0	0	0	0	0	0	4	4	0	0	0	8	0	0	0	0	0	0	0	0	0	0	0	0	0	0	0	0	0	0	0	0	0	0	38	12	2	0	0	52	35	0	534	2	0	0	0	536	0	0	0	0	0	0	0	0	0	0	0	0	0	0	0	246	0	0	0	0	246	0	0	0	0	0	0	0	0	2058	4	0	0	0	2062	0	0	0	0	0	0	0	0	0	0	0	0	0	0	0	0	0	0	0	0	0	0	2838	6	0	0	0	2844	9	2	0	0	0	0	0	0	4	2	0	0	1	0	1.9		LARRY RAY	3346445211	5/18/2004	5/24/2004		
2003	20031305	"ELLENSBURG GAS DEPT, CITY OF"	4400	420 NORTH PEARL STREET	ELLENSBURG	KITTITAS	WA	98926						WA	0	0	0	43	56	0	0	0	0	0	99	0	0	0	1397	2158	0	0	0	0	0	3555	0	28	10	5	0	0	43	0	0	0	0	0	0	0	0	0	0	0	0	0	0	0	0	0	0	0	0	0	0	0	0	0	0	0	0	0	29	18	9	0	0	56	0	0	0	0	0	0	0	0	0	0	0	0	0	0	0	0	0	0	0	0	0	0	57	28	14	0	0	99	77	0	1390	5	1	1	0	1397	0	0	0	0	0	0	0	0	0	0	0	0	0	0	0	0	0	0	0	0	0	0	0	0	0	0	0	0	0	2151	7	0	0	0	2158	0	0	0	0	0	0	0	0	0	0	0	0	0	0	0	0	0	0	0	0	0	0	3541	12	1	1	0	3555	0	0	0	0	4	8	0	0	1	4	4	19	0	0	0	 	"MATTHEW BOAST, ENERGY SERVICES DIRECTOR"	5099258630	5/7/2004	5/24/2004		
2003	20031306	COLORADO NATURAL GAS INC.	31316	7810 SHAFFER PARKWAY	LITTLETON	JEFFERSON	CO	80127						CO	0	0	0	31	264	0	0	0	0	0	295	0	0	0	0	4850	0	0	0	0	0	4850	0	0	14	16	0	0	30	0	0	0	0	0	0	0	0	0	0	0	0	0	0	0	0	0	0	0	0	0	0	0	0	0	0	0	0	0	188	75	2	0	0	265	0	0	0	0	0	0	0	0	0	0	0	0	0	0	0	0	0	0	0	0	0	0	188	89	18	0	0	295	142	0	0	0	0	0	0	0	0	0	0	0	0	0	0	0	0	0	0	0	0	0	0	0	0	0	0	0	0	0	0	0	0	0	0	0	0	4790	60	0	0	0	4850	0	0	0	0	0	0	0	0	0	0	0	0	0	0	0	0	0	0	0	0	0	0	4790	60	0	0	0	4850	0	0	0	0	0	0	0	0	0	0	0	0	0	0	0.27		"TIMOTHY R JOHNSTON, VICE PRESIDENT OF ENGINEERING"	3039797680	5/11/2004	5/24/2004		
2003	20031307	"GOLDEN MEADOW GAS DEPT, TOWN OF"	6420	313 NORTH BAYOU DRIVE	GOLDEN MEADOW	LAFOURCHE	LA	70357						LA	0	0	0	1	29	0	0	0	0	0	30	0	0	0	0	916	0	0	0	0	0	916	0	1	0	0	0	0	1	0	0	0	0	0	0	0	0	0	0	0	0	0	0	0	0	0	0	0	0	0	0	23	0	5	0	0	28	0	1	0	0	0	0	1	0	0	0	0	0	0	0	0	0	0	0	0	0	0	0	0	0	0	0	0	0	0	25	0	5	0	0	30	0	25	0	0	0	0	0	25	0	0	0	0	0	0	0	0	0	0	0	0	0	0	0	0	0	0	0	0	0	834	7	0	0	0	0	841	50	0	0	0	0	0	50	0	0	0	0	0	0	0	0	0	0	0	0	0	0	0	0	0	0	0	0	0	909	7	0	0	0	0	916	2	12	0	0	3	1	0	0	0	0	0	9	0	0	2.1	"CORROSIONS - ANOLES RISERS OFF OF PLASTIC SERVICE LINES/THREADED TOP. OTHER - REGULATORS, VALVES - METER SET - UPS"	"DALLAS MARLROUGH, GAS FOREMAN"	9854755212	5/11/2004	5/24/2004		
2003	20031308	WHEELWRIGHT UTILITY COMMISSION	30524	P O BOX 353	WHEELWRIGLB	FLOYD	KY	41669						 KY	0	0	0	0	4	0	0	0	0	0	4	0	0	0	0	251	0	0	0	0	0	251	0	0	0	0	0	0	0	0	0	0	0	0	0	0	0	0	0	0	0	0	0	0	0	0	0	0	0	0	0	0	0	0	0	0	0	0	2	2	0	0	0	4	0	0	0	0	0	0	0	0	0	0	0	0	0	0	0	0	0	0	0	0	0	0	2	2	0	0	0	4	0	0	0	0	0	0	0	0	0	0	0	0	0	0	0	0	0	0	0	0	0	0	0	0	0	0	0	0	0	0	0	0	0	0	0	0	0	242	8	1	0	0	251	0	0	0	0	0	0	0	0	0	0	0	0	0	0	0	0	0	0	0	0	0	0	242	8	1	0	0	251	0	3	0	2	0	0	0	0	0	0	0	0	5	0	4		"MIKE TAKETT, SUPERINTENDENT UTILITIES"	6064524273	5/20/2004	5/24/2004		
2003	20031309	ARKANSAS WESTERN GAS COMPANY - NORTHEAST REGION	756	"PO BOX 13288, 1001 SAIN "	FAYETTEVILLE	WASHINGTON	AR	72703						 AR	0	0	0	306	219	2	0	0	0	0	527	0	0	0	12622	10780	0	0	0	0	0	23402	0	239	57	9	1	0	306	0	0	0	0	0	0	0	0	0	0	0	0	0	0	0	0	0	2	0	0	2	0	23	0	0	0	0	23	0	167	29	0	0	0	196	0	0	0	0	0	0	0	0	0	0	0	0	0	0	0	0	0	0	0	0	0	0	429	86	11	1	0	527	68	0	11625	980	17	0	0	12622	0	0	0	0	0	0	0	0	0	0	0	0	0	0	0	0	0	0	0	0	0	0	0	0	0	0	0	0	0	10529	248	3	0	0	10780	0	0	0	0	0	0	0	0	0	0	0	0	0	0	0	0	0	0	0	0	0	0	22154	1228	20	0	0	23402	5	7	0	0	6	49	2	2	0	0	32	47	1	0	3.2		"CHARLES A BAYLES, SENIOR VICE PRESIDENT"	4795828264	5/24/2004	9/10/2004		
2003	20031310	FULTON MUNICIPAL GAS SYSTEM	5690	213 WEST WIYGUL ST	FULTON		MS	38843	100 WEST HILL	FULTON	ITAWAMBA	MS	38843	MS	0	0	0	44	68	0	0	0	0	0	112	0	0	0	0	0	0	0	0	0	0	0	0	44	0	0	0	0	44	0	0	0	0	0	0	0	0	0	0	0	0	0	0	0	0	0	0	0	0	0	0	68	0	0	0	0	68	0	0	0	0	0	0	0	0	0	0	0	0	0	0	0	0	0	0	0	0	0	0	0	0	0	0	0	0	0	112	0	0	0	0	112	160	0	812	31	0	0	0	843	0	0	0	0	0	0	0	0	0	0	0	0	0	0	0	0	0	0	0	0	0	0	0	0	0	0	0	0	0	1351	20	0	0	0	1371	0	0	0	0	0	0	0	0	0	0	0	0	0	0	0	0	0	0	0	0	0	0	2163	51	0	0	0	2214	0	0	0	0	0	0	0	0	0	0	0	9	0	0	9		"DAN PATE, CONSULTANT"	6628629004	3/5/2004	5/26/2004		
2003	20031311	MOULTON GAS SYSTEM	12824	14220 COURT ST	MOULTON	LAWRENCE	AL	35650						AL	0	0	0	38	56	0	0	0	0	0	94	0	0	210	288	1250	0	0	0	0	0	1748	0	12	26	0	0	0	38	0	0	0	0	0	0	0	0	0	0	0	0	0	0	0	0	0	0	0	0	0	0	0	0	0	0	0	0	0	22	34	0	0	0	56	0	0	0	0	0	0	0	0	0	0	0	0	0	0	0	0	0	0	0	0	0	0	34	60	0	0	0	94	150	0	475	23	0	0	0	498	0	0	0	0	0	0	0	0	0	0	0	0	0	0	0	0	0	0	0	0	0	0	0	0	0	0	0	0	0	1250	0	0	0	0	1250	0	0	0	0	0	0	0	0	0	0	0	0	0	0	0	0	0	0	0	0	0	0	1725	23	0	0	0	1748	0	0	1	6	0	0	0	0	0	0	0	0	0	0	2.5		"MIKE HAND, SUPERINTENDENT"	2059748551	5/13/2004	5/26/2004		
2003	20031312	RAMONA PUBLIC WORKS	17060	PO BOX 204	RAMONA	WASHINGTON	OK	74061						OK	0	0	0	14	13	0	0	0	0	0	27	0	0	0	264	83	0	0	0	0	0	347	0	3	11	0	0	0	14	0	0	0	0	0	0	0	0	0	0	0	0	0	0	0	0	0	0	0	0	0	0	0	0	0	0	0	0	0	0	0	0	0	0	0	0	6	7	0	0	0	13	0	0	0	0	0	0	0	0	0	0	0	0	0	0	0	9	18	0	0	0	27	20	0	264	0	0	0	0	264	0	0	0	0	0	0	0	0	0	0	0	0	0	0	0	0	0	0	0	0	0	0	0	0	0	0	0	0	0	0	0	0	0	0	0	0	83	0	0	0	0	83	0	0	0	0	0	0	0	0	0	0	0	0	0	0	0	347	0	0	0	0	347	3	0	0	0	5	12	0	0	0	0	0	0	20	0	8		"JANE CREATH, CITY CLERK"	9185362245	5/25/2004	6/10/2004		
2003	20031313	CHATTANOOGA GAS CO	2288	2207 OLAN MILLS DRIVE	CHATTANOOGA	HAMILTON	TN	37421						TN	57	0	0	605	782	38	0	0	0	0	1482	1028	0	0	15553	47977	0	0	0	0	0	64558	0	200	229	188	34	11	662	0	0	0	0	0	0	0	0	0	0	0	0	0	0	0	2	13	21	1	1	38	0	0	0	0	0	0	0	0	651	116	15	0	0	782	0	0	0	0	0	0	0	0	0	0	0	0	0	0	0	0	0	0	0	0	0	0	853	358	224	35	12	1482	109	0	12909	3532	120	20	0	16581	0	0	0	0	0	0	0	0	0	0	0	0	0	0	0	0	0	0	0	0	0	0	0	0	0	0	0	0	0	43334	4617	25	1	0	47977	0	0	0	0	0	0	0	0	0	0	0	0	0	0	0	0	0	0	0	0	0	0	56243	8149	145	21	0	64558	20	14	0	0	66	131	0	0	1	0	238	184	6	0	4.27	MAINS MILEAGES REPORTED REFLECT A MORE ACCURATE COUNT AND BREAKDOWN DUE TO THE ADDITION OF CORROSION INFORMATION TO THE COMPANY NEW MAPPING SYSTEM.	"ISAAC BLYTHERS, PRESIDENT"	4045843550	2/26/2004	5/26/2004		
2003	20031314	EAST CENTRAL ALABAMA GAS DISTRICT	30530	40717 HWY 77	ASHLAND	CLAY	AL	36251						AL	0	0	0	76	90	0	0	0	0	0	166	0	0	0	1518	1485	0	0	0	0	0	3003	0	0	66	6	4	0	76	0	0	0	0	0	0	0	0	0	0	0	0	0	0	0	0	0	0	0	0	0	0	0	0	0	0	0	0	0	76	14	0	0	0	90	0	0	0	0	0	0	0	0	0	0	0	0	0	0	0	0	0	0	0	0	0	0	76	80	6	4	0	166	248	0	1518	0	0	0	0	1518	0	0	0	0	0	0	0	0	0	0	0	0	0	0	0	0	0	0	0	0	0	0	0	0	0	0	0	0	0	1485	0	0	0	0	1485	0	0	0	0	0	0	0	0	0	0	0	0	0	0	0	0	0	0	0	0	0	0	3003	0	0	0	0	3003	0	0	0	0	0	5	0	0	0	12	0	0	0	0	0		"M IRVING THOMPSON, "	2563542194	2/25/2004	6/8/2004		
2003	20031315	"FRENCH SETTLEMENT GAS, LLC"	31989	16143 HWY 16	FRENCH SETTLEMENT		LA	70733						 LA	0	0	0	79	15	0	0	0	0	0	94	0	0	0	1539	0	0	0	0	0	0	1539	0	59	18	0	0	0	77	0	0	0	0	0	0	0	0	0	0	0	0	0	0	0	0	0	0	0	0	0	0	5	2	0	0	0	7	0	10	0	0	0	0	10	0	0	0	0	0	0	0	0	0	0	0	0	0	0	0	0	0	0	0	0	0	0	74	20	0	0	0	94	50	0	1210	0	0	0	0	1210	0	0	0	0	0	0	0	0	0	0	0	0	0	0	0	0	0	0	0	0	0	0	52	0	0	0	0	52	0	277	0	0	0	0	277	0	0	0	0	0	0	0	0	0	0	0	0	0	0	0	0	0	0	0	0	0	0	1539	0	0	0	0	1539	9	9	0	0	0	0	0	0	0	0	0	0	0	0	4.58		RUBEN L KELLER JR	2256983696	5/19/2004	6/17/2004		
2003	20031316	MOUNTAINEER GAS SERVICES	25170	2401 SISSONVILLE DRIVE	CHARLESTON	KANAWHA	WA	25312	800 CABIN HILL DRIVE	GREENSBURG	WESTMORELAND	PA	15601	 WA	32	0	0	9	0	0	0	0	0	0	41	28	0	0	10	0	0	0	0	0	0	38	0	0	2	38	1	0	41	0	0	0	0	0	0	0	0	0	0	0	0	0	0	0	0	0	0	0	0	0	0	0	0	0	0	0	0	0	0	0	0	0	0	0	0	0	0	0	0	0	0	0	0	0	0	0	0	0	0	0	0	0	0	0	0	0	0	2	38	1	0	41	5	0	0	33	5	0	0	38	0	0	0	0	0	0	0	0	0	0	0	0	0	0	0	0	0	0	0	0	0	0	0	0	0	0	0	0	0	0	0	0	0	0	0	0	0	0	0	0	0	0	0	0	0	0	0	0	0	0	0	0	0	0	0	0	0	0	33	5	0	0	38	4	0	0	0	0	0	0	0	1	0	0	0	6	0	0	SUPPLEMENTAL REPORT IS SUBMITTED TO REPLACE THE INITIAL 2003 GAS TRANSMISSION AND GATHERING SYSTEMS REPORT FILED BY MOUNTAINEER GAS SERVICES.	DAVID R OLIVER - SENIOR ENGINEER	3043470549	6/4/2004	6/15/2004		
2003	20031317	"FORT STOCKTON MUNICIPAL SYSTEM, CITY OF"	5470	121 WEST 2ND STREET	FORT STOCKTON	PECOS	TX	79735						TX	0	0	0	12	89	11	0	0	0	0	112	1248	0	0	1821	0	0	0	0	0	0	3069	0	2	10	0	0	0	12	0	0	0	0	0	0	0	0	0	0	0	0	0	0	0	7	4	0	0	0	11	0	5	0	0	0	0	5	0	67	13	0	0	0	80	0	4	0	0	0	0	4	0	0	0	0	0	0	0	0	0	0	0	0	0	0	0	85	27	0	0	0	112	60	0	2908	161	0	0	0	3069	0	0	0	0	0	0	0	0	0	0	0	0	0	0	0	0	0	0	0	0	0	0	0	0	0	0	0	0	0	0	0	0	0	0	0	0	0	0	0	0	0	0	0	0	0	0	0	0	0	0	0	0	0	0	0	0	0	2908	161	0	0	0	3069	3	0	0	1	0	0	0	0	2	0	0	0	0	0	1.22		CYNTHIA WILLIAMS-HOLLANDER	4323368525	6/4/2004	6/15/2004		
2003	20031318	"WALKER, TOWN OF"	22063	10136 FLORIDA BLVD	WALKER	LIVINGSTON	LA	70785						LA	0	0	0	134	136	0	0	0	0	2	272	0	0	0	2254	4549	0	0	0	0	14	6817	0	115	11	8	0	0	134	0	0	0	0	0	0	0	0	0	0	0	0	0	0	0	0	0	0	0	0	0	2	0	0	0	0	0	2	73	58	5	0	0	0	136	0	0	0	0	0	0	0	0	0	0	0	0	0	0	0	0	0	0	0	0	0	75	173	16	8	0	0	272	49	0	2254	0	0	0	0	2254	0	0	0	0	0	0	0	0	0	0	0	0	0	0	0	0	0	0	0	0	0	0	14	0	0	0	0	14	0	4533	16	0	0	0	4549	0	0	0	0	0	0	0	0	0	0	0	0	0	0	0	0	0	0	0	0	0	0	6801	16	0	0	0	6817	7	11	0	0	11	0	0	7	0	16	9	59	6	0	4	OTHER - LEAKS ON CUSTOMERS HOUSE/RESIDENTIAL APPLIANCES.	"LARRY WILLIAMS, GAS SUPERINTENDANT"	2256643123	6/4/2004	6/15/2004		
2003	20031319	SHADYSIDE GAS	31103	"P.O. BOX 24, MERIDIAN BRA"	BUTLER	BUTLER	PA	16001						PA	7	0	3	0	0	0	0	0	0	0	10	50	0	42	0	0	0	0	0	0	0	92	0	7	0	0	0	0	7	0	0	0	0	0	0	0	0	0	0	0	0	0	0	0	0	0	0	0	0	0	0	0	0	0	0	0	0	0	3	0	0	0	0	3	0	0	0	0	0	0	0	0	0	0	0	0	0	0	0	0	0	0	0	0	0	0	10	0	0	0	0	10	100	0	0	42	0	0	0	42	0	0	0	0	0	0	0	0	0	0	0	0	0	0	0	0	0	0	0	0	0	0	0	0	0	0	0	0	0	0	50	0	0	0	50	0	0	0	0	0	0	0	0	0	0	0	0	0	0	0	0	0	0	0	0	0	0	0	92	0	0	0	92	2	0	0	0	0	0	0	0	0	0	0	0	0	0	5		"JEFFREY J. FOLEY, VICE PRESIDENT"	7248673183	3/10/2004	6/15/2004		
2003	20031320	"PERRY, CITY OF"	15385	224 S. JEFFERSON STREET	PERRY	TAYLOR	FL	32347						FL	0	0	0	50	44	0	0	0	0	0	94	0	0	0	2196	1290	0	0	0	0	0	3486	0	34	16	0	0	0	50	0	0	0	0	0	0	0	0	0	0	0	0	0	0	0	0	0	0	0	0	0	0	0	0	0	0	0	0	0	41	3	0	0	0	44	0	0	0	0	0	0	0	0	0	0	0	0	0	0	0	0	0	0	0	0	0	0	75	19	0	0	0	94	129	0	2193	3	0	0	0	2196	0	0	0	0	0	0	0	0	0	0	0	0	0	0	0	0	0	0	0	0	0	0	0	0	0	0	0	0	0	1273	17	0	0	0	1290	0	0	0	0	0	0	0	0	0	0	0	0	0	0	0	0	0	0	0	0	0	0	3466	20	0	0	0	3486	0	0	0	0	1	11	0	0	0	0	8	178	0	0	0		WAYNE H. ENGLISH - SUPT OF GAS DIVISION	8505847940	2/11/2004	6/15/2004		
2003	20031321	"NEW HARMONY GAS DEPT, TOWN OF"	13280	520 E CHURCH ST	NEW HARMONY	POSEY	IN	47631						IN	0	0	0	14	0	0	0	0	0	0	14	0	0	0	546	28	0	0	0	0	0	574	0	9	5	0	0	0	14	0	0	0	0	0	0	0	0	0	0	0	0	0	0	0	0	0	0	0	0	0	0	0	0	0	0	0	0	0	0	0	0	0	0	0	0	0	0	0	0	0	0	0	0	0	0	0	0	0	0	0	0	0	0	0	0	0	9	5	0	0	0	14	75	0	542	4	0	0	0	546	0	0	0	0	0	0	0	0	0	0	0	0	0	0	0	0	0	0	0	0	0	0	0	0	0	0	0	0	0	28	0	0	0	0	28	0	0	0	0	0	0	0	0	0	0	0	0	0	0	0	0	0	0	0	0	0	0	570	4	0	0	0	574	0	0	0	0	0	0	1	0	0	0	1	32	2	0	0		"KARLA L ATKINS, CLERK TREASURER"	8126824846	2/20/2004	6/15/2004		
2003	20031322	SICILY ISLAND GAS CO	18304	"PO BOX 45, 101 SICILY AVE"	SICILY ISLAND	CATAHOULA	LA	71368						LA	0	0	3	5	0	0	0	0	0	0	8	0	0	60	0	0	0	0	0	0	0	60	0	3	0	0	0	0	3	0	0	0	0	0	0	0	0	0	0	0	0	0	0	0	0	0	0	0	0	0	0	0	0	0	0	0	0	0	5	0	0	0	0	5	0	0	0	0	0	0	0	0	0	0	0	0	0	0	0	0	0	0	0	0	0	0	8	0	0	0	0	8	0	0	60	1	0	0	0	61	0	0	0	0	0	0	0	0	0	0	0	0	0	0	0	0	0	0	0	0	0	0	0	0	0	0	0	0	0	177	0	0	0	0	177	0	0	0	0	0	0	0	0	0	0	0	0	0	0	0	0	0	0	0	0	0	0	237	1	0	0	0	238	0	0	0	0	0	0	0	0	6	7	0	0	5	0	0.07		"ALICE E PERRY, TOWN CLERK"	3183894472	6/1/2004	6/15/2004		
2003	20031323	"BOOKER GAS CO, CITY OF"	1622	214 S. MAIN	BOOKER	LIPSCOMB	TX	79005						TX	0	0	0	0	10	0	0	0	0	0	10	0	0	0	0	645	0	0	0	0	0	645	0	0	0	0	0	0	0	0	0	0	0	0	0	0	0	0	0	0	0	0	0	0	0	0	0	0	0	0	0	0	0	0	0	0	0	0	5	5	0	0	0	10	0	0	0	0	0	0	0	0	0	0	0	0	0	0	0	0	0	0	0	0	0	0	5	5	0	0	0	10	9	0	0	0	0	0	0	0	0	0	0	0	0	0	0	0	0	0	0	0	0	0	0	0	0	0	0	0	0	0	0	0	0	0	0	0	0	630	15	0	0	0	645	0	0	0	0	0	0	0	0	0	0	0	0	0	0	0	0	0	0	0	0	0	0	630	15	0	0	0	645	2	0	0	0	0	0	0	0	0	1	0	3	0	0	0		"DONALD R KERNS, CITY MANAGER"	8066584579	6/3/2004	6/15/2004		
2003	20031324	"MD RECYCLING, INC."	31987	1230 POTTERTOWN ROAD	MIDWAY	GREENE	TN	37809						 TN	0	0	0	2	0	0	0	0	0	0	2	0	0	0	0	0	0	0	0	0	0	0	0	0	2	0	0	0	2	0	0	0	0	0	0	0	0	0	0	0	0	0	0	0	0	0	0	0	0	0	0	0	0	0	0	0	0	0	0	0	0	0	0	0	0	0	0	0	0	0	0	0	0	0	0	0	0	0	0	0	0	0	0	0	0	0	0	2	0	0	0	2	0	0	0	0	0	0	0	0	0	0	0	0	0	0	0	0	0	0	0	0	0	0	0	0	0	0	0	0	0	0	0	0	0	0	0	0	0	0	0	0	0	0	0	0	0	0	0	0	0	0	0	0	0	0	0	0	0	0	0	0	0	0	0	0	0	0	0	0	0	0	0	0	0	0	0	0	0	0	0	0	0	0	0	0	0	0	EMS OPERATED GAS LINE IN YEAR 2002  MD RECYCLING HAS TAKEN OVER OPERATION IN YEAR 2003	JACK STOKES	4234224731	2/25/2004	6/15/2004		
2003	20031325	MONTPELIER GAS SYSTEM	12758	36400 HWY 16	MONTPELIER	ST. HELENA	LA	70422						LA	0	16	0	0	0	0	0	0	7	0	23	0	148	0	0	0	0	0	0	0	0	148	0	16	0	0	0	0	16	0	0	0	0	0	0	0	0	0	0	0	0	0	0	0	0	0	0	0	0	0	0	0	0	0	0	0	0	0	7	0	0	0	0	7	0	0	0	0	0	0	0	0	0	0	0	0	0	0	0	0	0	0	0	0	0	0	23	0	0	0	0	23	25	0	0	130	0	0	0	130	0	0	0	0	0	0	0	0	0	0	0	0	0	0	0	0	0	0	0	0	0	0	0	0	0	0	0	0	18	0	0	0	0	0	18	0	0	0	0	0	0	0	0	0	0	0	0	0	0	0	0	0	0	0	0	0	18	0	130	0	0	0	148	1	0	0	0	0	0	0	0	0	0	0	4	0	0	5		MAXINE ARD - ASST. CLERK	2257774400	1/22/2004	6/15/2004		
2003	20031326	BEDFORD COUNTY UTILITY DISTRICT	31694	"PO BOX 2755, 214 BETHANY "	SHELBYVILLE	BEDFORD	TN	37162						 TN	0	0	0	2	49	0	0	0	0	0	51	0	0	0	9	228	0	0	0	0	0	237	0	0	0	2	0	0	2	0	0	0	0	0	0	0	0	0	0	0	0	0	0	0	0	0	0	0	0	0	0	0	0	0	0	0	0	0	5	44	0	0	0	49	0	0	0	0	0	0	0	0	0	0	0	0	0	0	0	0	0	0	0	0	0	0	5	44	2	0	0	51	0	0	9	0	0	0	0	9	0	0	0	0	0	0	0	0	0	0	0	0	0	0	0	0	0	0	0	0	0	0	0	0	0	0	0	0	0	215	13	0	0	0	228	0	0	0	0	0	0	0	0	0	0	0	0	0	0	0	0	0	0	0	0	0	0	224	13	0	0	0	237	0	0	0	0	0	1	0	0	0	0	0	0	0	0	4.6		"WALTER L BOBO, GENERAL MANAGER"	9316841667	2/24/2004	6/15/2004		
2003	20031327	"PROVIDENCE, CITY OF"	15903	201 EAST MAIN ST	PROVIDENCE	WEBSTER	KY	42450						KY	0	0	0	36	12	0	0	0	0	0	48	0	0	0	1274	469	0	0	0	0	0	1743	0	32	4	0	0	0	36	0	0	0	0	0	0	0	0	0	0	0	0	0	0	0	0	0	0	0	0	0	0	9	3	0	0	0	12	0	0	0	0	0	0	0	0	0	0	0	0	0	0	0	0	0	0	0	0	0	0	0	0	0	0	0	0	0	41	7	0	0	0	48	60	0	1274	50	0	0	0	1324	0	0	0	0	0	0	0	0	0	0	0	0	0	0	0	0	0	0	0	0	0	0	419	0	0	0	0	419	0	0	0	0	0	0	0	0	0	0	0	0	0	0	0	0	0	0	0	0	0	0	0	0	0	0	0	0	0	1693	50	0	0	0	1743	3	0	0	0	0	0	0	0	0	16	0	0	0	0	0		RALPH ALEXANDER - DIRECTOR OF PUBLIC WORKS	2706672511	3/25/2004	6/15/2004		
2003	20031328	ST JAMES PARISH UTILITIES	18056	PO BOX 667	VACHERIE		LA	70090						LA	0	0	0	94	4	0	0	0	44	0	142	0	0	0	2214	0	0	0	0	652	0	2866	0	53	39	2	0	0	94	0	0	0	0	0	0	0	0	0	0	0	0	0	0	0	0	0	0	0	0	0	0	3	1	0	0	0	4	0	17	27	0	0	0	44	0	0	0	0	0	0	0	0	0	0	0	0	0	0	0	0	0	0	0	0	0	0	73	67	2	0	0	142	80	0	2214	0	0	0	0	2214	0	0	0	0	0	0	0	0	0	0	0	0	0	0	0	0	0	0	0	0	0	0	0	0	0	0	0	0	0	652	0	0	0	0	652	0	0	0	0	0	0	0	0	0	0	0	0	0	0	0	0	0	0	0	0	0	0	2866	0	0	0	0	2866	0	36	7	3	0	0	0	9	0	24	0	10	0	0	8.9		"DONALD D NASH, MANAGER"	2255682405	5/27/2004	6/15/2004		
2003	20031329	D & H GAS CO	3010	1008 E 4TH ST	DEQUINCY		LA	70633						 TX	0	0	0	0	13	0	0	0	0	0	13	0	0	0	297	31	0	0	0	0	0	328	0	0	0	0	0	0	0	0	0	0	0	0	0	0	0	0	0	0	0	0	0	0	0	0	0	0	0	0	0	11	0	0	0	0	11	0	1	1	0	0	0	2	0	0	0	0	0	0	0	0	0	0	0	0	0	0	0	0	0	0	0	0	0	0	12	1	0	0	0	13	30	0	0	0	0	0	0	0	0	0	0	0	0	0	0	0	0	0	0	0	0	0	0	0	0	0	0	0	0	0	297	0	0	0	0	297	0	31	0	0	0	0	31	0	0	0	0	0	0	0	0	0	0	0	0	0	0	0	0	0	0	0	0	0	0	328	0	0	0	0	328	0	1	0	0	0	0	0	0	0	3	0	0	0	0	2		GREGG PELOQUIN	3377866251	6/3/2004	8/25/2004		
2003	20031330	PRINCESS ANNE TOWNHOUSES	31976	30475 PINE KNOLL DRIVE	PRINCESS ANNE	SOMERSET	MD	21853	707 SABLE OAKS DRIVE	SOUTH PORTLAND	CUMBERLAND	ME	4106	 MD	0	0	0	0	1	0	0	0	0	0	1	0	12	0	0	0	0	0	0	0	0	12	0	0	0	0	0	0	0	0	0	0	0	0	0	0	0	0	0	0	0	0	0	0	0	0	0	0	0	0	0	0	0	0	0	0	0	0	1	0	0	0	0	1	0	0	0	0	0	0	0	0	0	0	0	0	0	0	0	0	0	0	0	0	0	0	1	0	0	0	0	1	8	0	0	12	0	0	0	12	0	0	0	0	0	0	0	0	0	0	0	0	0	0	0	0	0	0	0	0	0	0	0	0	0	0	0	0	0	0	0	0	0	0	0	0	0	0	0	0	0	0	0	0	0	0	0	0	0	0	0	0	0	0	0	0	0	0	12	0	0	0	12	0	0	0	0	0	0	0	0	0	0	0	0	0	0	0		"SHAWN M RHODES, MAINTENANCE TECHNICIAN"	4106514837	6/3/2004	6/15/2004		
2003	20031331	STARKS WATER & GAS INC	18624	1008 EAST FOURTH ST	DE QUINCY	CALCASIEU	LA	70633						LA	0	0	0	6	9	0	0	0	0	0	15	0	0	0	150	185	0	0	0	0	0	335	0	6	0	0	0	0	6	0	0	0	0	0	0	0	0	0	0	0	0	0	0	0	0	0	0	0	0	0	0	4	0	0	0	0	4	0	5	0	0	0	0	5	0	0	0	0	0	0	0	0	0	0	0	0	0	0	0	0	0	0	0	0	0	0	15	0	0	0	0	15	20	0	148	2	0	0	0	150	0	0	0	0	0	0	0	0	0	0	0	0	0	0	0	0	0	0	0	0	0	0	103	0	0	0	0	103	0	82	0	0	0	0	82	0	0	0	0	0	0	0	0	0	0	0	0	0	0	0	0	0	0	0	0	0	0	333	2	0	0	0	335	1	1	1	1	0	0	0	0	0	0	0	0	0	0	1.5		GREGG PELOQUIN - MANAGER	3187866251	6/3/2004	6/15/2004		
2003	20031332	"MONTGOMERY, TOWN OF"	12750	"PO BOX 99, 625 WOODLAND S"	MONTGOMERY	GRANT	LA	71454						LA	0	0	0	31	6	0	0	0	4	0	41	0	0	251	309	0	0	0	0	0	0	560	0	15	16	0	0	0	31	0	0	0	0	0	0	0	0	0	0	0	0	0	0	0	0	0	0	0	0	0	0	0	0	0	0	0	0	0	4	0	0	0	0	4	0	6	0	0	0	0	6	0	0	0	0	0	0	0	0	0	0	0	0	0	0	0	25	16	0	0	0	41	0	0	247	4	0	0	0	251	0	0	0	0	0	0	0	0	0	0	0	0	0	0	0	0	0	0	0	0	0	0	0	0	0	0	0	0	0	309	0	0	0	0	309	0	0	0	0	0	0	0	0	0	0	0	0	0	0	0	0	0	0	0	0	0	0	556	4	0	0	0	560	0	0	0	0	0	0	0	0	3	0	0	0	26	0		UNACCOUNTED FOR GAS -12.16%	"SHEILA MCMANUS, TOWN CLERK"	3186463474	6/2/2004	6/23/2004		
2003	20031333	RISING STAR CITY UTILITIES	17490	P O BOX 35 104 N MILLER	RISING STAR	EASTLAND	TX	76471						 TX	3	0	0	3	21	0	0	0	0	0	27	0	181	0	200	381	0	0	0	0	0	762	0	1	4	0	0	0	5	0	0	0	0	0	0	0	0	0	0	0	0	0	0	0	0	0	0	0	0	0	0	0	0	0	0	0	0	0	19	3	0	0	0	22	0	0	0	0	0	0	0	0	0	0	0	0	0	0	0	0	0	0	0	0	0	0	20	7	0	0	0	27	20	0	0	0	0	0	0	0	0	0	0	0	0	0	0	0	0	0	0	0	0	0	0	0	0	0	0	0	0	0	0	0	0	0	0	0	0	375	6	0	0	0	381	0	0	0	0	0	0	0	0	0	0	0	0	0	0	0	0	0	0	0	0	0	0	375	6	0	0	0	381	1	0	0	0	0	0	0	0	3	2	10	8	0	0	26		GERALD MYERS	2516434261	5/27/2004	12/8/2004		
2003	20031334	LENOIR CITY UTILITIES BOARD	11376	200 DEPOT STREET	LENOIR CITY	LOUDON	TN	37771						TN	0	0	0	39	117	0	0	0	0	0	156	0	0	0	1484	3190	0	0	0	0	0	4674	0	29	6	4	0	0	39	0	0	0	0	0	0	0	0	0	0	0	0	0	0	0	0	0	0	0	0	0	0	0	0	0	0	0	0	0	72	30	15	0	0	117	0	0	0	0	0	0	0	0	0	0	0	0	0	0	0	0	0	0	0	0	0	0	101	36	19	0	0	156	100	0	1466	12	6	0	0	1484	0	0	0	0	0	0	0	0	0	0	0	0	0	0	0	0	0	0	0	0	0	0	0	0	0	0	0	0	0	3186	4	0	0	0	3190	0	0	0	0	0	0	0	0	0	0	0	0	0	0	0	0	0	0	0	0	0	0	4652	16	6	0	0	4674	0	3	0	0	13	45	0	4	0	11	0	0	0	0	4		MIKE STRANGE - GAS ENGINEER	8659880708	3/2/2004	6/16/2004		
2003	20031335	"MIDWEST GAS STORAGE, INC."	30022	"499 E COUNTRY RD, 1350 N"	BRAZIL	CLAY	IN	47834	PO BOX 663	HINSDALE		IL	60522	 IN	0	0	0	14	0	0	0	0	0	0	14	0	0	0	11	0	0	0	0	0	0	11	0	0	0	0	14	0	14	0	0	0	0	0	0		0	0	0	0	0	0		0	0	0	0	0	0		0	0	0	0	0	0		0	0	0	0	0	0		0	0	0	0	0	0		0	0	0	0	0	0		0	0	0	0	0	0	0	0	0	0	0	14	0	14	0	0	0	0	6	4	1	11	0	0	0	0	0	0	0	0	0	0	0	0	0	0	0	0	0	0	0	0	0	0	0	0	0	0	0	0	0	0	0	0	0	0	0	0	0	0	0	0	0	0	0	0	0	0	0	0	0	0	0	0	0	0	0	0	0	0	0	6	4	1	11	0	0	0	0	0	0	0	0	0	0	0	0	0	0	0		"TERRENCE A. O'MALLEY, PRESIDENT"	6309209990	2/11/2004	6/16/2004		
2003	20031336	TERREBONNE PARISH CONSOLIDATED GOVERNMENT	19205	301 PLANT ROAD	HOUMA	TERREBONNE	LA	70363	P.O. BOX 6097	HOUMA	TERREBONNE	LA	70361	LA	0	0	0	129	219	53	0	0	0	0	401	0	0	0	1887	9368	934	0	4242	0	0	16431	0	97	15	17	0	0	129	0	0	0	0	0	0	0	0	0	0	0	0	0	0	0	42	11	0	0	0	53	0	18	19	0	0	0	37	0	133	49	0	0	0	182	0	0	0	0	0	0	0	0	0	0	0	0	0	0	0	0	0	0	0	0	0	0	290	94	17	0	0	401	25	0	1850	37	0	0	0	1887	0	0	0	0	0	0	0	0	4242	0	0	0	0	4242	0	0	934	0	0	0	934	0	0	0	0	0	0	0	0	9368	0	0	0	0	9368	0	0	0	0	0	0	0	0	0	0	0	0	0	0	0	0	0	0	0	0	0	0	15460	971	0	0	0	16431	22	62	0	0	0	0	7	15	6	52	42	287	0	0	2.12	INCLUDES LEAKS FROM VALVES NEEDING TO BE GREASED.	SIAMAK MOKHTARNEJAD - ASSOCIATE DIRECTOR	5048736747	2/19/2004	6/16/2004		
2003	20031337	TXU GAS COMPANY	31978	301 S HARWOOD SUITE 10N	DALLAS	DALLAS	TX	75201						 TX	3574	0	0	8074	13838	949	0	0	0	0	26435	455760	0	0	118695	809836	0	0	0	0	0	1384291	0	4516	5049	1534	303	246	11648	0	0	0	0	0	0	0	0	0	0	0	0	0	0	0	1	551	387	9	1	949	0	25	1	0	0	0	26	0	7854	4467	1485	6	0	13812	0	0	0	0	0	0	0	0	0	0	0	0	0	0	0	0	0	0	0	0	0	0	12396	10068	3406	318	247	26435	32	0	239339	333611	1373	132	0	574455	0	0	0	0	0	0	0	0	0	0	0	0	0	0	0	0	0	0	0	0	0	0	0	0	0	0	0	0	0	760542	48457	809	28	0	809836	0	0	0	0	0	0	0	0	0	0	0	0	0	0	0	0	0	0	0	0	0	0	999881	382068	2182	160	0	1384291	1014	2060	215	853	1424	4616	273	1045	7	42	1225	4211	5063	0	3.08		BRIAN JACKSON	2148753515	3/15/2004	6/17/2004		
2003	20031338	CONOCOPHILLIPS	31684	3900 KILROY AIRPORT WAY -  SUITE 210	LONG BEACH	LOS ANGELES	CA	90806						 CA	0	0	0	7	0	0	0	0	0	0	7	0	0	0	0	0	0	0	0	0	0	0	0	0	0	7	0	0	7	0	0	0	0	0	0	0	0	0	0	0	0	0	0	0	0	0	0	0	0	0	0	0	0	0	0	0	0	0	0	0	0	0	0	0	0	0	0	0	0	0	0	0	0	0	0	0	0	0	0	0	0	0	0	0	0	0	0	0	7	0	0	7	0	0	0	0	0	0	0	0	0	0	0	0	0	0	0	0	0	0	0	0	0	0	0	0	0	0	0	0	0	0	0	0	0	0	0	0	0	0	0	0	0	0	0	0	0	0	0	0	0	0	0	0	0	0	0	0	0	0	0	0	0	0	0	0	0	0	0	0	0	0	0	0	0	0	0	0	0	0	0	0	0	0	0	0	0	0	"CONOCOPHILLIPS DISTRIBUTION SYSTEM CONSISTS OF MAIN LINES FROM SOUTHERN CALIFORNIA GAS TO CONOCOPHILLIPS FACILITY, OR MAIN LINES FROM ONE CONOCOPHILLIPS FACILITY TO THE NEXT."	"BRIAN GIBBS, DOT COORDINATOR"	5622901511	2/18/2004	7/1/2004		
2003	20031339	"MORTON INTERNATIONAL INC, - SALT DIVISION"	31251	PO BOX 2628	HOUSTON	HARRIS	TX	77252						 TX	0	0	0	3	0	0	0	0	0	0	3	0	0	0	1	0	0	0	0	0	0	1	0	0	3	0	0	0	3	0	0	0	0	0	0	0	0	0	0	0	0	0	0	0	0	0	0	0	0	0	0	0	0	0	0	0	0	0	0	0	0	0	0	0	0	0	0	0	0	0	0	0	0	0	0	0	0	0	0	0	0	0	0	0	0	0	0	3	0	0	0	3	355	0	0	0	0	1	0	1	0	0	0	0	0	0	0	0	0	0	0	0	0	0	0	0	0	0	0	0	0	0	0	0	0	0	0	0	0	0	0	0	0	0	0	0	0	0	0	0	0	0	0	0	0	0	0	0	0	0	0	0	0	0	0	0	0	0	0	0	1	0	1	0	0	0	0	0	0	0	0	0	0	0	0	0	0	0		DAVID PINEDA	9035867933	6/18/2004	6/30/2004		
2003	20031340	CENTERPOINT ENERGY ENTEX	4499	PO BOX 2628	HOUSTON	HARRIS	TX	77252						 TX LA MS	0	0	644	19750	12775	20	0	0	0	0	33189	2394	1310	3323	982906	836539	0	0	0	0	0	1826472	0	15113	3204	1715	281	81	20394	0	0	0	0	0	0	0	0	0	0	0	0	0	0	0	1	13	5	0	1	20	0	13	1	0	0	0	14	0	11043	1366	351	1	0	12761	0	0	0	0	0	0	0	0	0	0	0	0	0	0	0	0	0	0	0	0	0	0	26170	4584	2071	282	82	33189	66	30234	747372	210823	1390	112	2	989933	0	0	0	0	0	0	0	0	0	0	0	0	0	0	0	0	0	0	0	0	0	0	0	0	0	0	0	0	481	816903	18714	416	25	0	836539	0	0	0	0	0	0	0	0	0	0	0	0	0	0	0	0	0	0	0	0	0	30715	1564275	229537	1806	137	2	1826472	945	941	85	306	1788	5116	193	593	104	483	1102	6700	4621	0	2.22		"CHAD A HAEGELIN, PE ENGINEER"	7132075709	3/22/2004	8/13/2004		
2003	20031341	CENTERPOINT ENERGY ARKLA 	603	PO BOX 2628	HOUSTON	HARRIS	TX	77252						 AR OK LA TX	405	47	1767	8633	8173	609	0	0	3	0	19637	32563	43454	42927	351806	294787	0	0	0	0	0	765537	0	6992	2641	1016	156	47	10852	0	0	0	0	0	0	0	0	0	0	0	0	0	0	0	184	284	120	18	2	608	0	208	43	0	0	0	251	0	6499	1311	112	4	0	7926	0	0	0	0	0	0	0	0	0	0	0	0	0	0	0	0	0	0	0	0	0	0	13883	4279	1248	178	49	19637	42	0	299834	149785	21125	5	1	470750	0	0	0	0	0	0	0	0	0	0	0	0	0	0	0	0	0	0	0	0	0	0	0	0	0	0	0	0	0	282816	11889	41	41	0	294787	0	0	0	0	0	0	0	0	0	0	0	0	0	0	0	0	0	0	0	0	0	0	582650	161674	21166	46	1	765537	825	1104	57	114	837	2147	410	952	455	1063	1012	4645	3717	1	2.65		"CHAD A HAEGELIN, PE ENGINEER"	7132075709	3/22/2004	8/13/2004		
2003	20031342	AQUILA NETWORKS	15359	1815 CAPITOL AVENUE	OMAHA	DOUGLAS	NE	68102						 CO	1	0	0	837	1750	0	0	0	0	0	2588	0	0	0	16320	31839	0	0	0	0	0	48159	0	536	202	100	0	0	838	0	0	0	0	0	0	0	0	0	0	0	0	0	0	0	0	0	0	0	0	0	0	549	16	0	0	0	565	0	1021	148	16	0	0	1185	0	0	0	0	0	0	0	0	0	0	0	0	0	0	0	0	0	0	0	0	0	0	2106	366	116	0	0	2588	75	0	16067	250	3	0	0	16320	0	0	0	0	0	0	0	0	0	0	0	0	0	0	0	0	0	0	0	0	0	0	130	0	0	0	0	130	22	31434	251	2	0	0	31709	0	0	0	0	0	0	0	0	0	0	0	0	0	0	0	0	0	0	0	0	0	22	47631	501	5	0	0	48159	1	4	0	21	98	113	7	107	27	135	29	82	0	0	1.39		"EDWIN M HATTER, PE"	4022212546	2/26/2004	7/28/2004		
2003	20031343	AQUILA NETWORKS	15359	1815 CAPITOL AVENUE	OMAHA	DOUGLAS	NE	68102						 NE	171	0	0	1747	1168	57	0	0	0	0	3143	1647	0	0	20630	74217	0	0	0	75226	0	171720	6	1317	405	124	48	18	1918	0	0	0	0	0	0	0	0	0	0	0	0	0	0	0	31	22	3	1	0	57	0	5	0	0	0	0	5	1	895	256	11	0	0	1163	0	0	0	0	0	0	0	0	0	0	0	0	0	0	0	0	0	0	0	0	0	7	2248	683	138	49	18	3143	75	0	15810	6425	38	4	0	22277	0	0	0	0	0	0	0	0	0	0	0	0	0	0	0	0	0	0	0	0	0	0	270	0	0	0	0	270	261	72330	1332	24	0	0	73947	0	0	0	0	0	0	0	75226	0	0	0	0	0	75226	0	0	0	0	0	0	0	75487	88410	7757	62	4	0	171720	51	170	35	212	71	189	0	0	13	158	23	324	175	0	0.32		"EDWIN M HATTER, P E "	4022212105	2/26/2004	7/28/2004		
2003	20031344	AQUILA NETWORKS	15359	1815 CAPITOL AVENUE	OMAHA	DOUGLAS	NE	68102						 IA	32	0	31	1476	1094	12	0	0	0	0	2645	1676	0	527	57783	92609	0	0	72	250	0	152917	0	673	677	156	27	6	1539	0	0	0	0	0	0	0	0	0	0	0	0	0	0	0	3	8	1	0	0	12	0	12	0	0	0	0	12	0	487	592	3	0	0	1082	0	0	0	0	0	0	0	0	0	0	0	0	0	0	0	0	0	0	0	0	0	0	1175	1277	160	27	6	2645	70	0	51984	7948	49	5	0	59986	0	0	0	0	0	0	0	0	72	0	0	0	0	72	0	0	0	0	0	0	0	0	2991	0	0	0	0	2991	0	85582	3575	460	1	0	89618	0	0	0	0	0	0	0	0	250	0	0	0	0	250	0	0	0	0	0	0	0	0	140879	11523	509	6	0	152917	25	88	17	295	31	148	7	93	3	96	16	886	64	0	0.24		"EDWIN M HATTER, P E"	4022212105	2/26/2004	7/28/2004		
2003	20031345	AQUILA - PNG	15359	1815 CAPITOL AVENUE	OMAHA	DOUGLAS	NE	68102						 MN	11	0	29	1122	1713	0	0	0	0	0	2875	117	0	1306	43851	99405	0	0	957	0	0	145636	0	701	351	89	21	0	1162	0	0	0	0	0	0	0	0	0	0	0	0	0	0	0	0	0	0	0	0	0	0	26	3	0	0	0	29	1	1218	442	23	0	0	1684	0	0	0	0	0	0	0	0	0	0	0	0	0	0	0	0	0	0	0	0	0	1	1945	796	112	21	0	2875	79	0	42337	2855	79	3	0	45274	0	0	0	0	0	0	0	0	957	0	0	0	0	957	0	0	0	0	0	0	0	0	1325	14	0	0	0	1339	44	97091	781	150	0	0	98066	0	0	0	0	0	0	0	0	0	0	0	0	0	0	0	0	0	0	0	0	0	44	141710	3650	229	3	0	145636	2	36	10	570	58	227	5	169	6	187	17	735	416	0	0.67		"EDWIN M HATTER, PE"	4022212105	2/26/2004	7/28/2004		
2003	20031346	AQUILA NETWORKS	18072	1824 E 1ST STREET	MARYVILLE	NODAWAY	MO	64468						 MO	0	0	0	159	34	0	0	0	0	0	193	0	0	0	4359	2171	0	0	0	0	0	6530	0	81	61	17	0	0	159	0	0	0	0	0	0	0	0	0	0	0	0	0	0	0	0	0	0	0	0	0	0	0	0	0	0	0	0	0	24	10	0	0	0	34	0	0	0	0	0	0	0	0	0	0	0	0	0	0	0	0	0	0	0	0	0	0	105	71	17	0	0	193	70	0	4238	114	7	0	0	4359	0	0	0	0	0	0	0	0	0	0	0	0	0	0	0	0	0	0	0	0	0	0	0	0	0	0	0	0	0	2145	26	0	0	0	2171	0	0	0	0	0	0	0	0	0	0	0	0	0	0	0	0	0	0	0	0	0	0	6383	140	7	0	0	6530	0	0	0	0	0	0	0	0	0	0	0	0	0	0	0.36		LYLE JOHNSON	6605823135	2/26/2004	7/29/2004		
2003	20031347	AQUILA - NMU	13707	910 CLOQUET AVE	CLOQUET	CARLTON	MN	55720						 MN	0	0	0	332	553	0	0	0	0	0	885	0	0	0	3528	34981	0	0	816	0	0	39325	0	177	86	68	1	0	332	0	0	0	0	0	0	0	0	0	0	0	0	0	0	0	0	0	0	0	0	0	0	0	0	0	0	0	0	0	441	105	7	0	0	553	0	0	0	0	0	0	0	0	0	0	0	0	0	0	0	0	0	0	0	0	0	0	618	191	75	1	0	885	100	0	2889	639	0	0	0	3528	0	0	0	0	0	0	0	0	816	0	0	0	0	816	0	0	0	0	0	0	0	0	0	0	0	0	0	0	0	34464	504	13	0	0	34981	0	0	0	0	0	0	0	0	0	0	0	0	0	0	0	0	0	0	0	0	0	0	38169	1143	13	0	0	39325	0	5	3	117	9	66	5	46	7	43	22	240	186	0	0		"EDWIN M HATTER, PE"	4022212105	2/24/2004	7/29/2004		
2003	20031348	AQUILA NETWORKS	12420	899 S TELEGRAPH ROAD	MONROE	MONROE	MI	48161						 MI	42	19	13	1619	1727	0	0	0	0	0	3420	767	8215	2181	31947	111609	0	0	0	0	0	154719	0	777	620	287	9	0	1693	0	0	0	0	0	0	0	0	0	0	0	0	0	0	0	0	0	0	0	0	0	0	0	0	0	0	0	0	0	1080	641	6	0	0	1727	0	0	0	0	0	0	0	0	0	0	0	0	0	0	0	0	0	0	0	0	0	0	1857	1261	293	9	0	3420	95	0	42049	474	580	7	0	43110	0	0	0	0	0	0	0	0	0	0	0	0	0	0	0	0	0	0	0	0	0	0	0	0	0	0	0	0	0	108973	2580	55	1	0	111609	0	0	0	0	0	0	0	0	0	0	0	0	0	0	0	0	0	0	0	0	0	0	151022	3054	635	8	0	154719	9	23	8	69	77	348	3	24	15	74	11	53	20	0	0.92		"EDWIN M HATTER, PE"	4022212105	2/24/2004	7/29/2004		
2003	20031349	AQUILA NETWORKS	12606	900 MEADOW LANE	HENRIETTA	RAY	MO	64036						 MO	0	0	0	384	684	0	0	0	0	0	1068	0	0	0	10613	38997	0	0	0	0	0	49610	0	197	64	94	29	0	384	0	0	0	0	0	0	0	0	0	0	0	0	0	0	0	0	0	0	0	0	0	0	0	0	0	0	0	0	0	479	182	23	0	0	684	0	0	0	0	0	0	0	0	0	0	0	0	0	0	0	0	0	0	0	0	0	0	676	246	117	29	0	1068	66	0	10362	242	8	1	0	10613	0	0	0	0	0	0	0	0	0	0	0	0	0	0	0	0	0	0	0	0	0	0	0	0	0	0	0	0	0	38584	378	34	1	0	38997	0	0	0	0	0	0	0	0	0	0	0	0	0	0	0	0	0	0	0	0	0	0	48946	620	42	2	0	49610	13	19	1	4	31	109	9	20	10	12	2	4	51	0	1.03		STEVE TETER	8164945552	2/24/2004	7/29/2004		
2003	20031350	AQUILA NETWORKS	31264	1815 CAPITOL AVENUE	OMAHA	DOUGLAS	NE	68102						 KS	157	0	117	769	1242	1	0	0	0	0	2286	5324	0	687	28446	53124	0	0	0	0	0	87581	1	670	248	100	23	1	1043	0	0	0	0	0	0	0	0	0	0	0	0	0	0	0	0	0	0	1	0	1	0	479	54	0	0	0	533	6	525	172	6	0	0	709	0	0	0	0	0	0	0	0	0	0	0	0	0	0	0	0	0	0	0	0	0	7	1674	474	106	24	1	2286	44	25	32816	1582	32	1	1	34457	0	0	0	0	0	0	0	0	0	0	0	0	0	0	0	0	0	0	0	0	0	0	240	104	0	0	0	344	63	49809	2352	546	10	0	52780	0	0	0	0	0	0	0	0	0	0	0	0	0	0	0	0	0	0	0	0	0	88	82865	4038	578	11	1	87581	67	49	17	36	65	164	29	91	27	98	23	105	18	0	1.45		"EDWIN M HATTER, PE"	4022212105	2/24/2004	7/29/2004		
2003	20031351	RICHIE GAS SYSTEM	17340	1405 RUPPERT LAKE RD	EUNICE	ACADIA PARISH	LA	70535						  LA	0	0	0	0	4	0	0	0	0	0	4	0	0	0	0	30	0	0	0	0	0	30	0	0	0	0	0	0	0	0	0	0	0	0	0	0	0	0	0	0	0	0	0	0	0	0	0	0	0	0	0	0	0	0	0	0	0	0	4	0	0	0	0	4	0	0	0	0	0	0	0	0	0	0	0	0	0	0	0	0	0	0	0	0	0	0	4	0	0	0	0	4	10	0	0	0	0	0	0	0	0	0	0	0	0	0	0	0	0	0	0	0	0	0	0	0	0	0	0	0	0	0	0	0	0	0	0	0	0	30	0	0	0	0	30	0	0	0	0	0	0	0	0	0	0	0	0	0	0	0	0	0	0	0	0	0	0	30	0	0	0	0	30	0	0	0	0	0	0	0	0	0	0	0	0	0	0	1	UNACCOUNTED FOR GAS = METER CALIBRATIONS	CHARLES BROWN JR. - OPERATOR	3184577204	2/10/2004	10/29/2004		
2003	20031352	FLORIDA PUBLIC UTILITIES CO	5330	2001 NW 49TH AVE	LAUDERHILL	BROWARD	FL	33313	PO BOX 3395	WEST PALM BEACH		FL	33402	FL	0	0	0	16	0	0	0	0	0	0	16	0	0	0	560	10	0	0	0	0	0	570	0	9	7	0	0	0	16	0	0	0	0	0	0	0	0	0	0	0	0	0	0	0	0	0	0	0	0	0	0	0	0	0	0	0	0	0	0	0	0	0	0	0	0	0	0	0	0	0	0	0	0	0	0	0	0	0	0	0	0	0	0	0	0	0	9	7	0	0	0	16	50	0	560	0	0	0	0	560	0	0	0	0	0	0	0	0	0	0	0	0	0	0	0	0	0	0	0	0	0	0	0	0	0	0	0	0	0	0	10	0	0	0	10	0	0	0	0	0	0	0	0	0	0	0	0	0	0	0	0	0	0	0	0	0	0	560	10	0	0	0	570	1	6	0	0	0	3	0	0	0	0	2	21	1	0	1		JOHN K JOYCE	5618381803	2/24/2004	10/6/2004		
2003	20031353	"WINNSBORO MUNICIPAL GAS SYSTEM, TOWN OF"	22735	207 NORTH CONGRESS STREET	WINNSBORO	FAIRFIELD	SC	29180						SC	0	0	0	70	57	0	0	0	0	0	127	0	0	0	872	1939	0	0	0	0	0	2811	0	26	28	16	0	0	70	0	0	0	0	0	0	0	0	0	0	0	0	0	0	0	0	0	0	0	0	0	0	1	0	0	0	0	1	0	34	17	5	0	0	56	0	0	0	0	0	0	0	0	0	0	0	0	0	0	0	0	0	0	0	0	0	0	61	45	21	0	0	127	170	0	869	2	0	1	0	872	0	0	0	0	0	0	0	0	0	0	0	0	0	0	0	0	0	0	0	0	0	0	0	0	0	0	0	0	0	1926	13	0	0	0	1939	0	0	0	0	0	0	0	0	0	0	0	0	0	0	0	0	0	0	0	0	0	0	2795	15	0	1	0	2811	0	4	0	0	8	4	0	3	0	0	0	0	0	0	1	"CORROSION: 3 SERVICE RISERS LEAKING AT GROUND LEVEL:  THIRD PARTY: 1 2"" STEEL MAIN HIT BY AUGER, 1 2"" PE MAIN HIT BY DIRECTIONAL BORING MACHINE, 1 2"" PE MAIN HIT BY DRILL BORING MACHINE,  5 2"" PE MAIN HIT BY BACKHOE (CABLE CONTRACTOR) 4 3/4"" PE SERVICE LINES HIT BY BACKHOE   CONSTRUCTION DEFECT: 2 5/8"" PE SERVICES BACKFILLED, BRICK LAYING ON PIPE, 1 1"" STEEL DRESSER COUPLING LEAKING"	MIKE BUNTING	8036354121	2/2/2004	7/1/2004		
2003	20031354	"BREWTON GAS DEPT, CITY OF"	1728	1010-A DOUGLAS AVENUE	BREWTON	ESCAMBIA	AL	36426						AL	0	0	0	180	19	0	0	0	0	0	199	0	0	1752	174	1533	0	0	0	0	0	3459	0	136	15	30	0	0	181	0	0	0	0	0	0	0	0	0	0	0	0	0	0	0	0	0	0	0	0	0	0	0	0	0	0	0	0	0	12	6	0	0	0	18	0	0	0	0	0	0	0	0	0	0	0	0	0	0	0	0	0	0	0	0	0	0	148	21	30	0	0	199	150	0	155	20	0	0	0	175	0	0	0	0	0	0	0	0	0	0	0	0	0	0	0	0	0	0	0	0	0	0	0	0	0	0	0	0	0	1529	2	1	0	0	1532	0	0	0	0	0	0	0	0	1752	0	0	0	0	1752	0	0	0	0	0	0	0	0	3436	22	1	0	0	3459	2	11	0	3	0	7	0	0	0	29	0	0	0	0	0.9787		RAY MADDEN	2518091780	3/2/2004	7/1/2004		
2003	20031355	NORTHWEST NATURAL GAS OF MURRAY CTY INC	31907	PO BOX 721	MAPLETON	BLUE EARTH	MN	56065						 MN	0	0	0	21	46	0	0	0	0	0	67	0	0	0	0	797	0	0	0	0	0	797	0	0	21	0	0	0	21	0	0	0	0	0	0	0	0	0	0	0	0	0	0	0	0	0	0	0	0	0	0	0	0	0	0	0	0	0	30	16	0	0	0	46	0	0	0	0	0	0	0	0	0	0	0	0	0	0	0	0	0	0	0	0	0	0	30	37	0	0	0	67	0	0	0	0	0	0	0	0	0	0	0	0	0	0	0	0	0	0	0	0	0	0	0	0	0	0	0	0	0	0	0	0	0	0	0	0	0	789	8	0	0	0	797	0	0	0	0	0	0	0	0	0	0	0	0	0	0	0	0	0	0	0	0	0	0	789	8	0	0	0	797	0	0	0	0	1	0	0	0	0	0	0	0	0	0	0		"CHERI LANDSTEINER, OFFICE MANAGER"	5075244103	3/29/2004	7/1/2004		
2003	20031356	CHESTER COUNTY NATURAL GAS AUTH	2312	PO BOX 220 2605 DAWSON DR	CHESTER	CHESTER	SC	29706						SC	0	0	0	103	431	0	0	0	0	0	534	0	0	0	2127	7323	0	0	0	0	0	9450	0	47	32	24	0	0	103	0	0	0	0	0	0	0	0	0	0	0	0	0	0	0	0	0	0	0	0	0	0	0	0	0	0	0	0	0	317	114	0	0	0	431	0	0	0	0	0	0	0	0	0	0	0	0	0	0	0	0	0	0	0	0	0	0	364	146	24	0	0	534	150	0	2088	24	11	4	0	2127	0	0	0	0	0	0	0	0	0	0	0	0	0	0	0	0	0	0	0	0	0	0	0	0	0	0	0	0	0	7303	19	1	0	0	7323	0	0	0	0	0	0	0	0	0	0	0	0	0	0	0	0	0	0	0	0	0	0	9391	43	12	4	0	9450	1	2	0	0	2	24	1	1	0	5	0	5	0	0	1		EARL W CARTER	8033853157	2/18/2004	7/1/2004		
2003	20031357	CITY OF BENSON	1312	PO BOX 2223	BENSON	COCHISE	AZ	85602						 AZ	0	0	0	0	60	0	0	0	0	0	60	0	0	0	0	2066	0	0	0	0	0	2066	0	0	0	0	0	0	0	0	0	0	0	0	0	0	0	0	0	0	0	0	0	0	0	0	0	0	0	0	0	0	0	0	0	0	0	0	56	3	1	0	0	60	0	0	0	0	0	0	0	0	0	0	0	0	0	0	0	0	0	0	0	0	0	0	56	3	1	0	0	60	33	0	0	0	0	0	0	0	0	0	0	0	0	0	0	0	0	0	0	0	0	0	0	0	0	0	0	0	0	0	0	0	0	0	0	0	0	2047	19	0	0	0	2066	0	0	0	0	0	0	0	0	0	0	0	0	0	0	0	0	0	0	0	0	0	0	2047	19	0	0	0	2066	0	0	0	0	1	9	0	0	0	0	0	0	0	0	0		LORETTA GOEGLEIN	5205862245	2/18/2004	7/28/2004		
2003	20031359	ILLINOIS POWER CO	8040	500 SOUTH 27TH STREET	DECUTAR	MACON	IL	62521						IL	1	21	0	4700	2947	0	0	0	0	0	7669	872	0	285	211964	186186	0	0	0	0	0	399307	0	3180	1023	472	45	2	4722	0	0	0	0	0	0	0	0	0	0	0	0	0	0	0	0	0	0	0	0	0	0	0	0	0	0	0	0	0	2654	279	14	0	0	2947	0	0	0	0	0	0	0	0	0	0	0	0	0	0	0	0	0	0	0	0	0	0	5834	1302	486	45	2	7669	79	148932	8723	1409	64	2	5	159135	0	0	0	0	0	0	0	0	0	0	0	0	0	0	0	0	0	0	0	0	0	0	0	0	0	0	0	0	41561	187089	11482	31	9	0	240172	0	0	0	0	0	0	0	0	0	0	0	0	0	0	0	0	0	0	0	0	0	190493	195812	12891	95	11	5	399307	7	166	27	173	129	630	15	127	62	749	216	3676	0	16	2.398		RONALD E.KELLY	2174246706	2/10/2004	7/1/2004		
2003	20031363	PSNC ENERGY	15938	800A GASTON ROAD	GASTONIA	GASTON	NC	28056						 NC	1	1	0	4013	4175	59	0	0	0	0	8249	22	25	0	121304	279613	0	0	0	0	0	400964	0	1989	890	1019	116	0	4014	0	0	0	0	0	0	0	0	0	0	0	0	0	0	0	1	37	18	3	0	59	0	0	0	0	0	0	0	0	3003	1085	88	0	0	4176	0	0	0	0	0	0	0	0	0	0	0	0	0	0	0	0	0	0	0	0	0	0	4993	2012	1125	119	0	8249	82	0	117007	3952	353	39	0	121351	0	0	0	0	0	0	0	0	0	0	0	0	0	0	0	0	0	0	0	0	0	0	0	0	0	0	0	0	0	271477	7993	139	4	0	279613	0	0	0	0	0	0	0	0	0	0	0	0	0	0	0	0	0	0	0	0	0	0	388484	11945	492	43	0	400964	166	326	34	152	196	1322	46	605	44	1035	133	1299	191	0	0.008		DANIA H POOL	7048103257	2/19/2004	7/20/2004		
2003	20031364	ENTERGY GULF STATES INC	6920	5755 CHOCTAW DRIVE	BATON ROUGE	EAST BATON ROUGE	LA	70805						 LA	0	0	4	848	713	35	0	0	0	0	1600	0	0	0	49431	42787	0	0	0	0	0	92218	0	567	191	62	21	11	852	0	0	0	0	0	0	0	0	0	0	0	0	0	0	0	0	29	5	1	0	35	0	0	0	0	0	0	0	0	544	168	1	0	0	713	0	0	0	0	0	0	0	0	0	0	0	0	0	0	0	0	0	0	0	0	0	0	1111	388	68	22	11	1600	75	0	46615	2745	70	1	0	49431	0	0	0	0	0	0	0	0	0	0	0	0	0	0	0	0	0	0	0	0	0	0	0	0	0	0	0	0	0	42565	216	6	0	0	42787	0	0	0	0	0	0	0	0	0	0	0	0	0	0	0	0	0	0	0	0	0	0	89180	2961	76	1	0	92218	54	104	6	17	39	146	19	20	156	375	15	18	25	0	5.02		BENAJMIN W TAYLOR	2253543127	3/10/2004	7/20/2004		
2003	20031365	KINDER MORGAN INC	10030	370 VAN GORDON	LAKEWOOD 	JEFFERSON	CO	80228						 CO NE WY	1	0	982	5102	2486	0	0	0	0	0	8571	3753	3553	750	180398	58771	0	0	0	0	0	247225	0	4224	1284	536	39	3	6086	0	0	0	0	0	0	0	0	0	0	0	0	0	0	0	0	0	0	0	0	0	0	1044	29	1	0	0	1074	0	1058	332	21	0	0	1411	0	0	0	0	0	0	0	0	0	0	0	0	0	0	0	0	0	0	0	0	0	0	6326	1645	558	39	3	8571	30	0	137694	50249	508	3	0	188454	0	0	0	0	0	0	0	0	0	0	0	0	0	0	0	0	0	0	0	0	0	0	52864	5807	99	1	0	58771	0	0	0	0	0	0	0	0	0	0	0	0	0	0	0	0	0	0	0	0	0	0	0	0	0	0	0	0	0	190558	56056	607	4	0	247225	23	133	8	24	138	558	27	142	30	228	15	320	72	0	1.86		KENNETH D DOCKWEILER	3072613326	3/8/2004	7/20/2004		
2003	20031366	UNISOURCE ENERGY SERVICES INC	2416	"2901 W. SHAMRELL BLVD, SUITE 110"	FLAGSTAFF	COCONINO	AZ	86001	ONE S CHURCH AVE #1820	TUCSON	PIMA	AZ	85701	 AZ	0	0	0	1265	1266	0	0	0	0	0	2531	0	0	0	55704	77357	0	0	0	0	0	133061	0	704	329	189	43	0	1265	0	0	0	0	0	0	0	0	0	0	0	0	0	0	0	0	0	0	0	0	0	0	128	0	0	0	0	128	0	858	268	12	0	0	1138	0	0	0	0	0	0	0	0	0	0	0	0	0	0	0	0	0	0	0	0	0	0	1690	597	201	43	0	2531	55	0	54497	1159	48	0	0	55704	0	0	0	0	0	0	0	0	0	0	0	0	0	0	0	0	0	0	0	0	0	0	4459	27	0	0	0	4486	0	72608	253	10	0	0	72871	0	0	0	0	0	0	0	0	0	0	0	0	0	0	0	0	0	0	0	0	0	0	131564	1439	58	0	0	133061	7	4	2	3	61	149	20	39	2	2	55	196	78	0	1.68		J BEHNE	9287744592	1/29/2004	7/20/2004		
2003	20031367	VALLEY ENERGY INC	21030	523 S KEYSTONE AVE	SAYRE 	BRADFORD	PA	18840						 NY	0	0	0	15	16	0	0	0	0	0	31	0	0	0	300	1065	0	0	0	0	0	1365	0	3	10	2	0	0	15	0	0	0	0	0	0	0	0	0	0	0	0	0	0	0	0	0	0	0	0	0	0	0	0	0	0	0	0	0	5	5	6	0	0	16	0	0	0	0	0	0	0	0	0	0	0	0	0	0	0	0	0	0	0	0	0	0	8	15	8	0	0	31	77	0	70	226	4	0	0	300	0	0	0	0	0	0	0	0	0	0	0	0	0	0	0	0	0	0	0	0	0	0	0	0	0	0	0	0	0	579	481	5	0	0	1065	0	0	0	0	0	0	0	0	0	0	0	0	0	0	0	0	0	0	0	0	0	0	649	707	9	0	0	1365	0	0	0	3	1	5	0	2	0	0	3	1	6	0	2.8		ROBERT J CROCKER	5708889664	2/23/2004	7/27/2004		
2003	20031368	VALLEY ENERGY INC	21030	523 S KEYSTONE AVE	SAYRE	BRADFORD	PA	18840						 PA	0	0	5	64	62	0	0	0	0	0	131	0	0	173	1002	3893	0	0	0	0	0	5068	0	13	34	22	0	0	69	0	0	0	0	0	0	0	0	0	0	0	0	0	0	0	0	0	0	0	0	0	0	0	0	0	0	0	0	0	30	18	14	0	0	62	0	0	0	0	0	0	0	0	0	0	0	0	0	0	0	0	0	0	0	0	0	0	43	52	36	0	0	131	88	0	481	670	18	6	0	1175	0	0	0	0	0	0	0	0	0	0	0	0	0	0	0	0	0	0	0	0	0	0	0	0	0	0	0	0	0	2290	1590	13	0	0	3893	0	0	0	0	0	0	0	0	0	0	0	0	0	0	0	0	0	0	0	0	0	0	2771	2260	31	6	0	5068	1	10	2	2	3	6	0	2	0	0	5	1	6	0	2.8		"ROBERT J CROCKER, PRESIDENT & CEO"	5708889664	2/23/2004	7/27/2004		
2003	20031369	"DESOTO SERVICES, INC."	31998	2584 TED TROUT	LUFKIN	ANGELINA	TX	75904	PO BOX 150306	LUFKIN	ANGELINA	TX	75915	 TX	0	0	0	12	0	0	0	0	0	0	12	0	0	0	18	0	0	0	0	0	0	18	0	2	10	0	0	0	12	0	0	0	0	0	0	0	0	0	0	0	0	0	0	0	0	0	0	0	0	0	0	0	0	0	0	0	0	0	0	0	0	0	0	0	0	0	0	0	0	0	0	0	0	0	0	0	0	0	0	0	0	0	0	0	0	0	2	10	0	0	0	12	90	0	5	13	0	0	0	18	0	0	0	0	0	0	0	0	0	0	0	0	0	0	0	0	0	0	0	0	0	0	0	0	0	0	0	0	0	0	0	0	0	0	0	0	0	0	0	0	0	0	0	0	0	0	0	0	0	0	0	0	0	0	0	0	0	5	13	0	0	0	18	0	0	0	0	0	0	0	0	0	0	0	0	0	0	0		R D UECKERT	9798653114	3/15/2004	7/27/2004		
2003	20031370	CBM GAS COMPANY	32008	2800 MID-CONTINENT TOWER	TULSA	TULSA	OK	74103						 KS OK	0	0	0	1	0	0	0	0	0	0	1	0	0	0	0	0	0	0	0	0	0	0	0	0	0	1	0	0	1	0	0	0	0	0	0	0	0	0	0	0	0	0	0	0	0	0	0	0	0	0	0	0	0	0	0	0	0	0	0	0	0	0	0	0	0	0	0	0	0	0	0	0	0	0	0	0	0	0	0	0	0	0	0	0	0	0	0	0	1	0	0	1	0	0	0	0	0	0	0	0	0	0	0	0	0	0	0	0	0	0	0	0	0	0	0	0	0	0	0	0	0	0	0	0	0	0	0	0	0	0	0	0	0	0	0	0	0	0	0	0	0	0	0	0	0	0	0	0	0	0	0	0	0	0	0	0	0	0	0	0	0	0	0	0	0	0	0	0	0	0	0	0	0	0	0	0	0	0		SAMANTHA MILLER	9185877782	7/1/2004	7/27/2004		
2003	20031371	BELFRY GAS INC	1240	PO BOX 504	ALLEN	FLOYD	KY	41601						KY	0	0	23	1	0	0	0	0	0	0	24	0	0	580	0	0	0	0	0	0	0	580	0	20	4	0	0	0	24	0	0	0	0	0	0	0	0	0	0	0	0	0	0	0	0	0	0	0	0	0	0	0	2	0	0	0	2	0	0	0	0	0	0	0	0	0	0	0	0	0	0	0	0	0	0	0	0	0	0	0	0	0	0	0	0	0	20	6	0	0	0	26	37	0	560	20	0	0	0	580	0	0	0	0	0	0	0	0	0	0	0	0	0	0	0	0	0	0	0	0	0	0	0	0	0	0	0	0	0	0	0	0	0	0	0	0	0	0	0	0	0	0	0	0	0	0	0	0	0	0	0	0	0	0	0	0	0	560	20	0	0	0	580	3	1	3	1	1	3	0	0	0	0	0	0	0	0	0.1775		"STEPHEN G JENKINS, MANAGER"	6068742846	7/14/2004	7/27/2004		
2003	20031372	WAGNER GAS CO	22022	218 MAIN ST PO BOX 92 	CLAY	CLAY	WV	25043						WV	2	0	0	0	4	0	0	0	0	0	6	12	0	0	0	151	0	0	0	0	0	163	0	2	0	0	0	0	2	0	0	0	0	0	0	0	0	0	0	0	0	0	0	0	0	0	0	0	0	0	0	0	0	0	0	0	0	0	4	0	0	0	0	4	0	0	0	0	0	0	0	0	0	0	0	0	0	0	0	0	0	0	0	0	0	0	6	0	0	0	0	6	100	12	0	0	0	0	0	12	0	0	0	0	0	0	0	0	0	0	0	0	0	0	0	0	0	0	0	0	0	0	0	0	0	0	0	0	0	0	151	0	0	0	151	0	0	0	0	0	0	0	0	0	0	0	0	0	0	0	0	0	0	0	0	0	12	0	151	0	0	0	163	4	0	0	0	2	0	0	0	0	0	0	0	0	0	10		JOHN HABJAN	3045872984	7/13/2004	7/27/2004		
2003	20031373	ARANSAS NATURAL GAS CO	612	401 S. MAGNOLIA	ROCKPORT	ARANSAS	TX	78382						TX	0	0	0	105	61	0	0	0	0	0	166	0	0	0	2935	2603	0	0	0	0	0	5538	0	88	17	0	0	0	105	0	0	0	0	0	0	0	0	0	0	0	0	0	0	0	0	0	0	0	0	0	0	0	0	0	0	0	0	0	59	2	0	0	0	61	0	0	0	0	0	0	0	0	0	0	0	0	0	0	0	0	0	0	0	0	0	0	147	19	0	0	0	166	50	0	2918	17	0	0	0	2935	0	0	0	0	0	0	0	0	0	0	0	0	0	0	0	0	0	0	0	0	0	0	0	0	0	0	0	0	0	2538	65	0	0	0	2603	0	0	0	0	0	0	0	0	0	0	0	0	0	0	0	0	0	0	0	0	0	0	5456	82	0	0	0	5538	6	2	26	3	0	0	0	0	0	0	0	0	0	0	2.74		"PATRICIA C HOWARD, ASST SEC/TREAS"	3617295465	7/12/2004	7/27/2004		
2003	20031375	CASTROVILLE UTILITY SYSTEM	2152	703 PARIS STREET	CASTROVILLE	MEDINA	TX	78009	1209 FIORELLA ST	CASTROVILLE		TX	78009	TX	0	0	0	27	4	0	0	0	0	0	31	0	0	0	713	211	0	0	0	0	0	924	0	0	27	0	0	0	27	0	0	0	0	0	0	0	0	0	0	0	0	0	0	0	0	0	0	0	0	0	0	0	0	0	0	0	0	0	0	4	0	0	0	4	0	0	0	0	0	0	0	0	0	0	0	0	0	0	0	0	0	0	0	0	0	0	0	31	0	0	0	31	75	0	706	8	0	0	0	714	0	0	0	0	0	0	0	0	0	0	0	0	0	0	0	0	0	0	0	0	0	0	0	0	0	0	0	0	0	203	7	0	0	0	210	0	0	0	0	0	0	0	0	0	0	0	0	0	0	0	0	0	0	0	0	0	0	909	15	0	0	0	924	0	0	0	0	1	0	0	1	0	0	0	0	2	0	8		PEYTON BRADLEY	8309314090	7/14/2004	10/20/2004		
2003	20031376	"CORPUS CHRISTI, CITY OF - GAS DIV"	2812	4225 SOUTH PORT AVE	CORPUS CHRISTI	NUECES	TX	78415						TX	0	0	0	1127	139	0	0	0	0	0	1266	0	0	0	52276	4647	0	0	6106	0	0	63029	0	600	228	231	45	23	1127	0	0	0	0	0	0	0	0	0	0	0	0	0	0	0	0	0	0	0	0	0	0	1	0	0	0	0	1	0	135	3	0	0	0	138	0	0	0	0	0	0	0	0	0	0	0	0	0	0	0	0	0	0	0	0	0	0	736	231	231	45	23	1266	20	0	45158	6956	159	3	0	52276	0	0	0	0	0	0	0	0	6106	0	0	0	0	6106	0	0	0	0	0	0	0	0	0	0	0	0	0	0	0	4566	81	0	0	0	4647	0	0	0	0	0	0	0	0	0	0	0	0	0	0	0	0	0	0	0	0	0	0	55830	7037	159	3	0	63029	20	23	0	1	39	15	15	24	18	14	17	76	4	0	1.4		DADE GUNNING	3618856917	7/12/2004	7/27/2004		
2003	20031377	"CUSHING, CITY OF"	2915	P.O. BOX 365 (808 7TH ST)	CUSHING	NACOGDOCHES	TX	75760						TX	0	0	0	22	7	0	0	0	0	1	30	0	0	0	375	29	0	0	0	0	8	412	0	15	7	0	0	0	22	0	0	0	0	0	0	0	0	0	0	0	0	0	0	0	0	0	0	0	0	0	0	7	0	0	0	0	7	0	1	0	0	0	0	1	0	0	0	0	0	0	0	0	0	0	0	0	0	0	0	0	0	0	0	0	0	0	23	7	0	0	0	30	20	0	370	5	0	0	0	375	0	0	0	0	0	0	0	0	0	0	0	0	0	0	0	0	0	0	0	0	0	0	28	1	0	0	0	29	0	8	0	0	0	0	8	0	0	0	0	0	0	0	0	0	0	0	0	0	0	0	0	0	0	0	0	0	0	406	6	0	0	0	412	0	0	0	0	0	2	0	0	0	0	0	0	0	0	0		JERRY L. BOWERS - MANAGER OF UTILITIES	9363264665	7/12/2004	7/27/2004		
2003	20031378	EASTON MUNICIPAL GAS SYSTEM	4180	P O BOX 007	EASTON	GREGG	TX	75641						 TX	0	0	0	43	1	0	0	0	0	0	44	0	0	0	400	17	0	0	0	0	0	417	0	33	10	0	0	0	43	0	0	0	0	0	0	0	0	0	0	0	0	0	0	0	0	0	0	0	0	0	0	0	0	0	0	0	0	0	1	0	0	0	0	1	0	0	0	0	0	0	0	0	0	0	0	0	0	0	0	0	0	0	0	0	0	0	34	10	0	0	0	44	25	0	400	0	0	0	0	400	0	0	0	0	0	0	0	0	0	0	0	0	0	0	0	0	0	0	0	0	0	0	0	0	0	0	0	0	0	17	0	0	0	0	17	0	0	0	0	0	0	0	0	0	0	0	0	0	0	0	0	0	0	0	0	0	0	417	0	0	0	0	417	0	0	0	0	0	4	0	0	0	0	0	0	30	0		UNACCOUNTED FOR GAS -1.59%	ANNETTA M O'NEAL	9036437819	7/12/2004	7/27/2004		
2003	20031379	GRANDFALLS UTILITY SYSTEM	6540	PO BOX 327 - 210 SECOND S	GRANDFALLS	WARD	TX	79742						TX	0	0	0	0	11	0	0	0	0	0	11	0	0	0	0	144	0	0	0	0	0	144	0	0	0	0	0	0	0	0	0	0	0	0	0	0	0	0	0	0	0	0	0	0	0	0	0	0	0	0	0	5	4	0	0	0	9	0	2	0	0	0	0	2	0	0	0	0	0	0	0	0	0	0	0	0	0	0	0	0	0	0	0	0	0	0	7	4	0	0	0	11	9	0	6	0	0	0	0	6	0	0	0	0	0	0	0	0	0	0	0	0	0	0	0	0	0	0	0	0	0	0	3	0	0	0	0	3	0	135	0	0	0	0	135	0	0	0	0	0	0	0	0	0	0	0	0	0	0	0	0	0	0	0	0	0	0	144	0	0	0	0	144	0	0	0	0	0	0	0	0	0	0	0	0	0	0		UNACCOUNTED FOR GAS - -7.82%	ROGER MULLINS	9155472331	7/12/2004	10/20/2004		
2003	20031380	GREY FOREST UTILITIES	6830	"PO BOX 258,14570 BANDERA "	HELOTES	BEXAR	TX	78023						TX	0	0	0	94	172	0	0	0	0	0	266	0	0	0	1313	7045	0	0	0	0	0	8358	0	40	20	34	0	0	94	0	0	0	0	0	0	0	0	0	0	0	0	0	0	0	0	0	0	0	0	0	0	0	0	0	0	0	0	0	84	83	5	0	0	172	0	0	0	0	0	0	0	0	0	0	0	0	0	0	0	0	0	0	0	0	0	0	124	103	39	0	0	266	86	0	1304	7	2	0	0	1313	0	0	0	0	0	0	0	0	0	0	0	0	0	0	0	0	0	0	0	0	0	0	0	0	0	0	0	0	0	6953	90	2	0	0	7045	0	0	0	0	0	0	0	0	0	0	0	0	0	0	0	0	0	0	0	0	0	0	8257	97	4	0	0	8358	0	0	0	0	14	32	0	15	0	1	0	0	0	0	0		"KRISTA BRAGG BRIONES, MANAGER -BUDGETING"	2106955991	7/12/2004	7/28/2004		
2003	20031381	"GRUVER, CITY OF"	6864	108 EAST BROADWAY STREET	GRUVER	HANSFORD	TX	79040	P.O. BOX 947	GRUVER		TX	79040	TX	1	0	0	0	11	0	0	0	0	0	12	47	41	0	0	459	0	0	0	0	0	547	0	1	0	0	0	0	1	0	0	0	0	0	0	0	0	0	0	0	0	0	0	0	0	0	0	0	0	0	0	0	0	0	0	0	0	0	6	5	0	0	0	11	0	0	0	0	0	0	0	0	0	0	0	0	0	0	0	0	0	0	0	0	0	0	7	5	0	0	0	12	0	0	88	0	0	0	0	88	0	0	0	0	0	0	0	0	0	0	0	0	0	0	0	0	0	0	0	0	0	0	0	0	0	0	0	0	0	452	7	0	0	0	459	0	0	0	0	0	0	0	0	0	0	0	0	0	0	0	0	0	0	0	0	0	0	540	7	0	0	0	547	0	0	0	0	0	0	0	0	0	0	0	0	0	0	0		"LINDA WELLER, CITY MANAGER"	8067332424	7/12/2004	7/28/2004		
2003	20031382	"KOUNTZE MUNICIPAL GAS SYSTEM, CITY OF"	10330	1025 N. PINE (PO BOX 188)	KOUNTZE	HARDIN	TX	77625						TX	0	0	0	16	22	0	0	0	0	0	38	0	0	0	23	530	0	0	0	0	0	553	0	0	16	0	0	0	16	0	0	0	0	0	0	0	0	0	0	0	0	0	0	0	0	0	0	0	0	0	0	0	0	0	0	0	0	0	17	5	0	0	0	22	0	0	0	0	0	0	0	0	0	0	0	0	0	0	0	0	0	0	0	0	0	0	17	21	0	0	0	38	20	0	23	0	0	0	0	23	0	0	0	0	0	0	0	0	0	0	0	0	0	0	0	0	0	0	0	0	0	0	0	0	0	0	0	0	0	521	9	0	0	0	530	0	0	0	0	0	0	0	0	0	0	0	0	0	0	0	0	0	0	0	0	0	0	544	9	0	0	0	553	0	0	0	0	1	2	1	0	1	0	0	0	5	0	0		"RODERICK HUTTO, UTILITY SUP"	4092463463	7/12/2004	7/28/2004		
2003	20031383	"LDC, INC"	31608	14300 CORNERSTONE VLG DR 	HOUSTON	HARRIS	TX	77014						 TX	0	0	0	0	31	0	0	0	0	0	31	0	0	0	0	193	0	0	0	0	0	193	0	0	0	0	0	0	0	0	0	0	0	0	0	0	0	0	0	0	0	0	0	0	0	0	0	0	0	0	0	0	0	0	0	0	0	0	11	20	0	0	0	31	0	0	0	0	0	0	0	0	0	0	0	0	0	0	0	0	0	0	0	0	0	0	11	20	0	0	0	31	20	0	0	0	0	0	0	0	0	0	0	0	0	0	0	0	0	0	0	0	0	0	0	0	0	0	0	0	0	0	0	0	0	0	0	0	0	193	0	0	0	0	193	0	0	0	0	0	0	0	0	0	0	0	0	0	0	0	0	0	0	0	0	0	0	193	0	0	0	0	193	0	0	2	0	0	0	0	0	0	0	0	0	2	0	9.75		"LARRY D CORLEY, PRESIDENT"	2815807779	7/12/2004	7/28/2004		
2003	20031384	MORSE UTILITY INC	25111	1116 S BERNICE	SPEARMAN	HANSFORD	TX	79081						TX	0	0	0	0	4	0	0	0	0	0	4	0	0	0	0	76	0	0	0	0	0	76	0	0	0	0	0	0	0	0	0	0	0	0	0	0	0	0	0	0	0	0	0	0	0	0	0	0	0	0	0	0	1	0	0	0	1	0	0	0	0	0	0	0	0	0	3	0	0	0	3	0	0	0	0	0	0	0	0	0	0	0	0	0	0	0	0	4	0	0	0	4	50	0	0	0	0	0	0	0	0	0	0	0	0	0	0	0	0	0	0	0	0	0	0	0	0	0	0	0	0	0	76	0	0	0	0	76	0	0	0	0	0	0	0	0	0	0	0	0	0	0	0	0	0	0	0	0	0	0	0	0	0	0	0	0	0	76	0	0	0	0	76	0	0	0	0	0	0	0	0	0	0	0	0	0	0	1		ESCHOL BLANKENSHIP	8066593052	7/12/2004	7/28/2004		
2003	20031385	NATGAS INC.	920	901 AVE H	OZONA	CROCKETT	TX	76943	 	 		TX	76943	TX	0	0	37	3	3	0	0	0	0	0	43	0	0	1300	25	45	0	0	0	0	0	1370	0	20	20	0	0	0	40	0	0	0	0	0	0	0	0	0	0	0	0	0	0	0	0	0	0	0	0	0	0	0	0	0	0	0	0	0	0	3	0	0	0	3	0	0	0	0	0	0	0	0	0	0	0	0	0	0	0	0	0	0	0	0	0	0	20	23	0	0	0	43	9	0	1315	10	0	0	0	1325	0	0	0	0	0	0	0	0	0	0	0	0	0	0	0	0	0	0	0	0	0	0	40	5	0	0	0	45	0	0	0	0	0	0	0	0	0	0	0	0	0	0	0	0	0	0	0	0	0	0	0	0	0	0	0	0	0	1355	15	0	0	0	1370	2	4	0	0	2	6	0	0	0	0	0	4	0	0	4.4		ED HALE - MANAGER	9153922201	7/12/2004	7/28/2004		
2003	20031386	NORTH TEXAS GAS	13582	HWY 87 SOUTH PO BOX 368	DALHART	HARTLEY	TX	79022						 TX	0	0	0	165	345	0	0	0	0	0	510	0	0	0	234	1017	0	0	0	0	0	1251	0	0	45	52	64	4	165	0	0	0	0	0	0	0	0	0	0	0	0	0	0	0	0	0	0	0	0	0	0	42	50	6	0	0	98	0	100	129	18	0	0	247	0	0	0	0	0	0	0	0	0	0	0	0	0	0	0	0	0	0	0	0	0	0	142	224	76	64	4	510	50	0	6	219	9	0	0	234	0	0	0	0	0	0	0	0	0	0	0	0	0	0	0	0	0	0	0	0	0	0	0	0	0	0	0	0	0	729	287	1	0	0	1017	0	0	0	0	0	0	0	0	0	0	0	0	0	0	0	0	0	0	0	0	0	0	735	506	10	0	0	1251	0	1	0	0	0	0	7	0	0	0	0	0	1	0	0		JAMES MCEVERS	8062494535	7/12/2004	7/28/2004		
2003	20031387	"ONALASKA, CITY OF"	887	647 HIGHWAY 356 (SOUTH)	ONALASKA	POLK	TX	77360	PO BOX 823	ONALASKA	POLK	TX	77360	TX	0	0	0	0	73	0	0	0	0	0	73	0	0	0	0	732	0	0	0	0	0	732	0	0	0	0	0	0	0	0	0	0	0	0	0	0	0	0	0	0	0	0	0	0	0	0	0	0	0	0	0	0	0	0	0	0	0	0	65	8	0	0	0	73	0	0	0	0	0	0	0	0	0	0	0	0	0	0	0	0	0	0	0	0	0	0	65	8	0	0	0	73	10	0	0	0	0	0	0	0	0	0	0	0	0	0	0	0	0	0	0	0	0	0	0	0	0	0	0	0	0	0	0	0	0	0	0	0	0	716	16	0	0	0	732	0	0	0	0	0	0	0	0	0	0	0	0	0	0	0	0	0	0	0	0	0	0	716	16	0	0	0	732	0	0	0	0	16	10	0	0	0	0	0	21	0	0	0.02		BOB. STUTTS	4096465393	7/14/2004	10/20/2004		
2003	20031388	PANTHER NATURAL GAS CO LTD 	31354	14405 WALTERS RD #960	HOUSTON	HARRIS	TX	77014	 	 	 	TX		TX	0	0	2	8	41	0	0	0	0	0	51	0	0	0	0	760	0	0	0	0	0	760	0	2	8	0	0	0	10	0	0	0	0	0	0	0	0	0	0	0	0	0	0	0	0	0	0	0	0	0	0	6	2	0	0	0	8	0	6	0	0	0	0	6	0	27	0	0	0	0	27	0	0	0	0	0	0	0	0	0	0	0	0	0	0	0	41	10	0	0	0	51	0	0	0	0	0	0	0	0	0	0	0	0	0	0	0	0	0	0	0	0	0	0	0	0	0	0	0	0	0	0	188	0	0	0	0	188	0	45	1	0	0	0	46	0	526	0	0	0	0	526	0	0	0	0	0	0	0	0	0	0	0	0	0	0	0	759	1	0	0	0	760	0	0	0	0	14	9	0	0	5	7	0	0	10	0	16		"JEFF SHIPPER, OPERATIONS MANAGER"	2818763600	7/12/2004	7/28/2004		
2003	20031389	PANTHER NATURAL GAS CO LTD 	31354	14405 WALTERS RD #960	HOUSTON	HARRIS	TX	77014	 	 	 	TX		TX	0	0	0	0	106	0	0	0	0	0	106	0	0	0	0	721	0	0	0	0	0	721	0	0	0	0	0	0	0	0	0	0	0	0	0	0	0	0	0	0	0	0	0	0	0	0	0	0	0	0	0	52	45	0	0	0	97	0	6	3	0	0	0	9	0	0	0	0	0	0	0	0	0	0	0	0	0	0	0	0	0	0	0	0	0	0	58	48	0	0	0	106	20	0	0	0	0	0	0	0	0	0	0	0	0	0	0	0	0	0	0	0	0	0	0	0	0	0	0	0	0	0	575	3	0	0	0	578	0	137	6	0	0	0	143	0	0	0	0	0	0	0	0	0	0	0	0	0	0	0	0	0	0	0	0	0	0	712	9	0	0	0	721	0	1	2	0	7	2	0	0	1	0	4	5	22	0	11		"JEFF SHIPPER, OPERATIONS MANAGER"	2818763600	7/12/2004	7/28/2004		
2003	20031390	"PINELAND GAS DEPT, CITY OF"	15581	P.O. BOX 6	PINELAND	SABINE	TX	75968						TX	0	0	0	0	4	0	0	0	7	0	11	0	0	0	175	167	0	0	0	0	0	342	0	0	0	0	0	0	0	0	0	0	0	0	0	0	0	0	0	0	0	0	0	0	0	0	0	0	0	0	0	4	3	0	0	0	7	0	4	0	0	0	0	4	0	0	0	0	0	0	0	0	0	0	0	0	0	0	0	0	0	0	0	0	0	0	8	3	0	0	0	11	20	0	175	0	0	0	0	175	0	0	0	0	0	0	0	0	0	0	0	0	0	0	0	0	0	0	0	0	0	0	0	0	0	0	0	0	0	167	0	0	0	0	167	0	0	0	0	0	0	0	0	0	0	0	0	0	0	0	0	0	0	0	0	0	0	342	0	0	0	0	342	0	2	0	0	0	0	0	0	3	3	0	0	0	0	2.45		CHARLES C. CORLEY III - UTILITY SUPT	4095842390	7/12/2004	7/28/2004		
2003	20031391	"SAN ANTONIO, CITY PUBLIC SERVICE BOARD OF"	18104	145 NAVARRO PO BOX 1771	SAN ANTONIO	BEXAR	TX	78296						TX	0	0	0	2758	1770	0	0	0	0	0	4528	0	0	0	154877	147016	0	0	0	0	0	301893	0	1382	631	418	161	166	2758	0	0	0	0	0	0	0	0	0	0	0	0	0	0	0	0	0	0	0	0	0	0	0	0	0	0	0	0	0	1166	485	119	0	0	1770	0	0	0	0	0	0	0	0	0	0	0	0	0	0	0	0	0	0	0	0	0	0	2548	1116	537	161	166	4528	60	0	153067	1434	367	9	0	154877	0	0	0	0	0	0	0	0	0	0	0	0	0	0	0	0	0	0	0	0	0	0	0	0	0	0	0	0	0	139301	7178	533	4	0	147016	0	0	0	0	0	0	0	0	0	0	0	0	0	0	0	0	0	0	0	0	0	0	292368	8612	900	13	0	301893	21	11	70	246	116	262	31	126	158	577	12	24	5	11	2.64		"THOMAS NARENDORF, ENGINEER III"	2103533766	7/12/2004	7/28/2004		
2003	20031392	"ROMA GAS DEPT, CITY OF"	17660	201 LINCOLN	ROMA	STARR	TX	78584						TX	0	0	2	0	22	0	0	0	0	0	24	0	0	0	0	0	0	0	0	0	0	0	0	2	0	0	0	0	2	0	0	0	0	0	0	0	0	0	0	0	0	0	0	0	0	0	0	0	0	0	0	0	0	0	0	0	0	0	4	0	0	0	0	4	0	19	0	0	0	0	19	0	0	0	0	0	0	0	0	0	0	0	0	0	0	0	25	0	0	0	0	25	40	0	96	0	0	0	0	96	0	0	0	0	0	0	0	0	0	0	0	0	0	0	0	0	0	0	0	0	0	0	0	0	0	0	0	0	0	188	0	0	0	0	188	0	873	25	0	0	0	898	0	0	0	0	0	0	0	0	0	0	0	0	0	0	0	1147	25	0	0	0	1172	0	0	0	0	0	0	0	0	2	0	0	0	0	0	3		MARY PILON	2108491411	7/12/2004	10/20/2004		
2003	20031393	"SEALY GAS DEPT, CITY OF"	18160	415 MAIN STREET	SEALY	AUSTIN	TX	77474						TX	0	0	1	12	28	0	0	0	0	0	41	0	0	10	96	1252	0	0	0	0	0	1358	0	10	3	0	0	0	13	0	0	0	0	0	0	0	0	0	0	0	0	0	0	0	0	0	0	0	0	0	0	0	0	0	0	0	0	0	15	11	2	0	0	28	0	0	0	0	0	0	0	0	0	0	0	0	0	0	0	0	0	0	0	0	0	0	25	14	2	0	0	41	45	0	104	2	0	0	0	106	0	0	0	0	0	0	0	0	0	0	0	0	0	0	0	0	0	0	0	0	0	0	0	0	0	0	0	0	0	1220	30	2	0	0	1252	0	0	0	0	0	0	0	0	0	0	0	0	0	0	0	0	0	0	0	0	0	0	1324	32	2	0	0	1358	1	3	0	0	1	2	1	6	0	0	0	0	0	0	0		JOHN MARESH - CITY MANAGER	9798853511	7/12/2004	7/28/2004		
2003	20031394	"SIENERGY, LP"	31148	4109 D MCKEEVER RD	MISSOURI CITY	FORT BEND	TX	77479						 TX	0	0	0	0	0	0	0	0	0	0	0	0	0	0	0	0	0	0	0	0	0	0	0	0	0	0	0	0	0	0	0	0	0	0	0	0	0	0	0	0	0	0	0	0	0	0	0	0	0	0	0	0	0	0	0	0	0	0	36	17	0	0	0	53	0	0	0	0	0	0	0	0	0	0	0	0	0	0	0	0	0	0	0	0	0	0	36	17	0	0	0	53	60	0	0	0	0	0	0	0	0	0	0	0	0	0	0	0	0	0	0	0	0	0	0	0	0	0	0	0	0	0	0	0	0	0	0	0	0	2465	0	0	0	0	2465	0	0	0	0	0	0	0	0	0	0	0	0	0	0	0	0	0	0	0	0	0	0	2465	0	0	0	0	2465	0	0	0	0	3	7	0	0	0	0	0	0	0	0	1.29		RYAN HERWECK	2817786250	7/12/2004	7/28/2004		
2003	20031395	SOUTHWEST TEXAS MUNICIPAL GAS CORP	18544	PO BOX 659	ALPINE	BREWSTER	TX	79831						 TX	0	0	2	47	18	0	0	0	0	0	67	0	0	0	2456	836	0	0	0	0	0	3292	0	42	7	0	0	0	49	0	0	0	0	0	0	0	0	0	0	0	0	0	0	0	0	0	0	0	0	0	0	0	0	0	0	0	0	0	14	4	0	0	0	18	0	0	0	0	0	0	0	0	0	0	0	0	0	0	0	0	0	0	0	0	0	0	56	11	0	0	0	67	39	0	2456	12	1	0	0	2469	0	0	0	0	0	0	0	0	0	0	0	0	0	0	0	0	0	0	0	0	0	0	0	0	0	0	0	0	0	815	8	0	0	0	823	0	0	0	0	0	0	0	0	0	0	0	0	0	0	0	0	0	0	0	0	0	0	3271	20	1	0	0	3292	4	6	2	25	0	0	0	0	0	0	0	0	4	0	2.5		TERRY W DOVE	4328373437	7/12/2004	7/28/2004		
2003	20031396	STARR COUNTY GAS SYSTEM	18626	413 1/2 E MAIN ST	RIO GRANDE CITY	STARR	TX	78582						 TX	0	0	0	3	26	0	0	0	39	0	68	0	0	0	41	872	0	0	0	1396	0	2309	0	2	1	0	0	0	3	0	0	0	0	0	0	0	0	0	0	0	0	0	0	0	0	0	0	0	0	0	0	26	0	0	0	0	26	0	36	3	0	0	0	39	0	0	0	0	0	0	0	0	0	0	0	0	0	0	0	0	0	0	0	0	0	0	64	4	0	0	0	68	10	0	41	0	0	0	0	41	0	0	0	0	0	0	0	0	0	0	0	0	0	0	0	0	0	0	0	0	0	0	872	0	0	0	0	872	0	1381	15	0	0	0	1396	0	0	0	0	0	0	0	0	0	0	0	0	0	0	0	0	0	0	0	0	0	0	2294	15	0	0	0	2309	0	0	5	1	0	0	0	0	0	0	14	0	0	0	1		"TOMAS CANTU, MANAGER"	9564872400	7/12/2004	10/20/2004		
2003	20031397	STERLING NATURAL GAS INC	17058	"PO BOX 812, 505 HILER"	STERLING CITY	STERLING	TX	76951						TX	0	23	0	0	2	0	0	0	0	0	25	0	290	0	0	62	0	0	0	0	0	352	0	10	13	0	0	0	23	0	0	0	0	0	0	0	0	0	0	0	0	0	0	0	0	0	0	0	0	0	0	0	0	0	0	0	0	0	2	0	0	0	0	2	0	0	0	0	0	0	0	0	0	0	0	0	0	0	0	0	0	0	0	0	0	0	12	13	0	0	0	25	10	0	290	0	0	0	0	290	0	0	0	0	0	0	0	0	0	0	0	0	0	0	0	0	0	0	0	0	0	0	0	0	0	0	0	0	0	62	0	0	0	0	62	0	0	0	0	0	0	0	0	0	0	0	0	0	0	0	0	0	0	0	0	0	0	352	0	0	0	0	352	1	1	0	0	0	0	0	0	0	0	0	0	2	0	0		"SUZANNE DAVIS, PRESIDENT"	9153782119	7/12/2004	7/28/2004		
2003	20031398	STOCKDALE NATURAL GAS SYSTEM	18652	P O BOX 446 700 W MAIN ST	STOCKDALE	WIILSON	TX	78160						 TX	0	0	0	29	3	0	0	0	0	0	32	0	0	0	437	28	0	0	0	0	0	465	0	13	16	0	0	0	29	0	0	0	0	0	0	0	0	0	0	0	0	0	0	0	0	0	0	0	0	0	0	0	0	0	0	0	0	0	2	1	0	0	0	3	0	0	0	0	0	0	0	0	0	0	0	0	0	0	0	0	0	0	0	0	0	0	15	17	0	0	0	32	20	0	436	1	0	0	0	437	0	0	0	0	0	0	0	0	0	0	0	0	0	0	0	0	0	0	0	0	0	0	0	0	0	0	0	0	0	25	0	3	0	0	28	0	0	0	0	0	0	0	0	0	0	0	0	0	0	0	0	0	0	0	0	0	0	461	1	3	0	0	465	0	1	0	0	0	2	0	0	0	1	0	1	0	0	1.1		MARGARET HASTINGS	8309963128	7/12/2004	7/28/2004		
2003	20031399	TEXAS GAS SERVICE COMPANY 	18532	1301 S MoPAC EXPWY #400	AUSTIN	TRAVIS	TX	78746						 TX	368	120	398	5020	2400	111	0	0	0	0	8417	16797	1788	16833	319179	171108	157	0	615	0	0	526477	0	3707	1533	566	83	17	5906	0	0	0	0	0	0	0	0	0	0	0	0	0	0	0	33	64	12	2	0	111	0	120	34	0	0	0	154	0	1741	386	95	0	0	2222	0	24	0	0	0	0	24	0	0	0	0	0	0	0	0	0	0	0	0	0	0	0	5625	2017	673	85	17	8417	47	0	297235	56683	653	26	0	354597	0	0	0	0	0	0	0	0	615	0	0	0	0	615	0	0	155	0	0	0	155	0	2002	32	0	0	0	2034	0	163251	4273	181	10	0	167715	0	1293	68	0	0	0	1361	0	0	0	0	0	0	0	0	0	0	0	0	0	0	0	464396	61211	834	36	0	526477	256	372	126	355	303	1121	44	55	105	207	223	349	1721	41	2		DOLORES P CHAVEZ	5123708347	7/12/2004	7/28/2004		
2003	20031400	"THREE RIVERS GAS, CITY OF"	19400	PO BOX 398/105 N HARBORTH	THREE RIVERS	LIVE OAK	TX	78071						TX	0	0	0	6	28	0	0	0	0	0	34	0	0	0	3	588	0	0	0	0	0	591	0	0	6	0	0	0	6	0	0	0	0	0	0	0	0	0	0	0	0	0	0	0	0	0	0	0	0	0	0	0	0	0	0	0	0	0	0	28	0	0	0	28	0	0	0	0	0	0	0	0	0	0	0	0	0	0	0	0	0	0	0	0	0	0	0	34	0	0	0	34	0	0	3	0	0	0	0	3	0	0	0	0	0	0	0	0	0	0	0	0	0	0	0	0	0	0	0	0	0	0	0	0	0	0	0	0	0	582	6	0	0	0	588	0	0	0	0	0	0	0	0	0	0	0	0	0	0	0	0	0	0	0	0	0	0	585	6	0	0	0	591	0	0	0	0	1	5	0	0	0	0	0	0	0	0	6		"VENAMAR LOPEZ, GAS SUPERVISOR"	3617862528	7/12/2004	7/28/2004		
2003	20031401	"WINONA, TOWN OF"	22742	520 DALLAS ST. PO. BOX 97	WINONA	SMITH	TX	75792						TX	4	0	0	8	15	0	0	0	0	0	27	51	0	0	152	235	0	0	0	0	0	438	0	1	10	1	0	0	12	0	0	0	0	0	0	0	0	0	0	0	0	0	0	0	0	0	0	0	0	0	0	0	0	0	0	0	0	0	13	1	1	0	0	15	0	0	0	0	0	0	0	0	0	0	0	0	0	0	0	0	0	0	0	0	0	0	14	11	2	0	0	27	42	0	188	9	6	0	0	203	0	0	0	0	0	0	0	0	0	0	0	0	0	0	0	0	0	0	0	0	0	0	0	0	0	0	0	0	0	221	13	1	0	0	235	0	0	0	0	0	0	0	0	0	0	0	0	0	0	0	0	0	0	0	0	0	0	409	22	7	0	0	438	3	4	0	0	0	0	0	0	0	0	0	0	4	0	10		"JAMES BIXLER, PUBLIC UTILITIES SUPERVISOR"	9038773381	7/12/2004	7/28/2004		
2003	20031402	"GARY, CITY OF"	6110	PO BOX 160	GARY	PANOLA	TX	75643						TX	0	0	0	124	50	0	0	0	3	0	177	0	0	0	713	624	0	0	0	0	0	1337	0	84	16	24	0	0	124	0	0	0	0	0	0	0	0	0	0	0	0	0	0	0	0	0	0	0	0	0	0	2	1	0	0	0	3	0	35	13	2	0	0	50	0	0	0	0	0	0	0	0	0	0	0	0	0	0	0	0	0	0	0	0	0	0	121	30	26	0	0	177	15	0	671	42	0	0	0	713	0	0	0	0	0	0	0	0	0	0	0	0	0	0	0	0	0	0	0	0	0	0	107	0	0	0	0	107	0	472	45	0	0	0	517	0	0	0	0	0	0	0	0	0	0	0	0	0	0	0	0	0	0	0	0	0	0	1250	87	0	0	0	1337	1	1	0	0	0	0	0	0	0	4	0	23	4	0	3.91	"THE FOUR UNREPAIRED LEAKS ARE ""C"" LEAKS ON METER SETUPS AND ABOVE GROUND."	R. N. YOUNG	9036852225	7/14/2004	12/28/2004		
2003	20031403	CITY GAS CO OF FLORIDA	2432	955 E 25 STREET	HIALEAH	DADE	FL	33013						FL	0	0	1	1	0	0	0	0	0	0	2	0	0	0	6	0	0	0	0	0	0	6	0	1	0	0	0	0	1	0	0	0	0	0	0	0	0	0	0	0	0	0	0	0	0	0	0	0	0	0	0	0	0	1	0	0	1	0	0	0	0	0	0	0	0	0	0	0	0	0	0	0	0	0	0	0	0	0	0	0	0	0	0	0	0	0	1	0	1	0	0	2	862	0	0	1	0	1	0	2	0	0	0	0	0	0	0	0	0	0	0	0	0	0	0	0	0	0	0	0	0	0	0	0	0	0	0	0	0	0	3	1	0	0	4	0	0	0	0	0	0	0	0	0	0	0	0	0	0	0	0	0	0	0	0	0	0	0	4	1	1	0	6	0	0	0	0	0	0	0	0	0	2	0	0	0	0	0	PALM BEACH DIVISION	"CELSO RODRIGUEZ, ENGINEERING MGR"	3056918710	7/20/2004	7/28/2004		
2003	20031404	CITY GAS CO OF FLORIDA	2432	955 E 25 STREET	HIALEAH	DADE	FL	33013						FL	0	0	0	703	557	0	0	0	0	0	1260	0	0	0	19349	23114	0	0	0	0	0	42463	0	481	114	93	15	0	703	0	0	0	0	0	0	0	0	0	0	0	0	0	0	0	0	0	0	0	0	0	0	0	0	0	0	0	0	0	510	25	22	0	0	557	0	0	0	0	0	0	0	0	0	0	0	0	0	0	0	0	0	0	0	0	0	0	991	139	115	15	0	1260	77	0	18701	647	1	0	0	19349	0	0	0	0	0	0	0	0	0	0	0	0	0	0	0	0	0	0	0	0	0	0	0	0	0	0	0	0	0	22178	924	12	0	0	23114	0	0	0	0	0	0	0	0	0	0	0	0	0	0	0	0	0	0	0	0	0	0	40879	1571	13	0	0	42463	1	49	0	3	54	83	0	2	2	20	9	59	0	0	0	BREVARD DIVISION	CAROLYN BERMUDEZ	3056918710	7/20/2004	7/28/2004		
2003	20031405	CITY GAS CO OF FLORIDA	2432	955 E 25 STREET	HIALEAH	DADE	FL	33013						FL	0	0	54	1239	337	0	0	0	0	0	1630	0	0	6799	39266	24419	0	0	0	0	0	70484	0	912	239	84	4	0	1239	0	0	0	0	0	0	0	0	0	0	0	0	0	0	0	0	0	0	0	0	0	0	0	0	0	0	0	0	0	288	47	2	0	0	337	0	0	0	0	0	0	0	0	54	0	0	0	0	54	0	0	0	0	0	0	0	0	1254	286	86	4	0	1630	64	26479	12714	59	10	4	0	39266	0	0	0	0	0	0	0	0	0	0	0	0	0	0	0	0	0	0	0	0	0	0	0	0	0	0	0	0	0	23494	906	19	0	0	24419	0	0	0	0	0	0	0	6799	0	0	0	0	0	6799	0	0	0	0	0	0	0	33278	36208	965	29	4	0	70484	10	320	4	30	49	136	7	108	27	478	15	109	0	0	0		CAROLYN BERMUDEZ	3056918710	7/20/2004	7/28/2004		
2003	20031406	CITY GAS CO OF FLORIDA	2432	955 E 25TH STREET	HIALEAH	DADE	FL	33013						FL	3	0	0	47	124	0	0	0	0	0	174	0	0	0	838	3256	0	0	0	0	0	4094	0	26	7	17	0	0	50	0	0	0	0	0	0	0	0	0	0	0	0	0	0	0	0	0	0	0	0	0	0	0	0	0	0	0	0	0	91	26	7	0	0	124	0	0	0	0	0	0	0	0	0	0	0	0	0	0	0	0	0	0	0	0	0	0	117	33	24	0	0	174	58	0	835	3	0	0	0	838	0	0	0	0	0	0	0	0	0	0	0	0	0	0	0	0	0	0	0	0	0	0	0	0	0	0	0	0	0	2964	292	0	0	0	3256	0	0	0	0	0	0	0	0	0	0	0	0	0	0	0	0	0	0	0	0	0	0	3799	295	0	0	0	4094	1	8	0	0	13	14	0	16	0	10	0	1	0	0	0		CAROLYN BERMUDEZ	3056918710	7/20/2004	7/28/2004		
2003	20031407	"CENTURY, TOWN OF"	2227	7995 N. CENTURY BLVD	CENTURY		FL	32535	P.O. DRAWER 790	CENTURY		FL	32535	FL	0	61	0	5	15	0	0	0	0	0	81	0	0	0	0	0	0	0	0	0	0	0	0	57	4	5	0	0	66	0	0	0	0	0	0	0	0	0	0	0	0	0	0	0	0	0	0	0	0	0	0	0	0	0	0	0	0	0	9	5	1	0	0	15	0	0	0	0	0	0	0	0	0	0	0	0	0	0	0	0	0	0	0	0	0	0	66	9	6	0	0	81	100	0	836	4	0	0	0	840	0	0	0	0	0	0	0	0	0	0	0	0	0	0	0	0	0	0	0	0	0	0	0	0	0	0	0	0	0	295	5	1	0	0	301	0	0	0	0	0	0	0	0	0	0	0	0	0	0	0	0	0	0	0	0	0	0	1131	9	1	0	0	1141	0	14	0	12	0	0	0	1	0	10	0	8	0	0	2		EDDIE HAMMOND	8502563208	7/20/2004	7/28/2004		
2003	20031408	"CHATTAHOOCHEE, CITY OF"	2289	"PO BOX 188, 115 LINCOLN "	CHATTAHOOCHEE	GADSDEN	FL	32324	P.O. BOX 188	CHATTAHOOCHEE		FL	32324	FL	0	0	0	19	0	0	0	0	0	0	19	2	2	0	987	27	0	0	0	0	0	1018	0	9	10	0	0	0	19	0	0	0	0	0	0	0	0	0	0	0	0	0	0	0	0	0	0	0	0	0	0	0	0	0	0	0	0	0	0	0	0	0	0	0	0	0	0	0	0	0	0	0	0	0	0	0	0	0	0	0	0	0	0	0	0	0	9	10	0	0	0	19	0	0	988	2	1	0	0	991	0	0	0	0	0	0	0	0	0	0	0	0	0	0	0	0	0	0	0	0	0	0	0	0	0	0	0	0	0	27	0	0	0	0	27	0	0	0	0	0	0	0	0	0	0	0	0	0	0	0	0	0	0	0	0	0	0	1015	2	1	0	0	1018	0	1	0	0	0	0	0	0	0	0	0	0	0	0	4		"KIM PRESNELL, DIRECTOR OF UTILITY"	9046634475	7/20/2004	7/28/2004		
2003	20031409	"HAVANA, TOWN OF"	7155	711 NORTH MAIN STREET P.O	HAVANA	GADSDEN	FL	32333						FL	0	0	0	14	2	0	0	0	0	0	16	0	0	0	361	184	0	0	0	0	0	545	0	8	6	0	0	0	14	0	0	0	0	0	0	0	0	0	0	0	0	0	0	0	0	0	0	0	0	0	0	2	0	0	0	0	2	0	0	0	0	0	0	0	0	0	0	0	0	0	0	0	0	0	0	0	0	0	0	0	0	0	0	0	0	0	10	6	0	0	0	16	0	0	352	8	1	0	0	361	0	0	0	0	0	0	0	0	0	0	0	0	0	0	0	0	0	0	0	0	0	0	0	0	0	0	0	0	0	183	1	0	0	0	184	0	0	0	0	0	0	0	0	0	0	0	0	0	0	0	0	0	0	0	0	0	0	535	9	1	0	0	545	0	0	0	0	0	0	0	0	0	22	0	0	0	0	0		"SUSAN FREIDEN, TOWN MANAGER"	8505392820	7/20/2004	7/28/2004		
2003	20031411	"LEESBURG, CITY OF"	11352	306 S 6TH STREET	LEESBURG	LAKE	FL	34748						 FL	0	0	0	218	0	0	0	0	0	0	218	0	0	0	9903	0	0	0	0	0	0	9903	0	164	32	22	0	0	218	0	0	0	0	0	0		0	0	0	0	0	0		0	0	0	0	0	0		0	0	0	0	0	0		0	0	0	0	0	0		0	0	0	0	0	0		0	0	0	0	0	0		0	0	0	0	0	0		0	164	32	22	0	0	218	100	0	9862	39	2	0	0	9903	0	0	0	0	0	0	0	0	0	0	0	0	0	0	0	0	0	0	0	0	0	0	0	0	0	0	0	0	0	0	0	0	0	0	0	0	0	0	0	0	0	0	0	0	0	0	0	0	0	0	0	0	0	0	0	0	0	9862	39	2	0	0	9903	0	1	0	0	0	7	0	0	0	0	0	211	0	0	1		"HARMON F BYNUM JR, GAS ENGINEER"	3527289869	7/20/2004	7/28/2004		
2003	20031412	"TALLAHASSEE, CITY OF"	19030	2602 JACKSON BLUFF ROAD	TALLAHASSEE	LEON	FL	32304						FL	0	0	0	359	357	0	0	0	0	0	716	0	0	0	9231	17077	0	0	0	0	0	26308	0	128	161	70	0	0	359	0	0	0	0	0	0	0	0	0	0	0	0	0	0	0	0	0	0	0	0	0	0	0	0	0	0	0	0	0	218	122	17	0	0	357	0	0	0	0	0	0	0	0	0	0	0	0	0	0	0	0	0	0	0	0	0	0	346	283	87	0	0	716	80	0	8965	251	14	1	0	9231	0	0	0	0	0	0	0	0	0	0	0	0	0	0	0	0	0	0	0	0	0	0	0	0	0	0	0	0	0	16974	103	0	0	0	17077	0	0	0	0	0	0	0	0	0	0	0	0	0	0	0	0	0	0	0	0	0	0	25939	354	14	1	0	26308	4	23	1	3	24	71	3	2	1	31	2	37	0	0	2.62	"DATA SOURCES  PLASTIC 2 (P.E.) DATA SOURCE HENRY BLOCKER ADMINISTRATIVE SPECIALIST'S EXCEL FILE C:\CYO3TAPS.XLS  STEEL: TIM POTTER'S FILED WORK PAPERS FOR ABANDONMENT'S AND STEEL SERVICES. UNACCOUNTED FOR GAS: TERRILL BOOKER, GAS SYSTEM SUPPORT ADMINISTRATOR'S EXCEL FILE C:\GASGSUMMARY03.XLS ALL OTHER DATA SOURCE PROVIDED BY TIM POTTER, GAS SUPERINTENDENT'S FILED WORK PAPERS REPORT FILENAME:C:\DISTR_ANN.FORM RSPA F7100.1-1 CY2003"	"TERRILL M BOOKER, GAS SYSTEM SUPPORT ADMINISTRATOR"	8508915110	7/20/2004	7/28/2004		
2003	20031413	REEDY CREEK ENERGY SERVICES 	17180	PO BOX 10000	LAKE BUENA VISTA	ORANGE	FL	32830	PO BIX 10170	LAKE BUENA VISTA	ORANGE	FL	32830	 FL	0	0	0	49	0	0	0	0	3	0	52	0	0	0	517	0	0	0	0	1	0	518	0	6	20	23	0	0	49	0	0	0	0	0	0	0	0	0	0	0	0	0	0	0	0	0	0	0	0	0	0	0	0	0	0	0	0	0	0	0	0	0	0	0	0	0	0	0	0	0	0	0	1	1	1	0	0	3	0	0	0	0	0	0	0	0	7	21	24	0	0	52	250	0	233	223	55	6	0	517	0	0	0	0	0	0	0	0	0	0	0	0	0	0	0	0	0	0	0	0	0	0	0	0	0	0	0	0	0	0	0	0	0	0	0	0	0	0	0	0	0	0	0	0	1	0	0	0	1	0	0	0	0	0	0	0	0	233	224	55	6	0	518	0	0	0	0	2	0	0	0	0	0	34	41	0	0	0	"PART B SECTIONS 1, 2, AND 3 (OTHER): REFERS TO RED THREAD FIBERGLASS PIPE, FROM A O SMITH INLAND COMPANY.  DESCRIPTION: A REINFORCED FIBERGLASS PIPE, OF WOVEN MONO-FILAMENT AND EPOXY.  PART C OTHER: TYPICAL LEAKS: I.E. SYSTEM VALVES REQUIRING LUBRICATION, LEAKING FLANGES, THREADED CONNECTIONS ON METER ASSEMBLIES. "	ALLEN HARVEY	4078246441	7/20/2004	8/31/2004		
2003	20031414	AREA HOUSING COMMISSION	32017	1920 WEST GARDEN ST	PENSACOLA	ESCAMBIA	FL	32501						 FL	0	2	0	0	4	0	0	0	0	0	6	0	118	0	0	528	0	0	0	0	0	646	0	1	1	0	0	0	2	0	0	0	0	0	0	0	0	0	0	0	0	0	0	0	0	0	0	0	0	0	0	1	1	0	0	0	2	0	2	0	0	0	0	2	0	0	0	0	0	0	0	0	0	0	0	0	0	0	0	0	0	0	0	0	0	0	4	2	0	0	0	6	0	0	118	0	0	0	0	118	0	0	0	0	0	0	0	0	0	0	0	0	0	0	0	0	0	0	0	0	0	0	0	231	141	0	0	372	0	112	44	0	0	0	156	0	0	0	0	0	0	0	0	0	0	0	0	0	0	0	0	0	0	0	0	0	0	230	275	141	0	0	646	0	4	1	1	0	0	0	0	0	0	0	16	0	0	0		"JOSEPH M ROGERS,"	8504388561	7/20/2004	8/17/2004		
2003	20031415	GAINESVILLE HOUSING AUTH	6031	1900 S. E. 4TH STREET	GAINESVILLE	ALACHUA	FL	32601						FL	0	0	0	1	0	0	0	0	0	0	1	0	0	0	100	0	0	0	0	0	0	100	0	0	1	0	0	0	1	0	0	0	0	0	0	0	0	0	0	0	0	0	0	0	0	0	0	0	0	0	0	0	0	0	0	0	0	0	0	0	0	0	0	0	0	0	0	0	0	0	0	0	0	0	0	0	0	0	0	0	0	0	0	0	0	0	0	1	0	0	0	1	50	0	100	0	0	0	0	100	0	0	0	0	0	0	0	0	0	0	0	0	0	0	0	0	0	0	0	0	0	0	0	0	0	0	0	0	0	0	0	0	0	0	0	0	0	0	0	0	0	0	0	0	0	0	0	0	0	0	0	0	0	0	0	0	0	100	0	0	0	0	100	0	0	0	0	0	0	0	0	0	0	0	0	0	0	0		ANTHONY H HEWITT	3523346020	7/20/2004	7/28/2004		
2003	20031416	GAINESVILLE HOUSING AUTH	6031	1900 S E 4TH STREET	GAINESVILLE	ALACHUA	FL	32601						FL	0	0	0	1	0	0	0	0	0	0	1	0	0	0	37	0	0	0	0	0	0	37	0	1	0	0	0	0	1	0	0	0	0	0	0	0	0	0	0	0	0	0	0	0	0	0	0	0	0	0	0	0	0	0	0	0	0	0	0	0	0	0	0	0	0	0	0	0	0	0	0	0	0	0	0	0	0	0	0	0	0	0	0	0	0	0	1	0	0	0	0	1	50	0	37	0	0	0	0	37	0	0	0	0	0	0	0	0	0	0	0	0	0	0	0	0	0	0	0	0	0	0	0	0	0	0	0	0	0	0	0	0	0	0	0	0	0	0	0	0	0	0	0	0	0	0	0	0	0	0	0	0	0	0	0	0	0	37	0	0	0	0	37	0	0	0	0	0	0	0	0	0	0	0	0	0	0	0		ANTHONY H HEWITT	3523346020	7/20/2004	7/28/2004		
2003	20031417	GAINESVILLE HOUSING AUTH	6031	1900 S E 4TH STREET	GAINESVILLE	ALACHUA	FL	32601						FL	0	0	0	1	0	0	0	0	0	0	1	0	0	0	174	0	0	0	0	0	0	174	0	0	1	0	0	0	1	0	0	0	0	0	0	0	0	0	0	0	0	0	0	0	0	0	0	0	0	0	0	0	0	0	0	0	0	0	0	0	0	0	0	0	0	0	0	0	0	0	0	0	0	0	0	0	0	0	0	0	0	0	0	0	0	0	0	1	0	0	0	1	50	0	174	0	0	0	0	174	0	0	0	0	0	0	0	0	0	0	0	0	0	0	0	0	0	0	0	0	0	0	0	0	0	0	0	0	0	0	0	0	0	0	0	0	0	0	0	0	0	0	0	0	0	0	0	0	0	0	0	0	0	0	0	0	0	174	0	0	0	0	174	0	0	0	0	0	0	0	0	0	0	0	0	0	0	0		ANTHONY H HEWITT	3523346020	7/20/2004	7/28/2004		
2003	20031418	GAINESVILLE HOUSING AUTH	6031	1900 S E 4TH STREET	GAINESVILLE	ALACHUA	FL	32601						FL	0	0	0	1	0	0	0	0	0	0	1	0	0	0	86	0	0	0	0	0	0	86	0	0	1	0	0	0	1	0	0	0	0	0	0	0	0	0	0	0	0	0	0	0	0	0	0	0	0	0	0	0	0	0	0	0	0	0	0	0	0	0	0	0	0	0	0	0	0	0	0	0	0	0	0	0	0	0	0	0	0	0	0	0	0	0	0	1	0	0	0	1	50	0	86	0	0	0	0	86	0	0	0	0	0	0	0	0	0	0	0	0	0	0	0	0	0	0	0	0	0	0	0	0	0	0	0	0	0	0	0	0	0	0	0	0	0	0	0	0	0	0	0	0	0	0	0	0	0	0	0	0	0	0	0	0	0	86	0	0	0	0	86	0	0	0	0	0	0	0	0	0	0	0	0	0	0	0		ANTHONY H HEWITT	3523346020	7/20/2004	7/28/2004		
2003	20031419	TALLAHASSEE HOUSING AUTH	26356	2940 GRADY ROAD	TALLAHASSEE	LEON	FL	32312						FL	0	0	0	7	0	0	0	0	0	0	7	0	0	0	537	0	0	0	0	0	0	537	0	7	0	0	0	0	7	0	0	0	0	0	0	0	0	0	0	0	0	0	0	0	0	0	0	0	0	0	0	0	0	0	0	0	0	0	0	0	0	0	0	0	0	0	0	0	0	0	0	0	0	0	0	0	0	0	0	0	0	0	0	0	0	0	7	0	0	0	0	7	50	0	537	0	0	0	0	537	0	0	0	0	0	0	0	0	0	0	0	0	0	0	0	0	0	0	0	0	0	0	0	0	0	0	0	0	0	0	0	0	0	0	0	0	0	0	0	0	0	0	0	0	0	0	0	0	0	0	0	0	0	0	0	0	0	537	0	0	0	0	537	0	2	0	3	0	0	0	0	0	0	0	0	0	0	0	ALL REPORTED LEAKS ARE REPAIRD WITH IN 24 HOURS OF NOTIFICATION.	"THOMAS C TRAPANE, MAINT DIRECTOR"	9043856126	7/20/2004	7/28/2004		
2003	20031420	PECOS GAS CO	30890	321 S OAK	PECOS	REEVES	TX	79772	PO BOX 989	PECOS	REEVES	TX	79772	 TX	0	0	0	0	79	0	0	0	0	0	79	0	0	0	0	46	0	0	0	0	0	46	0	0	0	0	0	0	0	0	0	0	0	0	0	0	0	0	0	0	0	0	0	0	0	0	0	0	0	0	0	0	0	0	0	0	0	0	60	19	0	0	0	79	0	0	0	0	0	0	0	0	0	0	0	0	0	0	0	0	0	0	0	0	0	0	60	19	0	0	0	79	0	0	0	0	0	0	0	0	0	0	0	0	0	0	0	0	0	0	0	0	0	0	0	0	0	0	0	0	0	0	0	0	0	0	0	0	0	0	46	0	0	0	46	0	0	0	0	0	0	0	0	0	0	0	0	0	0	0	0	0	0	0	0	0	0	0	46	0	0	0	46	0	0	0	0	0	0	0	0	0	0	0	0	0	0	0		"J M CARPENTER, PRESIDENT"	4324452463	7/12/2004	10/20/2004		
2003	20031421	ATMOS ENERGY COPORATION	20211	810 CRESCENT CTR DR #600	FRANKLIN	WILLIAMSON	TN	37067						MO	5	0	11	1365	535	10	0	0	0	0	1926	764	0	39887	33830	0	0	0	1667	0	0	76148	0	793	380	177	31	0	1381	0	0	0	0	0	0	0	0	0	0	0	0	0	0	0	4	2	3	1	0	10	0	48	0	0	0	0	48	0	379	102	6	0	0	487	0	0	0	0	0	0	0	0	0	0	0	0	0	0	0	0	0	0	0	0	0	0	1224	484	186	32	0	1926	71	1114	38339	1184	10	4	0	40651	0	0	0	0	0	0	0	0	1667	0	0	0	0	1667	0	0	0	0	0	0	0	0	1636	49	0	0	0	1685	0	31244	888	13	0	0	32145	0	0	0	0	0	0	0	0	0	0	0	0	0	0	0	0	0	0	0	0	0	1114	72886	2121	23	4	0	76148	18	70	3	20	38	120	17	43	3	37	22	16	347	0	1.1		"ROGER L MULLINS, PE MANAGER"	6157718466	1/22/2004	7/30/2004		
2003	20031422	ATMOS ENERGY CORPORATION	20211	800 CRESCENT CTR DR #600	FRANKLIN	WILLIAMSON	TN	37067					37067	 IL	39	0	12	405	232	0	0	0	0	0	688	0	0	0	10020	16809	0	0	0	0	0	26829	0	280	159	17	0	0	456	0	0	0	0	0	0	0	0	0	0	0	0	0	0	0	0	0	0	0	0	0	0	12	1	0	0	0	13	0	191	28	0	0	0	219	0	0	0	0	0	0	0	0	0	0	0	0	0	0	0	0	0	0	0	0	0	0	483	188	17	0	0	688	68	0	8479	1539	2	0	0	10020	0	0	0	0	0	0	0	0	0	0	0	0	0	0	0	0	0	0	0	0	0	0	1040	1	4	0	0	1045	0	15748	16	0	0	0	15764	0	0	0	0	0	0	0	0	0	0	0	0	0	0	0	0	0	0	0	0	0	0	25267	1556	6	0	0	26829	51	30	0	2	6	55	4	2	1	1	15	22	100	0	0.9		"ROGER L MULLINS, PE MANAGER"	6157718466	3/15/2004	7/30/2004		
2003	20031423	ATMOS ENERGY CORPORATION	20211	810 CRESCENT CTR DR #600	FRANKLIN	WILLIAMSON	TN	37067						 IA	0	0	0	35	65	3	0	0	0	0	103	0	0	0	9	4371	0	0	429	0	0	4809	0	25	6	2	2	0	35	0	0	0	0	0	0	0	0	0	0	0	0	0	0	0	0	3	0	0	0	3	0	0	0	0	0	0	0	0	49	11	5	0	0	65	0	0	0	0	0	0	0	0	0	0	0	0	0	0	0	0	0	0	0	0	0	0	74	20	7	2	0	103	100	0	0	7	2	0	0	9	0	0	0	0	0	0	0	0	429	0	0	0	0	429	0	0	0	0	0	0	0	0	0	0	0	0	0	0	0	4341	22	8	0	0	4371	0	0	0	0	0	0	0	0	0	0	0	0	0	0	0	0	0	0	0	0	0	0	4770	29	10	0	0	4809	0	0	0	1	0	6	0	0	0	0	0	15	9	0	0		"ROGER L MULLINS, PE MANAGER"	6157718466	3/15/2004	7/30/2004		
2003	20031424	ATMOS ENERGY CORPORATION	20211	810 CRESCENT CTR DR #600	FRANKLIN	WILLIAMSON	TN	37067						 VA	3	0	0	314	302	2	0	0	0	0	621	0	0	0	4466	16890	0	0	0	0	0	21356	0	176	91	50	0	0	317	0	0	0	0	0	0	0	0	0	0	0	0	0	0	0	0	1	1	0	0	2	0	0	0	0	0	0	0	0	0	0	0	0	0	0	0	228	74	0	0	0	302	0	0	0	0	0	0	0	0	0	0	0	0	0	0	0	404	166	51	0	0	621	105	0	3836	613	14	3	0	4466	0	0	0	0	0	0	0	0	0	0	0	0	0	0	0	0	0	0	0	0	0	0	0	0	0	0	0	0	0	16696	176	18	0	0	16890	0	0	0	0	0	0	0	0	0	0	0	0	0	0	0	0	0	0	0	0	0	0	20532	789	32	3	0	21356	24	8	5	4	21	79	2	1	1	0	20	12	149	0	2		"ROGER L MULLINS, PE MANAGER"	6157718466	3/15/2004	7/30/2004		
2003	20031425	ATMOS ENERGY CORPORATION	20211	810 CRESCENT CTR DR #600	FRANKLIN	WILLIAMSON	TN	37067						 GA	45	0	0	523	495	129	0	0	0	0	1192	6706	0	2865	25523	33156	0	0	0	0	0	68250	0	396	81	82	9	0	568	0	0	0	0	0	0	0	0	0	0	0	0	0	0	0	0	69	48	5	7	129	0	0	0	0	0	0	0	0	399	88	8	0	0	495	0	0	0	0	0	0	0	0	0	0	0	0	0	0	0	0	0	0	0	0	0	0	795	238	138	14	7	1192	105	0	34698	384	12	0	0	35094	0	0	0	0	0	0	0	0	0	0	0	0	0	0	0	0	0	0	0	0	0	0	0	0	0	0	0	0	0	32876	262	17	1	0	33156	0	0	0	0	0	0	0	0	0	0	0	0	0	0	0	0	0	0	0	0	0	0	67574	646	29	1	0	68250	288	203	4	11	33	109	5	6	1	5	197	231	743	0	0.5		"ROGER L MULLINS, PE MANAGER"	6157718466	3/15/2004	7/30/2004		
2003	20031426	ATMOS ENERGY CORPORATION	20211	810 CRESENT CTR DR #600	FRANKLIN	WILLIAMSON	TN	37067					37067	 TN	113	0	0	837	1964	0	0	0	0	0	2914	2028	153	0	15678	106213	0	0	0	0	0	124072	0	538	260	152	0	0	950	0	0	0	0	0	0	0	0	0	0	0	0	0	0	0	0	0	0	0	0	0	0	0	0	0	0	0	0	0	1564	376	24	0	0	1964	0	0	0	0	0	0	0	0	0	0	0	0	0	0	0	0	0	0	0	0	0	0	2102	636	176	0	0	2914	75	0	13451	4368	33	7	0	17859	0	0	0	0	0	0	0	0	0	0	0	0	0	0	0	0	0	0	0	0	0	0	0	0	0	0	0	0	0	105009	1177	24	3	0	106213	0	0	0	0	0	0	0	0	0	0	0	0	0	0	0	0	0	0	0	0	0	0	118460	5545	57	10	0	124072	152	51	2	20	101	340	10	39	9	86	51	58	1282	0	0		"ROGER L MULLINS, PE MANAGER"	6157718466	3/15/2004	7/30/2004		
2003	20031427	ATMOS ENERGY CORPORATION - COLORADO - KANSAS DIVISION	6720	"1301 PENNSYLVANIA ST,#800"	DENVER	DENVER	CO	80203	5430 LBJ FREEWAY	DALLAS	DALLAS	TX	75240	 MO	0	0	2	20	8	0	0	0	0	0	30	0	0	0	156	429	0	0	0	0	0	585	0	6	14	2	0	0	22	0	0	0	0	0	0	0	0	0	0	0	0	0	0	0	0	0	0	0	0	0	0	0	0	0	0	0	0	0	8	0	0	0	0	8	0	0	0	0	0	0	0	0	0	0	0	0	0	0	0	0	0	0	0	0	0	0	14	14	2	0	0	30	80	0	145	11	0	0	0	156	0	0	0	0	0	0	0	0	0	0	0	0	0	0	0	0	0	0	0	0	0	0	0	0	0	0	0	0	0	422	7	0	0	0	429	0	0	0	0	0	0	0	0	0	0	0	0	0	0	0	0	0	0	0	0	0	0	567	18	0	0	0	585	3	1	0	0	0	0	0	0	0	0	2	2	28	0		UNACCOUNTED FOR GAS -3.1%	STEVE MITCHELL	3038315685	3/15/2004	7/30/2004		
2003	20031428	WELCH GAS COOP	22350	127 WYOMING ST	WELCH	MCDOWELL	WV	24801						WV	0	0	0	8	43	0	0	0	0	0	51	0	0	0	1027	0	0	0	0	0	0	1027	0	7	1	0	0	0	8	0	0	0	0	0	0	0	0	0	0	0	0	0	0	0	0	0	0	0	0	0	0	0	0	0	0	0	0	0	22	21	0	0	0	43	0	0	0	0	0	0	0	0	0	0	0	0	0	0	0	0	0	0	0	0	0	0	29	22	0	0	0	51	60	0	0	0	0	0	0	0	0	0	0	0	0	0	0	0	0	0	0	0	0	0	0	0	0	0	0	0	0	0	0	0	0	0	0	0	0	827	200	0	0	0	1027	0	0	0	0	0	0	0	0	0	0	0	0	0	0	0	0	0	0	0	0	0	0	827	200	0	0	0	1027	0	0	0	3	2	2	0	0	0	0	0	0	0	0	4		CATHY LOCKHART	3044363295	8/20/2004	8/27/2004		
2003	20031429	"MONTGOMERY GAS TRANSMISSION, INC."	32023	166 BURGANDY VINE CT	CONROE		TX	77384						 TX	0	0	0	1	0	0	0	0	0	0	1	0	0	0	0	0	0	0	0	0	0	0	0	0	1	0	0	0	1	0	0	0	0	0	0	0	0	0	0	0	0	0	0	0	0	0	0	0	0	0	0	0	0	0	0	0	0	0	0	0	0	0	0	0	0	0	0	0	0	0	0	0	0	0	0	0	0	0	0	0	0	0	0	0	0	0	0	1	0	0	0	1	0	0	0	0	0	0	0	0	0	0	0	0	0	0	0	0	0	0	0	0	0	0	0	0	0	0	0	0	0	0	0	0	0	0	0	0	0	0	0	0	0	0	0	0	0	0	0	0	0	0	0	0	0	0	0	0	0	0	0	0	0	0	0	0	0	0	0	0	0	0	0	0	0	0	0	0	0	0	0	0	0	0	0	0	0	0		BARRY G CORLEY	2818937994	8/13/2004	8/27/2004		
2003	20031430	LOVELACE GAS SERVICE INC	11849	10606 E COLONIAL DRIVE	ORLANDO		FL	32817						 FL	0	0	0	7	3	0	0	0	0	0	10	0	0	0	1045	166	0	0	0	0	0	1211	0	7	0	0	0	0	7	0	0	0	0	0	0	0	0	0	0	0	0	0	0	0	0	0	0	0	0	0	0	0	0	0	0	0	0	0	3	0	0	0	0	3	0	0	0	0	0	0	0	0	0	0	0	0	0	0	0	0	0	0	0	0	0	0	10	0	0	0	0	10	0	0	1045	0	0	0	0	1045	0	0	0	0	0	0	0	0	0	0	0	0	0	0	0	0	0	0	0	0	0	0	0	0	0	0	0	0	0	166	0	0	0	0	166	0	0	0	0	0	0	0	0	0	0	0	0	0	0	0	0	0	0	0	0	0	0	1211	0	0	0	0	1211	0	6	0	1	0	0	0	0	0	0	0	0	0	0	5		GARRY LOVELACE	4072772966	8/19/2004	8/27/2004		
2003	20031431	EXXONMOBIL PRODUCTION COMPANY	4908	"PO BOX 4358, 14950 HEATHR"	HOUSTON	HARRIS	TX	77210	"PO BOX 4358, 14950 HEATHR"	HOUSTON		TX	77210	 OK	0	0	0	0	0	0	0	0	0	0	0	76	0	0	0	0	0	0	0	0	0	76	0	0	0	0	0	0	0	0	0	0	0	0	0	0	0	0	0	0	0	0	0	0	0	0	0	0	0	0	0	0	0	0	0	0	0	0	0	0	0	0	0	0	0	0	0	0	0	0	0	0	0	0	0	0	0	0	0	0	0	0	0	0	0	0	0	0	0	0	0	0	12	0	39	37	0	0	0	76	0	0	0	0	0	0	0	0	0	0	0	0	0	0	0	0	0	0	0	0	0	0	0	0	0	0	0	0	0	0	0	0	0	0	0	0	0	0	0	0	0	0	0	0	0	0	0	0	0	0	0	0	0	0	0	0	0	39	37	0	0	0	76	0	0	0	0	0	0	0	0	0	0	0	0	0	0	0		"PAMELA Y MURPHY, REGULATORY COMPLIANCE SUPERVISOR"	2816541101	3/3/2004	8/30/2004		
2003	20031432	EXXONMOBIL PRODUCTION COMPANY	4908	"PO BOX 4358, 395 W GREENS"	HOUSTON	HARRIS	TX	77210	"PO BOX 4358, 395 W GREENS"	HOUSTON	HARRIS	TX	77210	KS	0	0	0	0	0	0	0	0	0	0	0	333	0	0	0	0	0	0	0	0	0	333	0	0	0	0	0	0	0	0	0	0	0	0	0	0	0	0	0	0	0	0	0	0	0	0	0	0	0	0	0	0	0	0	0	0	0	0	0	0	0	0	0	0	0	0	0	0	0	0	0	0	0	0	0	0	0	0	0	0	0	0	0	0	0	0	0	0	0	0	0	0	12	0	259	74	0	0	0	333	0	0	0	0	0	0	0	0	0	0	0	0	0	0	0	0	0	0	0	0	0	0	0	0	0	0	0	0	0	0	0	0	0	0	0	0	0	0	0	0	0	0	0	0	0	0	0	0	0	0	0	0	0	0	0	0	0	259	74	0	0	0	333	0	0	0	0	0	0	0	0	0	0	0	0	0	0	0		PAMELA Y MURPHY	2816541102	3/3/2004	8/30/2004		
2003	20031433	CENTRAL VALLEY AG COOPERATIVE	31414	"PO BOX 330, 415 E HIGHWAY"	ONEILL	HOLT	NE	68763						 NE	0	0	0	0	11	0	0	0	0	0	11	0	0	0	0	14	0	0	0	0	0	14	0	0	0	0	0	0	0	0	0	0	0	0	0	0	0	0	0	0	0	0	0	0	0	0	0	0	0	0	0	0	0	0	0	0	0	0	3	8	0	0	0	11	0	0	0	0	0	0	0	0	0	0	0	0	0	0	0	0	0	0	0	0	0	0	3	8	0	0	0	11	0	0	0	0	0	0	0	0	0	0	0	0	0	0	0	0	0	0	0	0	0	0	0	0	0	0	0	0	0	0	0	0	0	0	0	0	0	0	12	2	0	0	14	0	0	0	0	0	0	0	0	0	0	0	0	0	0	0	0	0	0	0	0	0	0	0	12	2	0	0	14	0	0	0	0	0	0	0	0	0	0	0	0	5	0	0.3		"WARREN HULL, VP"	4023361263	3/8/2004	8/30/2004		
2003	20031434	ADM CORN PROCESSING DIVISION - NORTHWEST GAS CONTRACTED	31007	PO BOX 721	MAPLETON	BLUE EARTH	MN	56065	PO BOX 1470	DECATUR		IL	62525	 MN	0	0	0	0	0	0	0	0	0	0	0	0	0	0	0	6	0	0	0	0	0	6	0	0	0	0	0	0	0	0	0	0	0	0	0	0	0	0	0	0	0	0	0	0	0	0	0	0	0	0	0	0	0	0	0	0	0	0	0	0	0	0	0	0	0	0	0	0	0	0	0	0	0	0	0	0	0	0	0	0	0	0	0	0	0	0	0	0	0	0	0	0	0	0	0	0	0	0	0	0	0	0	0	0	0	0	0	0	0	0	0	0	0	0	0	0	0	0	0	0	0	0	0	0	0	0	0	0	0	6	0	0	0	0	6	0	0	0	0	0	0	0	0	0	0	0	0	0	0	0	0	0	0	0	0	0	0	6	0	0	0	0	6	0	0	0	0	0	0	0	0	0	0	0	0	0	0	0		"CHERI LANDSTEINER, OFF MGR"	5075244103	2/24/2004	8/30/2004		
2003	20031435	ALLEGHENY POWER GAS OPERATIONS (FORMERLY WEST VIRGINIA POWER GAS SERVICE)	30516	90 LAMPLIGHTER ST	OAK HILL		WV	25901						 WV	178	0	1	54	478	0	0	0	0	0	711	6549	0	4	1917	17978	0	0	0	0	0	26448	0	105	75	53	0	0	233	0	0	0	0	0	0	0	0	0	0	0	0	0	0	0	0	0	0	0	0	0	0	0	0	0	0	0	0	0	358	112	8	0	0	478	0	0	0	0	0	0	0	0	0	0	0	0	0	0	0	0	0	0	0	0	0	0	463	187	61	0	0	711	10	0	6886	1581	3	0	0	8470	0	0	0	0	0	0	0	0	0	0	0	0	0	0	0	0	0	0	0	0	0	0	0	0	0	0	0	0	0	15981	1975	21	1	0	17978	0	0	0	0	0	0	0	0	0	0	0	0	0	0	0	0	0	0	0	0	0	0	22867	3556	24	1	0	26448	133	94	2	4	18	20	4	8	13	32	10	17	19	0	6.43		"MARK W LOKANT, GAS OPERATIONS MANAGER"	3044656004	3/9/2004	9/16/2004		
2003	20031436	ATMOS ENERGY CORP - LOUISIANA DIVISION	11800	3616 S I-10 SERVICE RD200	METARIE	JEFFERSON	LA	70002	PO BOX 650205	DALLAS		TX	75265	 LA	4	0	225	5586	2158	18	0	0	0	0	7991	0	0	0	294640	96792	1	0	0	0	0	391433	0	4481	1039	273	22	0	5815	0	0	0	0	0	0	0	0	0	0	0	0	0	0	0	0	4	11	3	0	18	0	71	0	0	0	0	71	0	1829	248	10	0	0	2087	0	0	0	0	0	0	0	0	0	0	0	0	0	0	0	0	0	0	0	0	0	0	6381	1291	294	25	0	7991	81	10	290544	3859	210	15	2	294640	0	0	0	0	0	0	0	0	0	0	0	0	0	0	0	1	0	0	0	0	1	0	587	100	0	0	0	687	26	93764	2253	10	0	52	96105	0	0	0	0	0	0	0	0	0	0	0	0	0	0	0	0	0	0	0	0	0	36	384896	6212	220	15	54	391433	559	1280	72	111	191	438	119	209	374	1019	206	950	7603	0	3.06		"ANTHONY BROWN, MANAGER OF COMPLIANCE"	5048494363	3/23/2004	9/16/2004		
2003	20031437	DRAKESBORO NATURAL GAS CO	3538	"PO BOX 145, 212 MOSE RAGE"	DRAKESBORO	MUHLENBERG	KY	42337						KY	0	0	0	22	23	0	0	0	0	0	45	0	0	0	575	181	0	0	0	0	0	756	0	0	22	0	0	0	22	0	0	0	0	0	0	0	0	0	0	0	0	0	0	0	0	0	0	0	0	0	0	0	0	0	0	0	0	0	0	23	0	0	0	23	0	0	0	0	0	0	0	0	0	0	0	0	0	0	0	0	0	0	0	0	0	0	0	45	0	0	0	45	35	0	575	0	0	0	0	575	0	0	0	0	0	0	0	0	0	0	0	0	0	0	0	0	0	0	0	0	0	0	0	0	0	0	0	0	0	181	0	0	0	0	181	0	0	0	0	0	0	0	0	0	0	0	0	0	0	0	0	0	0	0	0	0	0	756	0	0	0	0	756	4	2	0	0	0	0	0	0	0	0	0	0	3	0	0		"EDDIE BRAKE, CITY MANAGER"	2704768986	3/16/2004	9/16/2004		
2003	20031439	ATMOS ENERGY - TEXAS DIVISION	4473	5110 80TH STREET	LUBBOCK	LUBBOCK	TX	79424						 TX	1659	0	0	4457	8199	0	0	0	0	0	14315	89683	0	0	132339	78287	0	0	0	0	0	300309	0	2794	2566	623	68	65	6116	0	0	0	0	0	0	0	0	0	0	0	0	0	0	0	0	0	0	0	0	0	0	4047	43	0	0	0	4090	0	1836	319	6	0	0	2161	0	1674	274	0	0	0	1948	0	0	0	0	0	0	0	0	0	0	0	0	0	0	0	10351	3202	629	68	65	14315	10	0	131305	90002	593	122	0	222022	0	0	0	0	0	0	0	0	0	0	0	0	0	0	0	0	0	0	0	0	0	0	158	2728	1	0	0	2887	0	71029	3603	613	0	0	75245	0	0	0	0	0	0	0	0	0	0	0	0	0	0	0	0	0	0	0	0	0	0	202492	96333	1207	122	0	300154	715	115	70	17	276	114	32	24	35	6	1273	189	2868	0	3	INCLUDES ASSETS ACQUIRED FROM ONEOK WEST TEX DIVISION	JOSE VALENCIANO	8067984485	3/2/2004	9/16/2004		
2003	20031440	DESOTO PIPELINE CO INC	3925	2584 TED TROUT DR	LUFKIN	ANGELINA	TX	75904	 	 	 	TX	75915	TX	0	0	0	0	4	0	0	0	0	0	4	0	0	0	0	4	0	0	0	0	0	4	0	0	0	0	0	0	0	0	0	0	0	0	0	0	0	0	0	0	0	0	0	0	0	0	0	0	0	0	0	0	0	0	0	0	0	0	0	4	0	0	0	4	0	0	0	0	0	0	0	0	0	0	0	0	0	0	0	0	0	0	0	0	0	0	0	4	0	0	0	4	150	0	0	0	0	0	0	0	0	0	0	0	0	0	0	0	0	0	0	0	0	0	0	0	0	0	0	0	0	0	0	0	0	0	0	0	0	4	0	0	0	0	4	0	0	0	0	0	0	0	0	0	0	0	0	0	0	0	0	0	0	0	0	0	0	4	0	0	0	0	4	0	0	0	0	0	0	0	0	0	0	0	0	0	0	0		"CHRISTOHPER C SMITH, MGR - PIPELINE OPERATIONS"	9366321440	8/4/2004	9/16/2004		
2003	20031441	VEOLIA WATER NORTH AMERICA	30568	306 ISLAND CREEK RD	PIKEVILLE	PIKE	KY	41501	113 COLLEGE ST	PIKEVILLE		KY	41501	 KY	0	0	0	8	53	0	0	0	0	0	61	0	55	0	0	1687	0	0	0	0	0	1742	0	1	10	3	0	0	14	0	0	0	0	0	0	0	0	0	0	0	0	0	0	0	0	0	0	0	0	0	0	0	0	0	0	0	0	0	19	28	0	0	0	47	0	0	0	0	0	0	0	0	0	0	0	0	0	0	0	0	0	0	0	0	0	0	20	38	3	0	0	61	40	0	37	4	0	0	0	41	0	0	0	0	0	0	0	0	0	0	0	0	0	0	0	0	0	0	0	0	0	0	0	0	0	0	0	0	0	1661	36	4	0	0	1701	0	0	0	0	0	0	0	0	0	0	0	0	0	0	0	0	0	0	0	0	0	0	1698	40	4	0	0	1742	6	1	5	7	7	8	3	3	0	5	0	0	3	0	6	"NUMBER OF LEAKS SCHEDULE FOR REPAIR ARE CLASS III LEAKS.  WE HAVE REPLACED 250 FEET OF 1"" STEEL WITH 1 1/4"" ASTM D-2513 DRISCO PLEX GAS PIPE IN THE SHELBOURNE AREA.  WE HAVE REPLACED 250 FEET OF 4"" STEEL GAS LINE WITH 4"" ASTM D-2513 DRISCO PLEX GAS PIPE ON HELLIER STREET.  WE HAVE UPGRADED 3"" PLASTIC GAS LINE TO 4"" ASTM D-2513 AMERIFLOW GAS PIPE AND REPLACED 200 FEET OF 3"" STEEL GAS PIPE ON KENTUCKY AVE.  WE HAVE HAD SOME GAS LOSS DUE TO THE LAST PHASE OF CONSTRUCTION IN RELOCATING UNDERGROUND UTILITIES."	DALE HAMILTON	6064375114	3/1/2004	9/16/2004		
2003	20031442	DAL - MAR ENERGY INC	3080	P.O. BOX 280/101 S MAIN	CROSS PLAINS	CALLAHAN	TX	76443						TX	0	0	0	0	16	0	0	0	0	0	16	0	0	0	0	547	0	0	0	0	0	547	0	0	2	0	0	0	2	0	0	0	0	0	0	0	0	0	0	0	0	0	0	0	0	0	0	0	0	0	0	13	1	0	0	0	14	0	0	0	0	0	0	0	0	0	0	0	0	0	0	0	0	0	0	0	0	0	0	0	0	0	0	0	0	0	13	3	0	0	0	16	0	0	0	0	0	0	0	0	0	0	0	0	0	0	0	0	0	0	0	0	0	0	0	0	0	0	0	0	0	0	0	0	0	0	0	0	0	547	0	0	0	0	547	0	0	0	0	0	0	0	0	0	0	0	0	0	0	0	0	0	0	0	0	0	0	547	0	0	0	0	547	0	0	0	0	0	0	0	0	0	0	0	0	0	0	0		LINDA SLAYMAKER	2547257423	8/20/2004	9/16/2004		
2003	20031443	"BENAVIDES, CITY OF"	1228	PO BOX DRAWER R	BENAVIDES	DUVAL	TX	78341						TX	0	0	225	10	0	0	0	0	0	0	235	0	0	0	410	0	0	0	0	0	0	410	0	0	0	0	0	0	0	0	0	0	0	0	0	0	0	0	0	0	0	0	0	0	0	0	0	0	0	0	0	0	0	0	0	0	0	0	22	0	0	0	0	22	0	0	0	0	0	0	0	0	0	0	0	0	0	0	0	0	0	0	0	0	0	0	22	0	0	0	0	22	6	0	0	0	0	0	0	0	0	0	0	0	0	0	0	0	0	0	0	0	0	0	0	0	0	0	0	0	0	0	0	0	0	0	0	0	0	0	410	0	0	0	410	0	0	0	0	0	0	0	0	0	0	0	0	0	0	0	0	0	0	0	0	0	0	0	410	0	0	0	410	0	0	0	0	0	0	0	0	0	0	0	0	0	0	6		"CELESTE V PENA, CITY SECRETARY"	3612563283	8/20/2004	9/16/2004		
2003	20031444	PANTHER NATURAL GAS CO LTD 	31354	14405 WALTERS RD #960	HOUSTON	HARRIS	TX	77014	 	 	 	TX		TX	0	0	0	0	8	0	0	0	0	0	8	0	0	0	0	129	0	0	0	0	0	129	0	0	0	0	0	0	0	0	0	0	0	0	0	0	0	0	0	0	0	0	0	0	0	0	0	0	0	0	0	3	0	0	0	0	3	0	4	1	0	0	0	5	0	0	0	0	0	0	0	0	0	0	0	0	0	0	0	0	0	0	0	0	0	0	7	1	0	0	0	8	20	0	0	0	0	0	0	0	0	0	0	0	0	0	0	0	0	0	0	0	0	0	0	0	0	0	0	0	0	0	0	0	0	0	0	0	0	129	0	0	0	0	129	0	0	0	0	0	0	0	0	0	0	0	0	0	0	0	0	0	0	0	0	0	0	129	0	0	0	0	129	0	0	0	0	1	0	0	0	1	0	0	0	2	0	7		"JEFF SHIPPER, OPERATIONS MANAGER"	2818763600	8/20/2004	9/16/2004		
2003	20031445	COLORADO CITY GAS DEPARTMENT	31795	PO BOX 840809	HILDALE	WASHINGTON	UT							 AZ	0	0	0	0	11	0	0	0	0	0	11	0	0	0	0	172	0	0	0	0	0	172	0	0	0	0	0	0	0	0	0	0	0	0	0	0	0	0	0	0	0	0	0	0	0	0	0	0	0	0	0	0	0	0	0	0	0	0	10	1	0	0	0	11	0	0	0	0	0	0	0	0	0	0	0	0	0	0	0	0	0	0	0	0	0	0	10	1	0	0	0	11	50	0	0	0	0	0	0	0	0	0	0	0	0	0	0	0	0	0	0	0	0	0	0	0	0	0	0	0	0	0	0	0	0	0	0	0	0	171	1	0	0	0	172	0	0	0	0	0	0	0	0	0	0	0	0	0	0	0	0	0	0	0	0	0	0	171	1	0	0	0	172	0	0	0	0	0	2	0	0	0	0	0	0	0	0	0		JUSTIN JESSOP	4358741160	3/5/2004	10/21/2004		
2003	20031446	LOBELVILLE GAS CO	11624	P.O. BOX 369	LOBELVILLE	PERRY	TN	37097						TN	0	0	0	0	29	0	0	0	0	0	29	0	0	0	3	310	0	0	0	0	0	313	0	0	0	0	0	0	0	0	0	0	0	0	0	0	0	0	0	0	0	0	0	0	0	0	0	0	0	0	0	0	0	0	0	0	0	0	22	7	0	0	0	29	0	0	0	0	0	0	0	0	0	0	0	0	0	0	0	0	0	0	0	0	0	0	22	7	0	0	0	29	0	0	0	3	0	0	0	3	0	0	0	0	0	0	0	0	0	0	0	0	0	0	0	0	0	0	0	0	0	0	0	0	0	0	0	0	0	0	244	66	0	0	310	0	0	0	0	0	0	0	0	0	0	0	0	0	0	0	0	0	0	0	0	0	0	0	247	66	0	0	313	0	0	0	0	0	0	0	0	0	0	0	0	0	0	2.8		"CRISTAL ODOM, CITY RECORDER"	6155932285	8/4/2004	10/4/2004		
2003	20031447	"SYLVIA MUNICIPAL GAS DEPT, CITY OF"	18800	121 SOUTH MAIN STREET	SYLVIA	RENO	KS	67581						KS	0	0	4	2	5	0	0	0	0	0	11	0	0	149	34	9	0	0	0	0	0	192	0	5	2	0	0	0	7	0	0	0	0	0	0	0	0	0	0	0	0	0	0	0	0	0	0	0	0	0	0	0	0	0	0	0	0	0	4	0	0	0	0	4	0	0	0	0	0	0	0	0	0	0	0	0	0	0	0	0	0	0	0	0	0	0	9	2	0	0	0	11	0	0	8	176	0	0	0	184	0	0	0	0	0	0	0	0	0	0	0	0	0	0	0	0	0	0	0	0	0	0	0	0	0	0	0	0	0	4	4	0	0	0	8	0	0	0	0	0	0	0	0	0	0	0	0	0	0	0	0	0	0	0	0	0	0	12	180	0	0	0	192	0	0	0	0	0	0	0	0	0	0	0	0	2	0	0.5		EUGENE CONRAD	3164862472	3/19/2004	10/4/2004		
2003	20031448	CITIZENS GAS FUEL CO	2408	127 N. MAIN STREET	ADRIAN	LENAWEE	MI	49221						MI	0	0	0	132	310	0	0	0	0	0	442	0	0	0	3216	12273	0	0	0	0	0	15489	0	28	82	20	2	0	132	0	0	0	0	0	0	0	0	0	0	0	0	0	0	0	0	0	0	0	0	0	0	83	227	0	0	0	310	0	0	0	0	0	0	0	0	0	0	0	0	0	0	0	0	0	0	0	0	0	0	0	0	0	0	0	0	0	111	309	20	2	0	442	100	0	2031	1142	42	1	0	3216	0	0	0	0	0	0	0	0	0	0	0	0	0	0	0	0	0	0	0	0	0	0	0	0	0	0	0	0	0	12116	148	9	0	0	12273	0	0	0	0	0	0	0	0	0	0	0	0	0	0	0	0	0	0	0	0	0	0	14147	1290	51	1	0	15489	1	1	6	9	3	49	2	10	0	5	0	0	0	0	0		BERT A FRUCHEY	5172644447	3/22/2004	10/4/2004		
2003	20031449	OPS - ANNUAL INCIDENT ACCIDENTS	77777	PO BOX 326	NEWELLTON		LA	71357						 LA	0	0	0	6	0	0	0	0	0	0	6	0	0	0	16	0	0	0	0	0	0	16	0	0	6	0	0	0	6	0	0	0	0	0	0	0	0	0	0	0	0	0	0	0	0	0	0	0	0	0	0	0	0	0	0	0	0	0	0	0	0	0	0	0	0	0	0	0	0	0	0	0	0	0	0	0	0	0	0	0	0	0	0	0	0	0	0	6	0	0	0	6	0	0	9	2	0	0	0	11	0	0	0	0	0	0	0	0	0	0	0	0	0	0	0	0	0	0	0	0	0	0	0	0	0	0	0	0	0	5	0	0	0	0	5	0	0	0	0	0	0	0	0	0	0	0	0	0	0	0	0	0	0	0	0	0	0	14	2	0	0	0	16	0	2	0	0	0	0	0	0	0	0	0	6	4	0	0		ROY SIKES	3187660603	3/12/2004	10/21/2004		
2003	20031450	"GOLDSMITH GAS DEPT, CITY OF"	6430	111 N. HENDRICKSON ST	GOLDSMITH	ECTOR	TX	79741						TX	0	0	0	0	5	0	0	0	0	0	5	0	0	0	2	181	0	0	0	0	0	183	0	0	0	0	0	0	0	0	0	0	0	0	0	0	0	0	0	0	0	0	0	0	0	0	0	0	0	0	0	0	0	0	0	0	0	0	0	5	0	0	0	5	0	0	0	0	0	0	0	0	0	0	0	0	0	0	0	0	0	0	0	0	0	0	0	5	0	0	0	5	0	0	2	0	0	0	0	2	0	0	0	0	0	0	0	0	0	0	0	0	0	0	0	0	0	0	0	0	0	0	0	0	0	0	0	0	0	181	0	0	0	0	181	0	0	0	0	0	0	0	0	0	0	0	0	0	0	0	0	0	0	0	0	0	0	183	0	0	0	0	183	0	0	0	0	0	0	0	0	0	0	0	0	0	0	0		BENNIE COPE	9158273404	11/22/2004	12/7/2004		
2003	20031451	"BRACKETTVILLE, CITY OF, HOUSING AUTH OF"	1684	119 WEST SPRING ST.	BRACKETTVILLE	KINNEY	TX	78832						TX	0	0	0	18	0	0	0	0	0	0	18	0	0	0	0	0	0	0	0	0	0	0	0	8	10	0	0	0	18	0	0	0	0	0	0	0	0	0	0	0	0	0	0	0	0	0	0	0	0	0	0	0	0	0	0	0	0	0	0	0	0	0	0	0	0	0	0	0	0	0	0	0	0	0	0	0	0	0	0	0	0	0	0	0	0	0	8	10	0	0	0	18	0	0	360	4	0	0	0	364	0	0	0	0	0	0	0	0	0	0	0	0	0	0	0	0	0	0	0	0	0	0	0	0	0	0	0	0	0	0	0	0	0	0	0	0	0	0	0	0	0	0	0	0	0	0	0	0	0	0	0	0	0	0	0	0	0	360	4	0	0	0	364	0	0	0	3	0	0	0	0	0	0	0	0	3	0	0		DAVID MARTINEZ JR	8305633199	11/19/2004	12/7/2004		
2003	20031452	"ROCKFORD GAS BOARD, TOWN OF"	17590	"TOWN HALL, PO BOX 128"	ROCKFORD	COOSA	AL	35136						 AL	0	0	0	5	1	0	0	0	0	0	6	0	0	0	118	14	0	0	0	0	0	132	0	5	0	0	0	0	5	0	0	0	0	0	0	0	0	0	0	0	0	0	0	0	0	0	0	0	0	0	0	0	0	0	0	0	0	0	1	0	0	0	0	1	0	0	0	0	0	0	0	0	0	0	0	0	0	0	0	0	0	0	0	0	0	0	6	0	0	0	0	6	50	0	116	2	0	0	0	118	0	0	0	0	0	0	0	0	0	0	0	0	0	0	0	0	0	0	0	0	0	0	0	0	0	0	0	0	0	11	3	0	0	0	14	0	0	0	0	0	0	0	0	0	0	0	0	0	0	0	0	0	0	0	0	0	0	127	5	0	0	0	132	0	0	0	0	0	1	0	1	0	0	0	0	0	0	1.1		"RANDY HAMMOND, SUPT"	2563774911	1/12/2005	2/22/2005		
2003	20031453	GUTHRIE NATURAL GAS	31412	P O BOX 125 250 CYPRESS L	GUTHRIE	TODD	KY	42234					42234	 KY	0	0	0	0	14	0	0	0	0	0	14	0	0	0	0	176	0	0	0	0	0	176	0	0	0	0	0	0	0	0	0	0	0	0	0	0	0	0	0	0	0	0	0	0	0	0	0	0	0	0	0	0	0	0	0	0	0	0	8	6	0	0	0	14	0	0	0	0	0	0	0	0	0	0	0	0	0	0	0	0	0	0	0	0	0	0	8	6	0	0	0	14	0	0	0	0	0	0	0	0	0	0	0	0	0	0	0	0	0	0	0	0	0	0	0	0	0	0	0	0	0	0	0	0	0	0	0	0	0	172	4	0	0	0	176	0	0	0	0	0	0	0	0	0	0	0	0	0	0	0	0	0	0	0	0	0	0	172	4	0	0	0	176	0	0	0	0	0	0	0	0	0	0	0	0	0	0			TOM ELLIS	2704839914	3/10/2004	5/18/2005		
2003	20031454	"TEXAS COMMUNITY PROPANE, INC."	32061	2579 WESTERN TRAIL #220	AUSTIN	TRAVIS	TX	78745					78745	 TX	0	0	0	0	15	0	0	0	0	0	15	0	0	0	0	300	0	0	0	0	0	300	0	0	0	0	0	0		0	0	0	0	0	0		0	0	0	0	0	0		0	0	0	0	0	0		0	0	0	0	0	0		0	6	6	3	0	0	15	0	0	0	0	0	0		0	0	0	0	0	0		0	0	0	0	0	0		0	6	6	3	0	0	15	45	0	0	0	0	0	0		0	0	0	0	0	0		0	0	0	0	0	0		0	0	0	0	0	0		0	0	0	0	0	0		0	300	0	0	0	0	300	0	0	0	0	0	0		0	0	0	0	0	0		0	0	0	0	0	0		0	300	0	0	0	0	300	0	0	0	0	4	0	0	0	0	0	0	0	0	0		OUR SYSTEM ARE 3 YEARS OR LESS IN SERVICE.  ALL PIPE IS NEW AND PLASTIC.  MASTER METER SYSTEMS USING PROPANE	PATRICK USENER	5127798913	6/6/2005	6/16/2005		
2003	20031455	MONROE WATER LIGHT & GAS COMMISSION	22229	215 NORTH BROAD STREET	MONROE	WALTOM	GA	30655	 	 		GA	30655	GA	0	0	0	65	76	0	0	0	0	0	141	0	0	0	148	4015	0	0	0	0	0	4163	0	47	17	1	0	0	65	0	0	0	0	0	0	0	0	0	0	0	0	0	0	0	0	0	0	0	0	0	0	0	0	0	0	0	0	0	41	35	0	0	0	76	0	0	0	0	0	0	0	0	0	0	0	0	0	0	0	0	0	0	0	0	0	0	88	52	1	0	0	141	100	0	60	85	3	0	0	148	0	0	0	0	0	0	0	0	0	0	0	0	0	0	0	0	0	0	0	0	0	0	0	0	0	0	0	0	0	4001	11	3	0	0	4015	0	0	0	0	0	0	0	0	0	0	0	0	0	0	0	0	0	0	0	0	0	0	4061	96	6	0	0	4163	4	20	0	0	0	5	0	10	0	26	0	3	70	0	0	MOST OF THE KNOWN SYSTEM LEAKS ARE ABOVE GROUND AT METER SETS.	BRUCE M BAGNASCO	6784174031	7/5/2005	7/11/2005		
2003	20031456	HULBERT PUBLIC WORKS AUTH	7637	114 WEST MAIN	HULBERT	CHEROKEE	OK	74441					-91	 OK	0	0	0	12	150	0	0	0	0	0	162	0	0	0	0	1587	0	0	0	0	0	1587	0	0	0	12	0	0	12	0	0	0	0	0	0	0	0	0	0	0	0	0	0	0	0	0	0	0	0	0	0	0	0	0	0	0	0	0	123	17	10	0	0	150	0	0	0	0	0	0	0	0	0	0	0	0	0	0	0	0	0	0	0	0	0	0	123	17	22	0	0	162	10	0	0	0	0	0	0	0	0	0	0	0	0	0	0	0	0	0	0	0	0	0	0	0	0	0	0	0	0	0	0	0	0	0	0	0	0	1540	47	0	0	0	1587	0	0	0	0	0	0	0	0	0	0	0	0	0	0	0	0	0	0	0	0	0	0	1540	47	0	0	0	1587	0	0	0	0	1	12	0	1	0	0	1	0	0	0	0		ROBBIE VAUGHN	9187722503	3/15/2005	7/15/2005		
2003	20031457	NATIONAL FUEL GAS DISTRIBUTION CORP - NEW YORK	13062	6363 Main Street	Williamsville	Erie	NY	14221						 NY	2565	0	148	2038	4231	503	0	0	6	0	9491	98426	0	0	58346	290062	0	0	0	0	0	446834	0	806	2502	1164	174	105	4751	0	0	0	0	0	0		0	0	0	0	0	0		0	44	207	213	38	1	503	0	2287	1581	349	14	0	4231	0	0	0	0	0	0		0	0	0	0	0	0		0	0	3	3	0	0	6	0	0	0	0	0	0	0	0	3137	4293	1729	226	106	9491	50	44	4926	150433	1201	147	21	156772	0	0	0	0	0	0		0	0	0	0	0	0		0	0	0	0	0	0		0	0	0	0	0	0		184	79514	209270	1016	76	2	290062	0	0	0	0	0	0		0	0	0	0	0	0		0	0	0	0	0	0		228	84440	359703	2217	223	23	446834	2982	967	143	26	152	371	46	42	82	137	279	103	171	0	1.73		RICHARD C. FIORELLA - SUPT. ENGINEERING	7168577430	2/7/2006	2/8/2006		
																																																																																																																																																																																																							
																																																																																																																																																																																																							
																																																																																																																																																																																																							
																																																																																																																																																																																																							
																																																																																																																																																																																																							
																																																																																																																																																																																																							
																																																																																																																																																																																																							
																																																																																																																																																																																																							
																																																																																																																																																																																																							
																																																																																																																																																																																																							
																																																																																																																																																																																																							
																																																																																																																																																																																																							
																																																																																																																																																																																																							
																																																																																																																																																																																																							
																																																																																																																																																																																																							
																																																																																																																																																																																																							
																																																																																																																																																																																																							
																																																																																																																																																																																																							
																																																																																																																																																																																																							
																																																																																																																																																																																																							
																																																																																																																																																																																																							
																																																																																																																																																																																																							
																																																																																																																																																																																																							
																																																																																																																																																																																																							
																																																																																																																																																																																																							
																																																																																																																																																																																																							
																																																																																																																																																																																																							
																																																																																																																																																																																																							
																																																																																																																																																																																																							
																																																																																																																																																																																																							
																																																																																																																																																																																																							
																																																																																																																																																																																																							
																																																																																																																																																																																																							
																																																																																																																																																																																																							
																																																																																																																																																																																																							
																																																																																																																																																																																																							
																																																																																																																																																																																																							
																																																																																																																																																																																																							
																																																																																																																																																																																																							
																																																																																																																																																																																																							
																																																																																																																																																																																																							
																																																																																																																																																																																																							
																																																																																																																																																																																																							
																																																																																																																																																																																																							
																																																																																																																																																																																																							
																																																																																																																																																																																																							
																																																																																																																																																																																																							
																																																																																																																																																																																																							
																																																																																																																																																																																																							
																																																																																																																																																																																																							
																																																																																																																																																																																																							
																																																																																																																																																																																																							
																																																																																																																																																																																																							
																																																																																																																																																																																																							
																																																																																																																																																																																																							
																																																																																																																																																																																																							
																																																																																																																																																																																																							
																																																																																																																																																																																																							
																																																																																																																																																																																																							
																																																																																																																																																																																																							
																																																																																																																																																																																																							
																																																																																																																																																																																																							
																																																																																																																																																																																																							
																																																																																																																																																																																																							
																																																																																																																																																																																																							
																																																																																																																																																																																																							
																																																																																																																																																																																																							
																																																																																																																																																																																																							
																																																																																																																																																																																																							
																																																																																																																																																																																																							
																																																																																																																																																																																																							
																																																																																																																																																																																																							
																																																																																																																																																																																																							
																																																																																																																																																																																																							
																																																																																																																																																																																																							
																																																																																																																																																																																																							
																																																																																																																																																																																																							
																																																																																																																																																																																																							
																																																																																																																																																																																																							
																																																																																																																																																																																																							
																																																																																																																																																																																																							
																																																																																																																																																																																																							
																																																																																																																																																																																																							
																																																																																																																																																																																																							
																																																																																																																																																																																																							
																																																																																																																																																																																																							
																																																																																																																																																																																																							
																																																																																																																																																																																																							
																																																																																																																																																																																																							
																																																																																																																																																																																																							
																																																																																																																																																																																																							
																																																																																																																																																																																																							
																																																																																																																																																																																																							
																																																																																																																																																																																																							
																																																																																																																																																																																																							
																																																																																																																																																																																																							
																																																																																																																																																																																																							
																																																																																																																																																																																																							
																																																																																																																																																																																																							
																																																																																																																																																																																																							
																																																																																																																																																																																																							
																																																																																																																																																																																																							
																																																																																																																																																																																																							
																																																																																																																																																																																																							
																																																																																																																																																																																																							
																																																																																																																																																																																																							
																																																																																																																																																																																																							
																																																																																																																																																																																																							
																																																																																																																																																																																																							
																																																																																																																																																																																																							
																																																																																																																																																																																																							
																																																																																																																																																																																																							
																																																																																																																																																																																																							
																																																																																																																																																																																																							
																																																																																																																																																																																																							
																																																																																																																																																																																																							
																																																																																																																																																																																																							
																																																																																																																																																																																																							
																																																																																																																																																																																																							
																																																																																																																																																																																																							
																																																																																																																																																																																																							
																																																																																																																																																																																																							
																																																																																																																																																																																																							
																																																																																																																																																																																																							
																																																																																																																																																																																																							
																																																																																																																																																																																																							
																																																																																																																																																																																																							
																																																																																																																																																																																																							
																																																																																																																																																																																																							
																																																																																																																																																																																																							
																																																																																																																																																																																																							
																																																																																																																																																																																																							
																																																																																																																																																																																																							
																																																																																																																																																																																																							
																																																																																																																																																																																																							
																																																																																																																																																																																																							
																																																																																																																																																																																																							
																																																																																																																																																																																																							
																																																																																																																																																																																																							
																																																																																																																																																																																																							
																																																																																																																																																																																																							
																																																																																																																																																																																																							
																																																																																																																																																																																																							
